GAS LISTING /tmp/ccPqDlgc.s 			page 1


   1              		.file	"Console.cpp"
   2              		.option nopic
   3              		.option norelax
   4              		.attribute arch, "rv64i2p0_m2p0_a2p0"
   5              		.attribute unaligned_access, 0
   6              		.attribute stack_align, 16
   7              		.text
   8              	.Ltext0:
   9              		.align	2
  10              		.globl	_ZN8_ConsoleC2Ev
  12              	_ZN8_ConsoleC2Ev:
  13              	.LFB67:
  14              		.file 1 "src/Console.cpp"
   1:src/Console.cpp **** #include "../h/Console.hpp"
   2:src/Console.cpp **** #include "../h/Riscv.hpp"
   3:src/Console.cpp **** #include "../h/syscall_c.hpp"
   4:src/Console.cpp **** 
   5:src/Console.cpp **** void dbg(char c);
   6:src/Console.cpp **** 
   7:src/Console.cpp **** _Console& _Console::getInstance(){
   8:src/Console.cpp ****     static _Console instance;
   9:src/Console.cpp ****     return instance;
  10:src/Console.cpp **** }
  11:src/Console.cpp **** 
  12:src/Console.cpp **** _Console::_Console():
  15              		.loc 1 12 1
  16              		.cfi_startproc
  17              		.cfi_personality 0x9b,DW.ref.__gxx_personality_v0
  18              		.cfi_lsda 0x1b,.LLSDA67
  19              	.LVL0:
  20 0000 130101FE 		addi	sp,sp,-32
  21              		.cfi_def_cfa_offset 32
  22 0004 233C1100 		sd	ra,24(sp)
  23 0008 23388100 		sd	s0,16(sp)
  24 000c 23349100 		sd	s1,8(sp)
  25 0010 23302101 		sd	s2,0(sp)
  26              		.cfi_offset 1, -8
  27              		.cfi_offset 8, -16
  28              		.cfi_offset 9, -24
  29              		.cfi_offset 18, -32
  30 0014 13040102 		addi	s0,sp,32
  31              		.cfi_def_cfa 8, 0
  32 0018 93040500 		mv	s1,a0
  33              	.LVL1:
  34              	.LBB24:
  35              	.LBB25:
  36              	.LBB26:
  37              		.file 2 "src/../h/../h/BoundedBuffer.hpp"
   1:src/../h/../h/BoundedBuffer.hpp **** #ifndef BOUNDEDBUFFER_HPP
   2:src/../h/../h/BoundedBuffer.hpp **** #define BOUNDEDBUFFER_HPP
   3:src/../h/../h/BoundedBuffer.hpp **** 
   4:src/../h/../h/BoundedBuffer.hpp **** #include "../lib/hw.h"
   5:src/../h/../h/BoundedBuffer.hpp **** 
   6:src/../h/../h/BoundedBuffer.hpp **** class BoundedBuffer{
   7:src/../h/../h/BoundedBuffer.hpp **** public:
   8:src/../h/../h/BoundedBuffer.hpp ****     BoundedBuffer():head(0),tail(0) {
  38              		.loc 2 8 35 is_stmt 0
GAS LISTING /tmp/ccPqDlgc.s 			page 2


  39 001c 23340510 		sd	zero,264(a0)
  40 0020 23380510 		sd	zero,272(a0)
   9:src/../h/../h/BoundedBuffer.hpp ****         this->count=0;
  41              		.loc 2 9 9 is_stmt 1
  42              		.loc 2 9 20 is_stmt 0
  43 0024 23300510 		sd	zero,256(a0)
  44              	.LVL2:
  45              	.LBE26:
  46              	.LBE25:
  47              	.LBB27:
  48              	.LBB28:
   8:src/../h/../h/BoundedBuffer.hpp ****         this->count=0;
  49              		.loc 2 8 35
  50 0028 23300522 		sd	zero,544(a0)
  51 002c 23340522 		sd	zero,552(a0)
  52              		.loc 2 9 9 is_stmt 1
  53              		.loc 2 9 20 is_stmt 0
  54 0030 233C0520 		sd	zero,536(a0)
  55              	.LVL3:
  56              	.LBE28:
  57              	.LBE27:
  58              	.LBB29:
  59              	.LBB30:
  60              		.file 3 "src/../h/../h/Semaphore.hpp"
   1:src/../h/../h/Semaphore.hpp **** #ifndef SEMAPHORE_HPP
   2:src/../h/../h/Semaphore.hpp **** #define SEMAPHORE_HPP
   3:src/../h/../h/Semaphore.hpp **** 
   4:src/../h/../h/Semaphore.hpp **** #include "List.hpp"
   5:src/../h/../h/Semaphore.hpp **** #include "Scheduler.hpp"
   6:src/../h/../h/Semaphore.hpp **** #include "../lib/hw.h"
   7:src/../h/../h/Semaphore.hpp **** #include "../h/TCB.hpp"
   8:src/../h/../h/Semaphore.hpp **** 
   9:src/../h/../h/Semaphore.hpp **** class _Semaphore{
  10:src/../h/../h/Semaphore.hpp **** public:
  11:src/../h/../h/Semaphore.hpp ****     void* operator new(size_t n)   { return MemoryAllocator::getInstance().memAlloc(n); }
  61              		.loc 3 11 38 is_stmt 1
  62              	.LEHB0:
  63              		.loc 3 11 74 is_stmt 0
  64 0034 97000000 		call	_ZN15MemoryAllocator11getInstanceEv
  64      E7800000 
  65              	.LVL4:
  66              		.loc 3 11 84
  67 003c 93058001 		li	a1,24
  68 0040 97000000 		call	_ZN15MemoryAllocator8memAllocEm
  68      E7800000 
  69              	.LVL5:
  70              	.LEHE0:
  71 0048 13090500 		mv	s2,a0
  72              	.LVL6:
  73              	.LBE30:
  74              	.LBE29:
  13:src/Console.cpp ****     outputDataAvailable(new _Semaphore(0)),
  75              		.loc 1 13 41
  76 004c 93050000 		li	a1,0
  77              	.LEHB1:
  78 0050 97000000 		call	_ZN10_SemaphoreC1Em
  78      E7800000 
GAS LISTING /tmp/ccPqDlgc.s 			page 3


  79              	.LVL7:
  80              	.LEHE1:
  14:src/Console.cpp ****     inputDataAvailable(new _Semaphore(0)),
  15:src/Console.cpp ****     outputSpaceAvailable(new _Semaphore(BUFFER_SIZE-1))
  81              		.loc 1 15 55
  82 0058 23B82423 		sd	s2,560(s1)
  83              	.LVL8:
  84              	.LBB31:
  85              	.LBB32:
  86              		.loc 3 11 38 is_stmt 1
  87              	.LEHB2:
  88              		.loc 3 11 74 is_stmt 0
  89 005c 97000000 		call	_ZN15MemoryAllocator11getInstanceEv
  89      E7800000 
  90              	.LVL9:
  91              		.loc 3 11 84
  92 0064 93058001 		li	a1,24
  93 0068 97000000 		call	_ZN15MemoryAllocator8memAllocEm
  93      E7800000 
  94              	.LVL10:
  95              	.LEHE2:
  96 0070 13090500 		mv	s2,a0
  97              	.LVL11:
  98              	.LBE32:
  99              	.LBE31:
  14:src/Console.cpp ****     inputDataAvailable(new _Semaphore(0)),
 100              		.loc 1 14 40
 101 0074 93050000 		li	a1,0
 102              	.LEHB3:
 103 0078 97000000 		call	_ZN10_SemaphoreC1Em
 103      E7800000 
 104              	.LVL12:
 105              	.LEHE3:
 106              		.loc 1 15 55
 107 0080 23BC2423 		sd	s2,568(s1)
 108              	.LVL13:
 109              	.LBB33:
 110              	.LBB34:
 111              		.loc 3 11 38 is_stmt 1
 112              	.LEHB4:
 113              		.loc 3 11 74 is_stmt 0
 114 0084 97000000 		call	_ZN15MemoryAllocator11getInstanceEv
 114      E7800000 
 115              	.LVL14:
 116              		.loc 3 11 84
 117 008c 93058001 		li	a1,24
 118 0090 97000000 		call	_ZN15MemoryAllocator8memAllocEm
 118      E7800000 
 119              	.LVL15:
 120              	.LEHE4:
 121 0098 13090500 		mv	s2,a0
 122              	.LVL16:
 123              	.LBE34:
 124              	.LBE33:
 125              		.loc 1 15 54
 126 009c 9305F00F 		li	a1,255
 127              	.LEHB5:
GAS LISTING /tmp/ccPqDlgc.s 			page 4


 128 00a0 97000000 		call	_ZN10_SemaphoreC1Em
 128      E7800000 
 129              	.LVL17:
 130              	.LEHE5:
 131              		.loc 1 15 55 discriminator 2
 132 00a8 23B02425 		sd	s2,576(s1)
 133              	.LBE24:
  16:src/Console.cpp ****     {}
 134              		.loc 1 16 6 discriminator 2
 135 00ac 83308101 		ld	ra,24(sp)
 136              		.cfi_remember_state
 137              		.cfi_restore 1
 138 00b0 03340101 		ld	s0,16(sp)
 139              		.cfi_restore 8
 140              		.cfi_def_cfa 2, 32
 141 00b4 83348100 		ld	s1,8(sp)
 142              		.cfi_restore 9
 143              	.LVL18:
 144 00b8 03390100 		ld	s2,0(sp)
 145              		.cfi_restore 18
 146 00bc 13010102 		addi	sp,sp,32
 147              		.cfi_def_cfa_offset 0
 148 00c0 67800000 		jr	ra
 149              	.LVL19:
 150              	.L5:
 151              		.cfi_restore_state
 152 00c4 93040500 		mv	s1,a0
 153              	.LVL20:
 154              	.LBB41:
 155              	.LBB35:
 156              	.LBB36:
  12:src/../h/../h/Semaphore.hpp ****     void  operator delete(void* p) { MemoryAllocator::getInstance().free(p); }
 157              		.loc 3 12 38 is_stmt 1
 158              		.loc 3 12 67 is_stmt 0
 159 00c8 97000000 		call	_ZN15MemoryAllocator11getInstanceEv
 159      E7800000 
 160              	.LVL21:
 161              		.loc 3 12 73
 162 00d0 93050900 		mv	a1,s2
 163 00d4 97000000 		call	_ZN15MemoryAllocator4freeEPv
 163      E7800000 
 164              	.LVL22:
 165 00dc 13850400 		mv	a0,s1
 166              	.LEHB6:
 167 00e0 97000000 		call	_Unwind_Resume
 167      E7800000 
 168              	.LVL23:
 169              	.LEHE6:
 170              	.L6:
 171 00e8 93040500 		mv	s1,a0
 172              	.LVL24:
 173              	.LBE36:
 174              	.LBE35:
 175              	.LBB37:
 176              	.LBB38:
 177              		.loc 3 12 38 is_stmt 1
 178              		.loc 3 12 67 is_stmt 0
GAS LISTING /tmp/ccPqDlgc.s 			page 5


 179 00ec 97000000 		call	_ZN15MemoryAllocator11getInstanceEv
 179      E7800000 
 180              	.LVL25:
 181              		.loc 3 12 73
 182 00f4 93050900 		mv	a1,s2
 183 00f8 97000000 		call	_ZN15MemoryAllocator4freeEPv
 183      E7800000 
 184              	.LVL26:
 185 0100 13850400 		mv	a0,s1
 186              	.LEHB7:
 187 0104 97000000 		call	_Unwind_Resume
 187      E7800000 
 188              	.LVL27:
 189              	.LEHE7:
 190              	.L7:
 191 010c 93040500 		mv	s1,a0
 192              	.LVL28:
 193              	.LBE38:
 194              	.LBE37:
 195              	.LBB39:
 196              	.LBB40:
 197              		.loc 3 12 38 is_stmt 1
 198              		.loc 3 12 67 is_stmt 0
 199 0110 97000000 		call	_ZN15MemoryAllocator11getInstanceEv
 199      E7800000 
 200              	.LVL29:
 201              		.loc 3 12 73
 202 0118 93050900 		mv	a1,s2
 203 011c 97000000 		call	_ZN15MemoryAllocator4freeEPv
 203      E7800000 
 204              	.LVL30:
 205 0124 13850400 		mv	a0,s1
 206              	.LEHB8:
 207 0128 97000000 		call	_Unwind_Resume
 207      E7800000 
 208              	.LVL31:
 209              	.LEHE8:
 210              	.LBE40:
 211              	.LBE39:
 212              	.LBE41:
 213              		.cfi_endproc
 214              	.LFE67:
 215              		.globl	__gxx_personality_v0
 216              		.section	.gcc_except_table,"aw",@progbits
 217              	.LLSDA67:
 218 0000 FF       		.byte	0xff
 219 0001 FF       		.byte	0xff
 220 0002 03       		.byte	0x3
 221 0003 75       		.byte	0x75
 222 0004 00000000 		.4byte	.LEHB0-.LFB67
 223 0008 00000000 		.4byte	.LEHE0-.LEHB0
 224 000c 00000000 		.4byte	0
 225 0010 00       		.byte	0
 226 0011 00000000 		.4byte	.LEHB1-.LFB67
 227 0015 00000000 		.4byte	.LEHE1-.LEHB1
 228 0019 00000000 		.4byte	.L5-.LFB67
 229 001d 00       		.byte	0
GAS LISTING /tmp/ccPqDlgc.s 			page 6


 230 001e 00000000 		.4byte	.LEHB2-.LFB67
 231 0022 00000000 		.4byte	.LEHE2-.LEHB2
 232 0026 00000000 		.4byte	0
 233 002a 00       		.byte	0
 234 002b 00000000 		.4byte	.LEHB3-.LFB67
 235 002f 00000000 		.4byte	.LEHE3-.LEHB3
 236 0033 00000000 		.4byte	.L6-.LFB67
 237 0037 00       		.byte	0
 238 0038 00000000 		.4byte	.LEHB4-.LFB67
 239 003c 00000000 		.4byte	.LEHE4-.LEHB4
 240 0040 00000000 		.4byte	0
 241 0044 00       		.byte	0
 242 0045 00000000 		.4byte	.LEHB5-.LFB67
 243 0049 00000000 		.4byte	.LEHE5-.LEHB5
 244 004d 00000000 		.4byte	.L7-.LFB67
 245 0051 00       		.byte	0
 246 0052 00000000 		.4byte	.LEHB6-.LFB67
 247 0056 00000000 		.4byte	.LEHE6-.LEHB6
 248 005a 00000000 		.4byte	0
 249 005e 00       		.byte	0
 250 005f 00000000 		.4byte	.LEHB7-.LFB67
 251 0063 00000000 		.4byte	.LEHE7-.LEHB7
 252 0067 00000000 		.4byte	0
 253 006b 00       		.byte	0
 254 006c 00000000 		.4byte	.LEHB8-.LFB67
 255 0070 00000000 		.4byte	.LEHE8-.LEHB8
 256 0074 00000000 		.4byte	0
 257 0078 00       		.byte	0
 258              		.text
 260              		.globl	_ZN8_ConsoleC1Ev
 261              		.set	_ZN8_ConsoleC1Ev,_ZN8_ConsoleC2Ev
 262              		.align	2
 263              		.globl	_ZN8_Console11getInstanceEv
 265              	_ZN8_Console11getInstanceEv:
 266              	.LFB65:
   7:src/Console.cpp ****     static _Console instance;
 267              		.loc 1 7 34 is_stmt 1
 268              		.cfi_startproc
   8:src/Console.cpp ****     return instance;
 269              		.loc 1 8 5
   8:src/Console.cpp ****     return instance;
 270              		.loc 1 8 21 is_stmt 0
 271 0130 97070000 		lbu	a5,_ZGVZN8_Console11getInstanceEvE8instance
 271      83C70700 
 272 0138 63880700 		beqz	a5,.L16
   9:src/Console.cpp **** }
 273              		.loc 1 9 5 is_stmt 1
  10:src/Console.cpp **** 
 274              		.loc 1 10 1 is_stmt 0
 275 013c 17050000 		lla	a0,.LANCHOR0
 275      13050500 
 276 0144 67800000 		ret
 277              	.L16:
   7:src/Console.cpp ****     static _Console instance;
 278              		.loc 1 7 34 discriminator 1
 279 0148 130101FF 		addi	sp,sp,-16
 280              		.cfi_def_cfa_offset 16
GAS LISTING /tmp/ccPqDlgc.s 			page 7


 281 014c 23341100 		sd	ra,8(sp)
 282 0150 23308100 		sd	s0,0(sp)
 283              		.cfi_offset 1, -8
 284              		.cfi_offset 8, -16
 285 0154 13040101 		addi	s0,sp,16
 286              		.cfi_def_cfa 8, 0
   8:src/Console.cpp ****     return instance;
 287              		.loc 1 8 21 discriminator 1
 288 0158 17050000 		lla	a0,.LANCHOR0
 288      13050500 
 289 0160 97000000 		call	_ZN8_ConsoleC1Ev
 289      E7800000 
 290              	.LVL32:
 291 0168 93071000 		li	a5,1
 292 016c 17070000 		sb	a5,_ZGVZN8_Console11getInstanceEvE8instance,a4
 292      2300F700 
   9:src/Console.cpp **** }
 293              		.loc 1 9 5 is_stmt 1 discriminator 1
  10:src/Console.cpp **** 
 294              		.loc 1 10 1 is_stmt 0 discriminator 1
 295 0174 17050000 		lla	a0,.LANCHOR0
 295      13050500 
 296 017c 83308100 		ld	ra,8(sp)
 297              		.cfi_restore 1
 298 0180 03340100 		ld	s0,0(sp)
 299              		.cfi_restore 8
 300              		.cfi_def_cfa 2, 16
 301 0184 13010101 		addi	sp,sp,16
 302              		.cfi_def_cfa_offset 0
 303 0188 67800000 		jr	ra
 304              		.cfi_endproc
 305              	.LFE65:
 307              		.align	2
 308              		.globl	_ZN8_Console4putcEc
 310              	_ZN8_Console4putcEc:
 311              	.LFB69:
  17:src/Console.cpp **** 
  18:src/Console.cpp **** void _Console::putc(char c){
 312              		.loc 1 18 28 is_stmt 1
 313              		.cfi_startproc
 314              	.LVL33:
 315 018c 130101FE 		addi	sp,sp,-32
 316              		.cfi_def_cfa_offset 32
 317 0190 233C1100 		sd	ra,24(sp)
 318 0194 23388100 		sd	s0,16(sp)
 319 0198 23349100 		sd	s1,8(sp)
 320 019c 23302101 		sd	s2,0(sp)
 321              		.cfi_offset 1, -8
 322              		.cfi_offset 8, -16
 323              		.cfi_offset 9, -24
 324              		.cfi_offset 18, -32
 325 01a0 13040102 		addi	s0,sp,32
 326              		.cfi_def_cfa 8, 0
 327 01a4 93040500 		mv	s1,a0
 328 01a8 13890500 		mv	s2,a1
  19:src/Console.cpp ****     outputSpaceAvailable->wait();
 329              		.loc 1 19 5
GAS LISTING /tmp/ccPqDlgc.s 			page 8


 330              		.loc 1 19 31 is_stmt 0
 331 01ac 03350524 		ld	a0,576(a0)
 332              	.LVL34:
 333 01b0 97000000 		call	_ZN10_Semaphore4waitEv
 333      E7800000 
 334              	.LVL35:
  20:src/Console.cpp ****     outputBuffer.append(c);
 335              		.loc 1 20 5 is_stmt 1
 336              		.loc 1 20 24 is_stmt 0
 337 01b8 93050900 		mv	a1,s2
 338 01bc 13858411 		addi	a0,s1,280
 339 01c0 97000000 		call	_ZN13BoundedBuffer6appendEc
 339      E7800000 
 340              	.LVL36:
  21:src/Console.cpp ****     outputDataAvailable->signal();
 341              		.loc 1 21 5 is_stmt 1
 342              		.loc 1 21 32 is_stmt 0
 343 01c8 03B50423 		ld	a0,560(s1)
 344 01cc 97000000 		call	_ZN10_Semaphore6signalEv
 344      E7800000 
 345              	.LVL37:
  22:src/Console.cpp **** }
 346              		.loc 1 22 1
 347 01d4 83308101 		ld	ra,24(sp)
 348              		.cfi_restore 1
 349 01d8 03340101 		ld	s0,16(sp)
 350              		.cfi_restore 8
 351              		.cfi_def_cfa 2, 32
 352 01dc 83348100 		ld	s1,8(sp)
 353              		.cfi_restore 9
 354              	.LVL38:
 355 01e0 03390100 		ld	s2,0(sp)
 356              		.cfi_restore 18
 357 01e4 13010102 		addi	sp,sp,32
 358              		.cfi_def_cfa_offset 0
 359 01e8 67800000 		jr	ra
 360              		.cfi_endproc
 361              	.LFE69:
 363              		.align	2
 364              		.globl	_ZN8_Console4getcEv
 366              	_ZN8_Console4getcEv:
 367              	.LFB70:
  23:src/Console.cpp **** 
  24:src/Console.cpp **** char _Console::getc(){
 368              		.loc 1 24 22 is_stmt 1
 369              		.cfi_startproc
 370              	.LVL39:
 371 01ec 130101FE 		addi	sp,sp,-32
 372              		.cfi_def_cfa_offset 32
 373 01f0 233C1100 		sd	ra,24(sp)
 374 01f4 23388100 		sd	s0,16(sp)
 375 01f8 23349100 		sd	s1,8(sp)
 376              		.cfi_offset 1, -8
 377              		.cfi_offset 8, -16
 378              		.cfi_offset 9, -24
 379 01fc 13040102 		addi	s0,sp,32
 380              		.cfi_def_cfa 8, 0
GAS LISTING /tmp/ccPqDlgc.s 			page 9


 381 0200 93040500 		mv	s1,a0
  25:src/Console.cpp ****     inputDataAvailable->wait();
 382              		.loc 1 25 5
 383              		.loc 1 25 29 is_stmt 0
 384 0204 03358523 		ld	a0,568(a0)
 385              	.LVL40:
 386 0208 97000000 		call	_ZN10_Semaphore4waitEv
 386      E7800000 
 387              	.LVL41:
  26:src/Console.cpp ****     return inputBuffer.take();
 388              		.loc 1 26 5 is_stmt 1
 389              		.loc 1 26 28 is_stmt 0
 390 0210 13850400 		mv	a0,s1
 391 0214 97000000 		call	_ZN13BoundedBuffer4takeEv
 391      E7800000 
 392              	.LVL42:
  27:src/Console.cpp **** }
 393              		.loc 1 27 1
 394 021c 83308101 		ld	ra,24(sp)
 395              		.cfi_restore 1
 396 0220 03340101 		ld	s0,16(sp)
 397              		.cfi_restore 8
 398              		.cfi_def_cfa 2, 32
 399 0224 83348100 		ld	s1,8(sp)
 400              		.cfi_restore 9
 401              	.LVL43:
 402 0228 13010102 		addi	sp,sp,32
 403              		.cfi_def_cfa_offset 0
 404 022c 67800000 		jr	ra
 405              		.cfi_endproc
 406              	.LFE70:
 408              		.align	2
 409              		.globl	_Z12outputThreadPv
 411              	_Z12outputThreadPv:
 412              	.LFB71:
  28:src/Console.cpp **** 
  29:src/Console.cpp **** void outputThread(void*){
 413              		.loc 1 29 25 is_stmt 1
 414              		.cfi_startproc
 415 0230 130101FE 		addi	sp,sp,-32
 416              		.cfi_def_cfa_offset 32
 417 0234 233C1100 		sd	ra,24(sp)
 418 0238 23388100 		sd	s0,16(sp)
 419 023c 23349100 		sd	s1,8(sp)
 420              		.cfi_offset 1, -8
 421              		.cfi_offset 8, -16
 422              		.cfi_offset 9, -24
 423 0240 13040102 		addi	s0,sp,32
 424              		.cfi_def_cfa 8, 0
  30:src/Console.cpp ****     _Console& console = _Console::getInstance();
 425              		.loc 1 30 5
 426              		.loc 1 30 47 is_stmt 0
 427 0244 97000000 		call	_ZN8_Console11getInstanceEv
 427      E7800000 
 428              	.LVL44:
 429 024c 93040500 		mv	s1,a0
 430              	.LVL45:
GAS LISTING /tmp/ccPqDlgc.s 			page 10


 431 0250 6F008002 		j	.L24
 432              	.L22:
  31:src/Console.cpp ****     while(1){
  32:src/Console.cpp ****         console.outputDataAvailable->wait();
  33:src/Console.cpp ****         while(!(*(volatile char*)CONSOLE_STATUS & CONSOLE_TX_STATUS_BIT)) {
  34:src/Console.cpp ****             thread_dispatch();
  35:src/Console.cpp ****         }
  36:src/Console.cpp ****         *(volatile char*)CONSOLE_TX_DATA = console.outputBuffer.take();
 433              		.loc 1 36 9 is_stmt 1
 434              		.loc 1 36 69 is_stmt 0
 435 0254 13858411 		addi	a0,s1,280
 436 0258 97000000 		call	_ZN13BoundedBuffer4takeEv
 436      E7800000 
 437              	.LVL46:
 438              		.loc 1 36 42
 439 0260 97070000 		ld	a5,CONSOLE_TX_DATA
 439      83B70700 
 440 0268 2380A700 		sb	a0,0(a5)
  37:src/Console.cpp ****         console.outputSpaceAvailable->signal();
 441              		.loc 1 37 9 is_stmt 1
 442              		.loc 1 37 45 is_stmt 0
 443 026c 03B50424 		ld	a0,576(s1)
 444 0270 97000000 		call	_ZN10_Semaphore6signalEv
 444      E7800000 
 445              	.LVL47:
  31:src/Console.cpp ****     while(1){
 446              		.loc 1 31 5 is_stmt 1
 447              	.L24:
  31:src/Console.cpp ****     while(1){
 448              		.loc 1 31 5
  32:src/Console.cpp ****         while(!(*(volatile char*)CONSOLE_STATUS & CONSOLE_TX_STATUS_BIT)) {
 449              		.loc 1 32 9
  32:src/Console.cpp ****         while(!(*(volatile char*)CONSOLE_STATUS & CONSOLE_TX_STATUS_BIT)) {
 450              		.loc 1 32 42 is_stmt 0
 451 0278 03B50423 		ld	a0,560(s1)
 452 027c 97000000 		call	_ZN10_Semaphore4waitEv
 452      E7800000 
 453              	.LVL48:
 454              	.L23:
  33:src/Console.cpp ****             thread_dispatch();
 455              		.loc 1 33 9 is_stmt 1
  33:src/Console.cpp ****             thread_dispatch();
 456              		.loc 1 33 15
  33:src/Console.cpp ****             thread_dispatch();
 457              		.loc 1 33 17 is_stmt 0
 458 0284 97070000 		ld	a5,CONSOLE_STATUS
 458      83B70700 
 459 028c 83C70700 		lbu	a5,0(a5)
 460 0290 93F7F70F 		andi	a5,a5,0xff
  33:src/Console.cpp ****             thread_dispatch();
 461              		.loc 1 33 15
 462 0294 93F70702 		andi	a5,a5,32
 463 0298 E39E07FA 		bnez	a5,.L22
  34:src/Console.cpp ****         }
 464              		.loc 1 34 13 is_stmt 1
  34:src/Console.cpp ****         }
 465              		.loc 1 34 28 is_stmt 0
GAS LISTING /tmp/ccPqDlgc.s 			page 11


 466 029c 97000000 		call	_Z15thread_dispatchv
 466      E7800000 
 467              	.LVL49:
  33:src/Console.cpp ****             thread_dispatch();
 468              		.loc 1 33 9
 469 02a4 6FF01FFE 		j	.L23
 470              		.cfi_endproc
 471              	.LFE71:
 473              		.align	2
 474              		.globl	_ZN8_Console17keyboardInterruptEv
 476              	_ZN8_Console17keyboardInterruptEv:
 477              	.LFB72:
  38:src/Console.cpp ****     }
  39:src/Console.cpp **** }
  40:src/Console.cpp **** 
  41:src/Console.cpp **** 
  42:src/Console.cpp **** void _Console::keyboardInterrupt(){
 478              		.loc 1 42 35 is_stmt 1
 479              		.cfi_startproc
 480              	.LVL50:
 481 02a8 130101FE 		addi	sp,sp,-32
 482              		.cfi_def_cfa_offset 32
 483 02ac 233C1100 		sd	ra,24(sp)
 484 02b0 23388100 		sd	s0,16(sp)
 485 02b4 23349100 		sd	s1,8(sp)
 486              		.cfi_offset 1, -8
 487              		.cfi_offset 8, -16
 488              		.cfi_offset 9, -24
 489 02b8 13040102 		addi	s0,sp,32
 490              		.cfi_def_cfa 8, 0
  43:src/Console.cpp ****     _Console& console=_Console::getInstance();
 491              		.loc 1 43 5
 492              		.loc 1 43 45 is_stmt 0
 493 02bc 97000000 		call	_ZN8_Console11getInstanceEv
 493      E7800000 
 494              	.LVL51:
 495 02c4 93040500 		mv	s1,a0
 496              	.LVL52:
 497              	.L28:
  44:src/Console.cpp ****     while(*(volatile char*)CONSOLE_STATUS & CONSOLE_RX_STATUS_BIT){
 498              		.loc 1 44 5 is_stmt 1
 499              		.loc 1 44 45
 500              		.loc 1 44 11 is_stmt 0
 501 02c8 97070000 		ld	a5,CONSOLE_STATUS
 501      83B70700 
 502 02d0 83C70700 		lbu	a5,0(a5)
 503              		.loc 1 44 45
 504 02d4 93F71700 		andi	a5,a5,1
 505 02d8 638E0702 		beqz	a5,.L26
 506              	.LBB42:
  45:src/Console.cpp ****         char data=*(volatile char*)CONSOLE_RX_DATA;
 507              		.loc 1 45 9 is_stmt 1
 508              		.loc 1 45 19 is_stmt 0
 509 02dc 97070000 		ld	a5,CONSOLE_RX_DATA
 509      83B70700 
 510              		.loc 1 45 36
 511 02e4 83C50700 		lbu	a1,0(a5)
GAS LISTING /tmp/ccPqDlgc.s 			page 12


 512 02e8 93F5F50F 		andi	a1,a1,0xff
 513              	.LVL53:
  46:src/Console.cpp ****         if(!console.inputBuffer.isFull()){
 514              		.loc 1 46 9 is_stmt 1
 515              	.LBB43:
 516              	.LBB44:
  10:src/../h/../h/BoundedBuffer.hpp ****     }
  11:src/../h/../h/BoundedBuffer.hpp ****     void append(char);
  12:src/../h/../h/BoundedBuffer.hpp ****     char take();
  13:src/../h/../h/BoundedBuffer.hpp ****     bool isEmpty() const { return count==0; }
  14:src/../h/../h/BoundedBuffer.hpp ****     bool isFull() const { return count==BUFFER_SIZE; }
 517              		.loc 2 14 27
 518              		.loc 2 14 34 is_stmt 0
 519 02ec 03B70410 		ld	a4,256(s1)
 520              	.LVL54:
 521              	.LBE44:
 522              	.LBE43:
 523              		.loc 1 46 9
 524 02f0 93070010 		li	a5,256
 525 02f4 E30AF7FC 		beq	a4,a5,.L28
  47:src/Console.cpp ****             console.inputBuffer.append(data);
 526              		.loc 1 47 13 is_stmt 1
 527              		.loc 1 47 39 is_stmt 0
 528 02f8 13850400 		mv	a0,s1
 529 02fc 97000000 		call	_ZN13BoundedBuffer6appendEc
 529      E7800000 
 530              	.LVL55:
  48:src/Console.cpp ****             console.inputDataAvailable->signal();
 531              		.loc 1 48 13 is_stmt 1
 532              		.loc 1 48 47 is_stmt 0
 533 0304 03B58423 		ld	a0,568(s1)
 534 0308 97000000 		call	_ZN10_Semaphore6signalEv
 534      E7800000 
 535              	.LVL56:
 536 0310 6FF09FFB 		j	.L28
 537              	.L26:
 538              	.LBE42:
  49:src/Console.cpp ****         }
  50:src/Console.cpp ****     }
  51:src/Console.cpp **** }...
 539              		.loc 1 51 1
 540 0314 83308101 		ld	ra,24(sp)
 541              		.cfi_restore 1
 542 0318 03340101 		ld	s0,16(sp)
 543              		.cfi_restore 8
 544              		.cfi_def_cfa 2, 32
 545 031c 83348100 		ld	s1,8(sp)
 546              		.cfi_restore 9
 547              	.LVL57:
 548 0320 13010102 		addi	sp,sp,32
 549              		.cfi_def_cfa_offset 0
 550 0324 67800000 		jr	ra
 551              		.cfi_endproc
 552              	.LFE72:
 554              		.bss
 555              		.align	3
 556              		.set	.LANCHOR0,. + 0
GAS LISTING /tmp/ccPqDlgc.s 			page 13


 559              	_ZZN8_Console11getInstanceEvE8instance:
 560 0000 00000000 		.zero	584
 560      00000000 
 560      00000000 
 560      00000000 
 560      00000000 
 561              		.section	.sbss,"aw",@nobits
 562              		.align	3
 565              	_ZGVZN8_Console11getInstanceEvE8instance:
 566 0000 00000000 		.zero	8
 566      00000000 
 567              		.text
 568              	.Letext0:
 569              		.file 4 "src/../h/../lib/hw.h"
 570              		.file 5 "src/../h/../h/../h/MemoryAllocator.hpp"
 571              		.file 6 "src/../h/../h/../h/TCB.hpp"
 572              		.file 7 "src/../h/../h/List.hpp"
 573              		.file 8 "src/../h/Console.hpp"
 574              		.file 9 "src/../h/syscall_c.hpp"
 4264              		.align	3
 4267              	DW.ref.__gxx_personality_v0:
 4268 0000 00000000 		.dword	__gxx_personality_v0
 4268      00000000 
 4269              		.ident	"GCC: () 9.3.0"
GAS LISTING /tmp/ccPqDlgc.s 			page 14


DEFINED SYMBOLS
                            *ABS*:0000000000000000 Console.cpp
     /tmp/ccPqDlgc.s:12     .text:0000000000000000 _ZN8_ConsoleC2Ev
     /tmp/ccPqDlgc.s:16     .text:0000000000000000 .L0 
     /tmp/ccPqDlgc.s:4267   .sdata.DW.ref.__gxx_personality_v0:0000000000000000 DW.ref.__gxx_personality_v0
     /tmp/ccPqDlgc.s:20     .text:0000000000000000 .L0 
     /tmp/ccPqDlgc.s:21     .text:0000000000000004 .L0 
     /tmp/ccPqDlgc.s:26     .text:0000000000000014 .L0 
     /tmp/ccPqDlgc.s:27     .text:0000000000000014 .L0 
     /tmp/ccPqDlgc.s:28     .text:0000000000000014 .L0 
     /tmp/ccPqDlgc.s:29     .text:0000000000000014 .L0 
     /tmp/ccPqDlgc.s:31     .text:0000000000000018 .L0 
     /tmp/ccPqDlgc.s:39     .text:000000000000001c .L0 
     /tmp/ccPqDlgc.s:42     .text:0000000000000024 .L0 
     /tmp/ccPqDlgc.s:43     .text:0000000000000024 .L0 
     /tmp/ccPqDlgc.s:50     .text:0000000000000028 .L0 
     /tmp/ccPqDlgc.s:53     .text:0000000000000030 .L0 
     /tmp/ccPqDlgc.s:54     .text:0000000000000030 .L0 
     /tmp/ccPqDlgc.s:63     .text:0000000000000034 .L0 
     /tmp/ccPqDlgc.s:64     .text:0000000000000034 .L0 
     /tmp/ccPqDlgc.s:67     .text:000000000000003c .L0 
     /tmp/ccPqDlgc.s:76     .text:000000000000004c .L0 
     /tmp/ccPqDlgc.s:82     .text:0000000000000058 .L0 
     /tmp/ccPqDlgc.s:88     .text:000000000000005c .L0 
     /tmp/ccPqDlgc.s:89     .text:000000000000005c .L0 
     /tmp/ccPqDlgc.s:92     .text:0000000000000064 .L0 
     /tmp/ccPqDlgc.s:101    .text:0000000000000074 .L0 
     /tmp/ccPqDlgc.s:107    .text:0000000000000080 .L0 
     /tmp/ccPqDlgc.s:113    .text:0000000000000084 .L0 
     /tmp/ccPqDlgc.s:114    .text:0000000000000084 .L0 
     /tmp/ccPqDlgc.s:117    .text:000000000000008c .L0 
     /tmp/ccPqDlgc.s:126    .text:000000000000009c .L0 
     /tmp/ccPqDlgc.s:132    .text:00000000000000a8 .L0 
     /tmp/ccPqDlgc.s:135    .text:00000000000000ac .L0 
     /tmp/ccPqDlgc.s:136    .text:00000000000000b0 .L0 
     /tmp/ccPqDlgc.s:137    .text:00000000000000b0 .L0 
     /tmp/ccPqDlgc.s:139    .text:00000000000000b4 .L0 
     /tmp/ccPqDlgc.s:140    .text:00000000000000b4 .L0 
     /tmp/ccPqDlgc.s:142    .text:00000000000000b8 .L0 
     /tmp/ccPqDlgc.s:145    .text:00000000000000bc .L0 
     /tmp/ccPqDlgc.s:147    .text:00000000000000c0 .L0 
     /tmp/ccPqDlgc.s:151    .text:00000000000000c4 .L0 
     /tmp/ccPqDlgc.s:158    .text:00000000000000c8 .L0 
     /tmp/ccPqDlgc.s:159    .text:00000000000000c8 .L0 
     /tmp/ccPqDlgc.s:162    .text:00000000000000d0 .L0 
     /tmp/ccPqDlgc.s:178    .text:00000000000000ec .L0 
     /tmp/ccPqDlgc.s:179    .text:00000000000000ec .L0 
     /tmp/ccPqDlgc.s:182    .text:00000000000000f4 .L0 
     /tmp/ccPqDlgc.s:198    .text:0000000000000110 .L0 
     /tmp/ccPqDlgc.s:199    .text:0000000000000110 .L0 
     /tmp/ccPqDlgc.s:202    .text:0000000000000118 .L0 
     /tmp/ccPqDlgc.s:213    .text:0000000000000130 .L0 
     /tmp/ccPqDlgc.s:12     .text:0000000000000000 _ZN8_ConsoleC1Ev
     /tmp/ccPqDlgc.s:265    .text:0000000000000130 _ZN8_Console11getInstanceEv
     /tmp/ccPqDlgc.s:268    .text:0000000000000130 .L0 
     /tmp/ccPqDlgc.s:269    .text:0000000000000130 .L0 
     /tmp/ccPqDlgc.s:270    .text:0000000000000130 .L0 
GAS LISTING /tmp/ccPqDlgc.s 			page 15


     /tmp/ccPqDlgc.s:565    .sbss:0000000000000000 _ZGVZN8_Console11getInstanceEvE8instance
     /tmp/ccPqDlgc.s:271    .text:0000000000000130 .L0 
     /tmp/ccPqDlgc.s:274    .text:000000000000013c .L0 
     /tmp/ccPqDlgc.s:275    .text:000000000000013c .L0 
     /tmp/ccPqDlgc.s:279    .text:0000000000000148 .L0 
     /tmp/ccPqDlgc.s:280    .text:000000000000014c .L0 
     /tmp/ccPqDlgc.s:283    .text:0000000000000154 .L0 
     /tmp/ccPqDlgc.s:284    .text:0000000000000154 .L0 
     /tmp/ccPqDlgc.s:286    .text:0000000000000158 .L0 
     /tmp/ccPqDlgc.s:288    .text:0000000000000158 .L0 
     /tmp/ccPqDlgc.s:294    .text:0000000000000174 .L0 
     /tmp/ccPqDlgc.s:295    .text:0000000000000174 .L0 
     /tmp/ccPqDlgc.s:297    .text:0000000000000180 .L0 
     /tmp/ccPqDlgc.s:299    .text:0000000000000184 .L0 
     /tmp/ccPqDlgc.s:300    .text:0000000000000184 .L0 
     /tmp/ccPqDlgc.s:302    .text:0000000000000188 .L0 
     /tmp/ccPqDlgc.s:304    .text:000000000000018c .L0 
     /tmp/ccPqDlgc.s:310    .text:000000000000018c _ZN8_Console4putcEc
     /tmp/ccPqDlgc.s:313    .text:000000000000018c .L0 
     /tmp/ccPqDlgc.s:315    .text:000000000000018c .L0 
     /tmp/ccPqDlgc.s:316    .text:0000000000000190 .L0 
     /tmp/ccPqDlgc.s:321    .text:00000000000001a0 .L0 
     /tmp/ccPqDlgc.s:322    .text:00000000000001a0 .L0 
     /tmp/ccPqDlgc.s:323    .text:00000000000001a0 .L0 
     /tmp/ccPqDlgc.s:324    .text:00000000000001a0 .L0 
     /tmp/ccPqDlgc.s:326    .text:00000000000001a4 .L0 
     /tmp/ccPqDlgc.s:330    .text:00000000000001ac .L0 
     /tmp/ccPqDlgc.s:331    .text:00000000000001ac .L0 
     /tmp/ccPqDlgc.s:336    .text:00000000000001b8 .L0 
     /tmp/ccPqDlgc.s:337    .text:00000000000001b8 .L0 
     /tmp/ccPqDlgc.s:342    .text:00000000000001c8 .L0 
     /tmp/ccPqDlgc.s:343    .text:00000000000001c8 .L0 
     /tmp/ccPqDlgc.s:347    .text:00000000000001d4 .L0 
     /tmp/ccPqDlgc.s:348    .text:00000000000001d8 .L0 
     /tmp/ccPqDlgc.s:350    .text:00000000000001dc .L0 
     /tmp/ccPqDlgc.s:351    .text:00000000000001dc .L0 
     /tmp/ccPqDlgc.s:353    .text:00000000000001e0 .L0 
     /tmp/ccPqDlgc.s:356    .text:00000000000001e4 .L0 
     /tmp/ccPqDlgc.s:358    .text:00000000000001e8 .L0 
     /tmp/ccPqDlgc.s:360    .text:00000000000001ec .L0 
     /tmp/ccPqDlgc.s:366    .text:00000000000001ec _ZN8_Console4getcEv
     /tmp/ccPqDlgc.s:369    .text:00000000000001ec .L0 
     /tmp/ccPqDlgc.s:371    .text:00000000000001ec .L0 
     /tmp/ccPqDlgc.s:372    .text:00000000000001f0 .L0 
     /tmp/ccPqDlgc.s:376    .text:00000000000001fc .L0 
     /tmp/ccPqDlgc.s:377    .text:00000000000001fc .L0 
     /tmp/ccPqDlgc.s:378    .text:00000000000001fc .L0 
     /tmp/ccPqDlgc.s:380    .text:0000000000000200 .L0 
     /tmp/ccPqDlgc.s:383    .text:0000000000000204 .L0 
     /tmp/ccPqDlgc.s:384    .text:0000000000000204 .L0 
     /tmp/ccPqDlgc.s:389    .text:0000000000000210 .L0 
     /tmp/ccPqDlgc.s:390    .text:0000000000000210 .L0 
     /tmp/ccPqDlgc.s:394    .text:000000000000021c .L0 
     /tmp/ccPqDlgc.s:395    .text:0000000000000220 .L0 
     /tmp/ccPqDlgc.s:397    .text:0000000000000224 .L0 
     /tmp/ccPqDlgc.s:398    .text:0000000000000224 .L0 
     /tmp/ccPqDlgc.s:400    .text:0000000000000228 .L0 
GAS LISTING /tmp/ccPqDlgc.s 			page 16


     /tmp/ccPqDlgc.s:403    .text:000000000000022c .L0 
     /tmp/ccPqDlgc.s:405    .text:0000000000000230 .L0 
     /tmp/ccPqDlgc.s:411    .text:0000000000000230 _Z12outputThreadPv
     /tmp/ccPqDlgc.s:414    .text:0000000000000230 .L0 
     /tmp/ccPqDlgc.s:415    .text:0000000000000230 .L0 
     /tmp/ccPqDlgc.s:416    .text:0000000000000234 .L0 
     /tmp/ccPqDlgc.s:420    .text:0000000000000240 .L0 
     /tmp/ccPqDlgc.s:421    .text:0000000000000240 .L0 
     /tmp/ccPqDlgc.s:422    .text:0000000000000240 .L0 
     /tmp/ccPqDlgc.s:424    .text:0000000000000244 .L0 
     /tmp/ccPqDlgc.s:426    .text:0000000000000244 .L0 
     /tmp/ccPqDlgc.s:427    .text:0000000000000244 .L0 
     /tmp/ccPqDlgc.s:434    .text:0000000000000254 .L0 
     /tmp/ccPqDlgc.s:435    .text:0000000000000254 .L0 
     /tmp/ccPqDlgc.s:439    .text:0000000000000260 .L0 
     /tmp/ccPqDlgc.s:442    .text:000000000000026c .L0 
     /tmp/ccPqDlgc.s:443    .text:000000000000026c .L0 
     /tmp/ccPqDlgc.s:448    .text:0000000000000278 .L0 
     /tmp/ccPqDlgc.s:449    .text:0000000000000278 .L0 
     /tmp/ccPqDlgc.s:450    .text:0000000000000278 .L0 
     /tmp/ccPqDlgc.s:451    .text:0000000000000278 .L0 
     /tmp/ccPqDlgc.s:456    .text:0000000000000284 .L0 
     /tmp/ccPqDlgc.s:457    .text:0000000000000284 .L0 
     /tmp/ccPqDlgc.s:458    .text:0000000000000284 .L0 
     /tmp/ccPqDlgc.s:462    .text:0000000000000294 .L0 
     /tmp/ccPqDlgc.s:465    .text:000000000000029c .L0 
     /tmp/ccPqDlgc.s:466    .text:000000000000029c .L0 
     /tmp/ccPqDlgc.s:469    .text:00000000000002a4 .L0 
     /tmp/ccPqDlgc.s:470    .text:00000000000002a8 .L0 
     /tmp/ccPqDlgc.s:476    .text:00000000000002a8 _ZN8_Console17keyboardInterruptEv
     /tmp/ccPqDlgc.s:479    .text:00000000000002a8 .L0 
     /tmp/ccPqDlgc.s:481    .text:00000000000002a8 .L0 
     /tmp/ccPqDlgc.s:482    .text:00000000000002ac .L0 
     /tmp/ccPqDlgc.s:486    .text:00000000000002b8 .L0 
     /tmp/ccPqDlgc.s:487    .text:00000000000002b8 .L0 
     /tmp/ccPqDlgc.s:488    .text:00000000000002b8 .L0 
     /tmp/ccPqDlgc.s:490    .text:00000000000002bc .L0 
     /tmp/ccPqDlgc.s:492    .text:00000000000002bc .L0 
     /tmp/ccPqDlgc.s:493    .text:00000000000002bc .L0 
     /tmp/ccPqDlgc.s:499    .text:00000000000002c8 .L0 
     /tmp/ccPqDlgc.s:500    .text:00000000000002c8 .L0 
     /tmp/ccPqDlgc.s:501    .text:00000000000002c8 .L0 
     /tmp/ccPqDlgc.s:504    .text:00000000000002d4 .L0 
     /tmp/ccPqDlgc.s:508    .text:00000000000002dc .L0 
     /tmp/ccPqDlgc.s:509    .text:00000000000002dc .L0 
     /tmp/ccPqDlgc.s:511    .text:00000000000002e4 .L0 
     /tmp/ccPqDlgc.s:517    .text:00000000000002ec .L0 
     /tmp/ccPqDlgc.s:518    .text:00000000000002ec .L0 
     /tmp/ccPqDlgc.s:519    .text:00000000000002ec .L0 
     /tmp/ccPqDlgc.s:524    .text:00000000000002f0 .L0 
     /tmp/ccPqDlgc.s:527    .text:00000000000002f8 .L0 
     /tmp/ccPqDlgc.s:528    .text:00000000000002f8 .L0 
     /tmp/ccPqDlgc.s:532    .text:0000000000000304 .L0 
     /tmp/ccPqDlgc.s:533    .text:0000000000000304 .L0 
     /tmp/ccPqDlgc.s:540    .text:0000000000000314 .L0 
     /tmp/ccPqDlgc.s:541    .text:0000000000000318 .L0 
     /tmp/ccPqDlgc.s:543    .text:000000000000031c .L0 
GAS LISTING /tmp/ccPqDlgc.s 			page 17


     /tmp/ccPqDlgc.s:544    .text:000000000000031c .L0 
     /tmp/ccPqDlgc.s:546    .text:0000000000000320 .L0 
     /tmp/ccPqDlgc.s:549    .text:0000000000000324 .L0 
     /tmp/ccPqDlgc.s:551    .text:0000000000000328 .L0 
     /tmp/ccPqDlgc.s:556    .bss:0000000000000000 .LANCHOR0
     /tmp/ccPqDlgc.s:559    .bss:0000000000000000 _ZZN8_Console11getInstanceEvE8instance
     /tmp/ccPqDlgc.s:575    .text:0000000000000328 .L0 
     /tmp/ccPqDlgc.s:271    .text:0000000000000130 .L0 
     /tmp/ccPqDlgc.s:275    .text:000000000000013c .L0 
     /tmp/ccPqDlgc.s:288    .text:0000000000000158 .L0 
     /tmp/ccPqDlgc.s:292    .text:000000000000016c .L0 
     /tmp/ccPqDlgc.s:295    .text:0000000000000174 .L0 
     /tmp/ccPqDlgc.s:439    .text:0000000000000260 .L0 
     /tmp/ccPqDlgc.s:458    .text:0000000000000284 .L0 
     /tmp/ccPqDlgc.s:501    .text:00000000000002c8 .L0 
     /tmp/ccPqDlgc.s:509    .text:00000000000002dc .L0 
     /tmp/ccPqDlgc.s:277    .text:0000000000000148 .L16
     /tmp/ccPqDlgc.s:447    .text:0000000000000278 .L24
     /tmp/ccPqDlgc.s:432    .text:0000000000000254 .L22
     /tmp/ccPqDlgc.s:454    .text:0000000000000284 .L23
     /tmp/ccPqDlgc.s:537    .text:0000000000000314 .L26
     /tmp/ccPqDlgc.s:497    .text:00000000000002c8 .L28
     /tmp/ccPqDlgc.s:62     .text:0000000000000034 .LEHB0
     /tmp/ccPqDlgc.s:13     .text:0000000000000000 .LFB67
     /tmp/ccPqDlgc.s:70     .text:0000000000000048 .LEHE0
     /tmp/ccPqDlgc.s:77     .text:0000000000000050 .LEHB1
     /tmp/ccPqDlgc.s:80     .text:0000000000000058 .LEHE1
     /tmp/ccPqDlgc.s:150    .text:00000000000000c4 .L5
     /tmp/ccPqDlgc.s:87     .text:000000000000005c .LEHB2
     /tmp/ccPqDlgc.s:95     .text:0000000000000070 .LEHE2
     /tmp/ccPqDlgc.s:102    .text:0000000000000078 .LEHB3
     /tmp/ccPqDlgc.s:105    .text:0000000000000080 .LEHE3
     /tmp/ccPqDlgc.s:170    .text:00000000000000e8 .L6
     /tmp/ccPqDlgc.s:112    .text:0000000000000084 .LEHB4
     /tmp/ccPqDlgc.s:120    .text:0000000000000098 .LEHE4
     /tmp/ccPqDlgc.s:127    .text:00000000000000a0 .LEHB5
     /tmp/ccPqDlgc.s:130    .text:00000000000000a8 .LEHE5
     /tmp/ccPqDlgc.s:190    .text:000000000000010c .L7
     /tmp/ccPqDlgc.s:166    .text:00000000000000e0 .LEHB6
     /tmp/ccPqDlgc.s:169    .text:00000000000000e8 .LEHE6
     /tmp/ccPqDlgc.s:186    .text:0000000000000104 .LEHB7
     /tmp/ccPqDlgc.s:189    .text:000000000000010c .LEHE7
     /tmp/ccPqDlgc.s:206    .text:0000000000000128 .LEHB8
     /tmp/ccPqDlgc.s:209    .text:0000000000000130 .LEHE8
     /tmp/ccPqDlgc.s:2496   .debug_abbrev:0000000000000000 .Ldebug_abbrev0
     /tmp/ccPqDlgc.s:4163   .debug_str:00000000000009a8 .LASF178
     /tmp/ccPqDlgc.s:3909   .debug_str:000000000000012f .LASF179
     /tmp/ccPqDlgc.s:4117   .debug_str:0000000000000824 .LASF180
     /tmp/ccPqDlgc.s:8      .text:0000000000000000 .Ltext0
     /tmp/ccPqDlgc.s:568    .text:0000000000000328 .Letext0
     /tmp/ccPqDlgc.s:3871   .debug_line:0000000000000000 .Ldebug_line0
     /tmp/ccPqDlgc.s:4009   .debug_str:0000000000000454 .LASF0
     /tmp/ccPqDlgc.s:4033   .debug_str:0000000000000523 .LASF1
     /tmp/ccPqDlgc.s:4135   .debug_str:00000000000008bd .LASF2
     /tmp/ccPqDlgc.s:3973   .debug_str:000000000000030b .LASF3
     /tmp/ccPqDlgc.s:4141   .debug_str:00000000000008ef .LASF4
     /tmp/ccPqDlgc.s:4017   .debug_str:0000000000000481 .LASF5
GAS LISTING /tmp/ccPqDlgc.s 			page 18


     /tmp/ccPqDlgc.s:3895   .debug_str:00000000000000c5 .LASF6
     /tmp/ccPqDlgc.s:4115   .debug_str:000000000000081d .LASF7
     /tmp/ccPqDlgc.s:4105   .debug_str:00000000000007b5 .LASF8
     /tmp/ccPqDlgc.s:4025   .debug_str:00000000000004da .LASF9
     /tmp/ccPqDlgc.s:3991   .debug_str:00000000000003a8 .LASF10
     /tmp/ccPqDlgc.s:3999   .debug_str:00000000000003f3 .LASF11
     /tmp/ccPqDlgc.s:3925   .debug_str:00000000000001af .LASF12
     /tmp/ccPqDlgc.s:3983   .debug_str:000000000000035d .LASF13
     /tmp/ccPqDlgc.s:3937   .debug_str:00000000000001f5 .LASF14
     /tmp/ccPqDlgc.s:3923   .debug_str:000000000000019f .LASF15
     /tmp/ccPqDlgc.s:4167   .debug_str:0000000000000a7c .LASF16
     /tmp/ccPqDlgc.s:3969   .debug_str:00000000000002d9 .LASF17
     /tmp/ccPqDlgc.s:4157   .debug_str:0000000000000978 .LASF18
     /tmp/ccPqDlgc.s:3935   .debug_str:00000000000001e7 .LASF19
     /tmp/ccPqDlgc.s:4079   .debug_str:00000000000006be .LASF21
     /tmp/ccPqDlgc.s:4069   .debug_str:0000000000000649 .LASF20
     /tmp/ccPqDlgc.s:4041   .debug_str:000000000000056b .LASF22
     /tmp/ccPqDlgc.s:4173   .debug_str:0000000000000aa5 .LASF23
     /tmp/ccPqDlgc.s:4003   .debug_str:000000000000040a .LASF25
     /tmp/ccPqDlgc.s:3963   .debug_str:00000000000002b6 .LASF24
     /tmp/ccPqDlgc.s:4205   .debug_str:0000000000000b59 .LASF26
     /tmp/ccPqDlgc.s:4161   .debug_str:00000000000009a1 .LASF27
     /tmp/ccPqDlgc.s:3961   .debug_str:0000000000000299 .LASF28
     /tmp/ccPqDlgc.s:3893   .debug_str:00000000000000b9 .LASF165
     /tmp/ccPqDlgc.s:4185   .debug_str:0000000000000adf .LASF29
     /tmp/ccPqDlgc.s:3875   .debug_str:0000000000000015 .LASF30
     /tmp/ccPqDlgc.s:3981   .debug_str:0000000000000358 .LASF31
     /tmp/ccPqDlgc.s:4083   .debug_str:00000000000006ed .LASF32
     /tmp/ccPqDlgc.s:4177   .debug_str:0000000000000ab5 .LASF33
     /tmp/ccPqDlgc.s:4049   .debug_str:00000000000005b4 .LASF34
     /tmp/ccPqDlgc.s:3955   .debug_str:0000000000000281 .LASF48
     /tmp/ccPqDlgc.s:4053   .debug_str:00000000000005d9 .LASF35
     /tmp/ccPqDlgc.s:3927   .debug_str:00000000000001be .LASF36
     /tmp/ccPqDlgc.s:3907   .debug_str:000000000000012a .LASF37
     /tmp/ccPqDlgc.s:4201   .debug_str:0000000000000b3d .LASF38
     /tmp/ccPqDlgc.s:4099   .debug_str:0000000000000782 .LASF39
     /tmp/ccPqDlgc.s:4233   .debug_str:0000000000000c5d .LASF76
     /tmp/ccPqDlgc.s:4071   .debug_str:0000000000000650 .LASF78
     /tmp/ccPqDlgc.s:4125   .debug_str:000000000000086b .LASF40
     /tmp/ccPqDlgc.s:4229   .debug_str:0000000000000c22 .LASF41
     /tmp/ccPqDlgc.s:3911   .debug_str:000000000000013f .LASF42
     /tmp/ccPqDlgc.s:4111   .debug_str:00000000000007ee .LASF43
     /tmp/ccPqDlgc.s:4019   .debug_str:0000000000000493 .LASF44
     /tmp/ccPqDlgc.s:3903   .debug_str:00000000000000f8 .LASF46
     /tmp/ccPqDlgc.s:3941   .debug_str:0000000000000220 .LASF45
     /tmp/ccPqDlgc.s:4005   .debug_str:0000000000000424 .LASF47
     /tmp/ccPqDlgc.s:3997   .debug_str:00000000000003e9 .LASF96
     /tmp/ccPqDlgc.s:3883   .debug_str:0000000000000039 .LASF98
     /tmp/ccPqDlgc.s:3929   .debug_str:00000000000001c3 .LASF49
     /tmp/ccPqDlgc.s:4143   .debug_str:00000000000008f6 .LASF50
     /tmp/ccPqDlgc.s:3891   .debug_str:00000000000000ad .LASF51
     /tmp/ccPqDlgc.s:4217   .debug_str:0000000000000bbc .LASF52
     /tmp/ccPqDlgc.s:4039   .debug_str:0000000000000549 .LASF53
     /tmp/ccPqDlgc.s:4097   .debug_str:000000000000077d .LASF181
     /tmp/ccPqDlgc.s:4037   .debug_str:000000000000053c .LASF54
     /tmp/ccPqDlgc.s:4215   .debug_str:0000000000000ba3 .LASF55
     /tmp/ccPqDlgc.s:4175   .debug_str:0000000000000aaa .LASF56
GAS LISTING /tmp/ccPqDlgc.s 			page 19


     /tmp/ccPqDlgc.s:4129   .debug_str:000000000000088b .LASF57
     /tmp/ccPqDlgc.s:3913   .debug_str:000000000000014d .LASF58
     /tmp/ccPqDlgc.s:4203   .debug_str:0000000000000b42 .LASF59
     /tmp/ccPqDlgc.s:4119   .debug_str:000000000000083d .LASF60
     /tmp/ccPqDlgc.s:4147   .debug_str:0000000000000911 .LASF61
     /tmp/ccPqDlgc.s:4195   .debug_str:0000000000000b10 .LASF62
     /tmp/ccPqDlgc.s:4137   .debug_str:00000000000008cb .LASF63
     /tmp/ccPqDlgc.s:3919   .debug_str:0000000000000172 .LASF64
     /tmp/ccPqDlgc.s:4251   .debug_str:0000000000000cee .LASF65
     /tmp/ccPqDlgc.s:4123   .debug_str:000000000000085b .LASF66
     /tmp/ccPqDlgc.s:4243   .debug_str:0000000000000ca7 .LASF67
     /tmp/ccPqDlgc.s:3943   .debug_str:000000000000022a .LASF68
     /tmp/ccPqDlgc.s:4103   .debug_str:000000000000079e .LASF69
     /tmp/ccPqDlgc.s:4255   .debug_str:0000000000000d17 .LASF70
     /tmp/ccPqDlgc.s:4241   .debug_str:0000000000000c94 .LASF71
     /tmp/ccPqDlgc.s:4035   .debug_str:0000000000000536 .LASF72
     /tmp/ccPqDlgc.s:4133   .debug_str:00000000000008ad .LASF74
     /tmp/ccPqDlgc.s:3957   .debug_str:000000000000028a .LASF73
     /tmp/ccPqDlgc.s:3931   .debug_str:00000000000001cb .LASF75
     /tmp/ccPqDlgc.s:4059   .debug_str:0000000000000611 .LASF77
     /tmp/ccPqDlgc.s:3979   .debug_str:0000000000000341 .LASF79
     /tmp/ccPqDlgc.s:4131   .debug_str:00000000000008a2 .LASF80
     /tmp/ccPqDlgc.s:4145   .debug_str:00000000000008fb .LASF81
     /tmp/ccPqDlgc.s:4181   .debug_str:0000000000000ad2 .LASF82
     /tmp/ccPqDlgc.s:4149   .debug_str:000000000000092b .LASF83
     /tmp/ccPqDlgc.s:4109   .debug_str:00000000000007d9 .LASF182
     /tmp/ccPqDlgc.s:3881   .debug_str:0000000000000034 .LASF84
     /tmp/ccPqDlgc.s:4249   .debug_str:0000000000000ce8 .LASF85
     /tmp/ccPqDlgc.s:4199   .debug_str:0000000000000b35 .LASF86
     /tmp/ccPqDlgc.s:4155   .debug_str:000000000000096f .LASF87
     /tmp/ccPqDlgc.s:4209   .debug_str:0000000000000b85 .LASF88
     /tmp/ccPqDlgc.s:4187   .debug_str:0000000000000ae6 .LASF89
     /tmp/ccPqDlgc.s:4015   .debug_str:0000000000000476 .LASF90
     /tmp/ccPqDlgc.s:3901   .debug_str:00000000000000ee .LASF91
     /tmp/ccPqDlgc.s:4021   .debug_str:00000000000004b0 .LASF92
     /tmp/ccPqDlgc.s:4191   .debug_str:0000000000000b03 .LASF93
     /tmp/ccPqDlgc.s:3965   .debug_str:00000000000002be .LASF94
     /tmp/ccPqDlgc.s:4063   .debug_str:0000000000000629 .LASF95
     /tmp/ccPqDlgc.s:3917   .debug_str:0000000000000164 .LASF183
     /tmp/ccPqDlgc.s:4235   .debug_str:0000000000000c69 .LASF184
     /tmp/ccPqDlgc.s:3947   .debug_str:000000000000023a .LASF97
     /tmp/ccPqDlgc.s:3889   .debug_str:0000000000000085 .LASF99
     /tmp/ccPqDlgc.s:4139   .debug_str:00000000000008e4 .LASF100
     /tmp/ccPqDlgc.s:4237   .debug_str:0000000000000c82 .LASF101
     /tmp/ccPqDlgc.s:4219   .debug_str:0000000000000bca .LASF102
     /tmp/ccPqDlgc.s:4077   .debug_str:00000000000006b9 .LASF103
     /tmp/ccPqDlgc.s:4159   .debug_str:000000000000098e .LASF104
     /tmp/ccPqDlgc.s:3977   .debug_str:000000000000032a .LASF105
     /tmp/ccPqDlgc.s:3949   .debug_str:0000000000000248 .LASF185
     /tmp/ccPqDlgc.s:4127   .debug_str:0000000000000874 .LASF186
     /tmp/ccPqDlgc.s:4031   .debug_str:000000000000051a .LASF106
     /tmp/ccPqDlgc.s:3921   .debug_str:0000000000000182 .LASF107
     /tmp/ccPqDlgc.s:4043   .debug_str:0000000000000587 .LASF108
     /tmp/ccPqDlgc.s:3971   .debug_str:00000000000002ef .LASF109
     /tmp/ccPqDlgc.s:4101   .debug_str:0000000000000792 .LASF110
     /tmp/ccPqDlgc.s:4221   .debug_str:0000000000000bd4 .LASF111
     /tmp/ccPqDlgc.s:4259   .debug_str:0000000000000d33 .LASF112
GAS LISTING /tmp/ccPqDlgc.s 			page 20


     /tmp/ccPqDlgc.s:3939   .debug_str:0000000000000205 .LASF113
     /tmp/ccPqDlgc.s:4151   .debug_str:000000000000093c .LASF114
     /tmp/ccPqDlgc.s:4023   .debug_str:00000000000004bd .LASF115
     /tmp/ccPqDlgc.s:4113   .debug_str:0000000000000814 .LASF116
     /tmp/ccPqDlgc.s:3887   .debug_str:000000000000006b .LASF117
     /tmp/ccPqDlgc.s:3959   .debug_str:0000000000000293 .LASF118
     /tmp/ccPqDlgc.s:4247   .debug_str:0000000000000cd1 .LASF119
     /tmp/ccPqDlgc.s:3945   .debug_str:0000000000000235 .LASF187
     /tmp/ccPqDlgc.s:3915   .debug_str:0000000000000159 .LASF120
     /tmp/ccPqDlgc.s:4253   .debug_str:0000000000000d0a .LASF121
     /tmp/ccPqDlgc.s:4257   .debug_str:0000000000000d1f .LASF122
     /tmp/ccPqDlgc.s:4011   .debug_str:0000000000000461 .LASF123
     /tmp/ccPqDlgc.s:3873   .debug_str:0000000000000000 .LASF124
     /tmp/ccPqDlgc.s:3877   .debug_str:000000000000001b .LASF125
     /tmp/ccPqDlgc.s:4061   .debug_str:000000000000061d .LASF126
     /tmp/ccPqDlgc.s:4227   .debug_str:0000000000000c0e .LASF127
     /tmp/ccPqDlgc.s:4045   .debug_str:000000000000058f .LASF128
     /tmp/ccPqDlgc.s:3989   .debug_str:0000000000000384 .LASF129
     /tmp/ccPqDlgc.s:4067   .debug_str:0000000000000642 .LASF130
     /tmp/ccPqDlgc.s:4029   .debug_str:0000000000000500 .LASF131
     /tmp/ccPqDlgc.s:4171   .debug_str:0000000000000a9e .LASF132
     /tmp/ccPqDlgc.s:3975   .debug_str:0000000000000311 .LASF133
     /tmp/ccPqDlgc.s:4183   .debug_str:0000000000000ada .LASF134
     /tmp/ccPqDlgc.s:4223   .debug_str:0000000000000bf2 .LASF135
     /tmp/ccPqDlgc.s:3987   .debug_str:000000000000037b .LASF136
     /tmp/ccPqDlgc.s:4231   .debug_str:0000000000000c42 .LASF137
     /tmp/ccPqDlgc.s:4239   .debug_str:0000000000000c8d .LASF138
     /tmp/ccPqDlgc.s:3905   .debug_str:0000000000000111 .LASF139
     /tmp/ccPqDlgc.s:4007   .debug_str:000000000000044e .LASF140
     /tmp/ccPqDlgc.s:4081   .debug_str:00000000000006d5 .LASF141
     /tmp/ccPqDlgc.s:3885   .debug_str:0000000000000063 .LASF142
     /tmp/ccPqDlgc.s:4057   .debug_str:00000000000005f7 .LASF143
     /tmp/ccPqDlgc.s:4095   .debug_str:0000000000000775 .LASF144
     /tmp/ccPqDlgc.s:4001   .debug_str:0000000000000401 .LASF145
     /tmp/ccPqDlgc.s:3993   .debug_str:00000000000003b8 .LASF146
     /tmp/ccPqDlgc.s:4225   .debug_str:0000000000000c09 .LASF147
     /tmp/ccPqDlgc.s:4065   .debug_str:000000000000062e .LASF148
     /tmp/ccPqDlgc.s:4013   .debug_str:0000000000000471 .LASF149
     /tmp/ccPqDlgc.s:4047   .debug_str:00000000000005a0 .LASF150
     /tmp/ccPqDlgc.s:4207   .debug_str:0000000000000b77 .LASF151
     /tmp/ccPqDlgc.s:4089   .debug_str:000000000000073b .LASF152
     /tmp/ccPqDlgc.s:4055   .debug_str:00000000000005e5 .LASF153
     /tmp/ccPqDlgc.s:4085   .debug_str:00000000000006f2 .LASF154
     /tmp/ccPqDlgc.s:3985   .debug_str:000000000000036c .LASF155
     /tmp/ccPqDlgc.s:4073   .debug_str:0000000000000674 .LASF156
     /tmp/ccPqDlgc.s:4165   .debug_str:0000000000000a6c .LASF157
     /tmp/ccPqDlgc.s:4051   .debug_str:00000000000005b9 .LASF158
     /tmp/ccPqDlgc.s:3951   .debug_str:0000000000000252 .LASF159
     /tmp/ccPqDlgc.s:4087   .debug_str:0000000000000714 .LASF160
     /tmp/ccPqDlgc.s:4169   .debug_str:0000000000000a88 .LASF161
     /tmp/ccPqDlgc.s:4075   .debug_str:0000000000000693 .LASF162
     /tmp/ccPqDlgc.s:4179   .debug_str:0000000000000aba .LASF163
     /tmp/ccPqDlgc.s:4153   .debug_str:0000000000000947 .LASF164
     /tmp/ccPqDlgc.s:3967   .debug_str:00000000000002c8 .LASF166
     /tmp/ccPqDlgc.s:4211   .debug_str:0000000000000b8a .LASF167
     /tmp/ccPqDlgc.s:3897   .debug_str:00000000000000cc .LASF168
     /tmp/ccPqDlgc.s:4093   .debug_str:0000000000000761 .LASF169
GAS LISTING /tmp/ccPqDlgc.s 			page 21


     /tmp/ccPqDlgc.s:4189   .debug_str:0000000000000af0 .LASF170
     /tmp/ccPqDlgc.s:3995   .debug_str:00000000000003d4 .LASF171
     /tmp/ccPqDlgc.s:477    .text:00000000000002a8 .LFB72
     /tmp/ccPqDlgc.s:552    .text:0000000000000328 .LFE72
     /tmp/ccPqDlgc.s:3879   .debug_str:000000000000002f .LASF176
     /tmp/ccPqDlgc.s:3661   .debug_loc:0000000000000000 .LLST12
     /tmp/ccPqDlgc.s:4091   .debug_str:0000000000000759 .LASF172
     /tmp/ccPqDlgc.s:3675   .debug_loc:0000000000000039 .LLST13
     /tmp/ccPqDlgc.s:506    .text:00000000000002dc .LBB42
     /tmp/ccPqDlgc.s:538    .text:0000000000000314 .LBE42
     /tmp/ccPqDlgc.s:4193   .debug_str:0000000000000b0b .LASF173
     /tmp/ccPqDlgc.s:3682   .debug_loc:000000000000005c .LLST14
     /tmp/ccPqDlgc.s:515    .text:00000000000002ec .LBB43
     /tmp/ccPqDlgc.s:522    .text:00000000000002f0 .LBE43
     /tmp/ccPqDlgc.s:3689   .debug_loc:000000000000007f .LLST15
     /tmp/ccPqDlgc.s:530    .text:0000000000000304 .LVL55
     /tmp/ccPqDlgc.s:535    .text:0000000000000310 .LVL56
     /tmp/ccPqDlgc.s:494    .text:00000000000002c4 .LVL51
     /tmp/ccPqDlgc.s:4213   .debug_str:0000000000000b96 .LASF174
     /tmp/ccPqDlgc.s:4027   .debug_str:00000000000004ed .LASF175
     /tmp/ccPqDlgc.s:412    .text:0000000000000230 .LFB71
     /tmp/ccPqDlgc.s:471    .text:00000000000002a8 .LFE71
     /tmp/ccPqDlgc.s:428    .text:000000000000024c .LVL44
     /tmp/ccPqDlgc.s:437    .text:0000000000000260 .LVL46
     /tmp/ccPqDlgc.s:445    .text:0000000000000278 .LVL47
     /tmp/ccPqDlgc.s:453    .text:0000000000000284 .LVL48
     /tmp/ccPqDlgc.s:467    .text:00000000000002a4 .LVL49
     /tmp/ccPqDlgc.s:367    .text:00000000000001ec .LFB70
     /tmp/ccPqDlgc.s:406    .text:0000000000000230 .LFE70
     /tmp/ccPqDlgc.s:3696   .debug_loc:00000000000000a2 .LLST11
     /tmp/ccPqDlgc.s:387    .text:0000000000000210 .LVL41
     /tmp/ccPqDlgc.s:392    .text:000000000000021c .LVL42
     /tmp/ccPqDlgc.s:311    .text:000000000000018c .LFB69
     /tmp/ccPqDlgc.s:361    .text:00000000000001ec .LFE69
     /tmp/ccPqDlgc.s:3714   .debug_loc:00000000000000ee .LLST9
     /tmp/ccPqDlgc.s:3732   .debug_loc:000000000000013a .LLST10
     /tmp/ccPqDlgc.s:334    .text:00000000000001b8 .LVL35
     /tmp/ccPqDlgc.s:340    .text:00000000000001c8 .LVL36
     /tmp/ccPqDlgc.s:345    .text:00000000000001d4 .LVL37
     /tmp/ccPqDlgc.s:4107   .debug_str:00000000000007c8 .LASF188
     /tmp/ccPqDlgc.s:214    .text:0000000000000130 .LFE67
     /tmp/ccPqDlgc.s:3746   .debug_loc:0000000000000173 .LLST0
     /tmp/ccPqDlgc.s:35     .text:000000000000001c .LBB25
     /tmp/ccPqDlgc.s:46     .text:0000000000000028 .LBE25
     /tmp/ccPqDlgc.s:3797   .debug_loc:000000000000023a .LLST1
     /tmp/ccPqDlgc.s:47     .text:0000000000000028 .LBB27
     /tmp/ccPqDlgc.s:57     .text:0000000000000034 .LBE27
     /tmp/ccPqDlgc.s:3804   .debug_loc:000000000000025d .LLST2
     /tmp/ccPqDlgc.s:58     .text:0000000000000034 .LBB29
     /tmp/ccPqDlgc.s:74     .text:000000000000004c .LBE29
     /tmp/ccPqDlgc.s:3813   .debug_loc:0000000000000283 .LLST3
     /tmp/ccPqDlgc.s:65     .text:000000000000003c .LVL4
     /tmp/ccPqDlgc.s:69     .text:0000000000000048 .LVL5
     /tmp/ccPqDlgc.s:84     .text:000000000000005c .LBB31
     /tmp/ccPqDlgc.s:99     .text:0000000000000074 .LBE31
     /tmp/ccPqDlgc.s:3821   .debug_loc:00000000000002a7 .LLST4
     /tmp/ccPqDlgc.s:90     .text:0000000000000064 .LVL9
GAS LISTING /tmp/ccPqDlgc.s 			page 22


     /tmp/ccPqDlgc.s:94     .text:0000000000000070 .LVL10
     /tmp/ccPqDlgc.s:109    .text:0000000000000084 .LBB33
     /tmp/ccPqDlgc.s:124    .text:000000000000009c .LBE33
     /tmp/ccPqDlgc.s:3829   .debug_loc:00000000000002cb .LLST5
     /tmp/ccPqDlgc.s:115    .text:000000000000008c .LVL14
     /tmp/ccPqDlgc.s:119    .text:0000000000000098 .LVL15
     /tmp/ccPqDlgc.s:155    .text:00000000000000c8 .LBB35
     /tmp/ccPqDlgc.s:174    .text:00000000000000ec .LBE35
     /tmp/ccPqDlgc.s:3837   .debug_loc:00000000000002ef .LLST6
     /tmp/ccPqDlgc.s:160    .text:00000000000000d0 .LVL21
     /tmp/ccPqDlgc.s:164    .text:00000000000000dc .LVL22
     /tmp/ccPqDlgc.s:175    .text:00000000000000ec .LBB37
     /tmp/ccPqDlgc.s:194    .text:0000000000000110 .LBE37
     /tmp/ccPqDlgc.s:3844   .debug_loc:0000000000000312 .LLST7
     /tmp/ccPqDlgc.s:180    .text:00000000000000f4 .LVL25
     /tmp/ccPqDlgc.s:184    .text:0000000000000100 .LVL26
     /tmp/ccPqDlgc.s:195    .text:0000000000000110 .LBB39
     /tmp/ccPqDlgc.s:211    .text:0000000000000130 .LBE39
     /tmp/ccPqDlgc.s:3851   .debug_loc:0000000000000335 .LLST8
     /tmp/ccPqDlgc.s:200    .text:0000000000000118 .LVL29
     /tmp/ccPqDlgc.s:204    .text:0000000000000124 .LVL30
     /tmp/ccPqDlgc.s:79     .text:0000000000000058 .LVL7
     /tmp/ccPqDlgc.s:104    .text:0000000000000080 .LVL12
     /tmp/ccPqDlgc.s:129    .text:00000000000000a8 .LVL17
     /tmp/ccPqDlgc.s:168    .text:00000000000000e8 .LVL23
     /tmp/ccPqDlgc.s:188    .text:000000000000010c .LVL27
     /tmp/ccPqDlgc.s:208    .text:0000000000000130 .LVL31
     /tmp/ccPqDlgc.s:266    .text:0000000000000130 .LFB65
     /tmp/ccPqDlgc.s:305    .text:000000000000018c .LFE65
     /tmp/ccPqDlgc.s:3933   .debug_str:00000000000001de .LASF177
     /tmp/ccPqDlgc.s:290    .text:0000000000000168 .LVL32
     /tmp/ccPqDlgc.s:4197   .debug_str:0000000000000b1e .LASF189
     /tmp/ccPqDlgc.s:3899   .debug_str:00000000000000d9 .LASF190
     /tmp/ccPqDlgc.s:4121   .debug_str:000000000000084b .LASF191
     /tmp/ccPqDlgc.s:4245   .debug_str:0000000000000cc2 .LASF192
     /tmp/ccPqDlgc.s:3953   .debug_str:0000000000000269 .LASF193
     /tmp/ccPqDlgc.s:480    .text:00000000000002a8 .LVL50
     /tmp/ccPqDlgc.s:496    .text:00000000000002c8 .LVL52
     /tmp/ccPqDlgc.s:547    .text:0000000000000320 .LVL57
     /tmp/ccPqDlgc.s:513    .text:00000000000002ec .LVL53
     /tmp/ccPqDlgc.s:520    .text:00000000000002f0 .LVL54
     /tmp/ccPqDlgc.s:370    .text:00000000000001ec .LVL39
     /tmp/ccPqDlgc.s:385    .text:0000000000000208 .LVL40
     /tmp/ccPqDlgc.s:401    .text:0000000000000228 .LVL43
     /tmp/ccPqDlgc.s:314    .text:000000000000018c .LVL33
     /tmp/ccPqDlgc.s:332    .text:00000000000001b0 .LVL34
     /tmp/ccPqDlgc.s:354    .text:00000000000001e0 .LVL38
     /tmp/ccPqDlgc.s:19     .text:0000000000000000 .LVL0
     /tmp/ccPqDlgc.s:143    .text:00000000000000b8 .LVL18
     /tmp/ccPqDlgc.s:149    .text:00000000000000c4 .LVL19
     /tmp/ccPqDlgc.s:153    .text:00000000000000c8 .LVL20
     /tmp/ccPqDlgc.s:172    .text:00000000000000ec .LVL24
     /tmp/ccPqDlgc.s:192    .text:0000000000000110 .LVL28
     /tmp/ccPqDlgc.s:33     .text:000000000000001c .LVL1
     /tmp/ccPqDlgc.s:44     .text:0000000000000028 .LVL2
     /tmp/ccPqDlgc.s:55     .text:0000000000000034 .LVL3
     /tmp/ccPqDlgc.s:72     .text:000000000000004c .LVL6
GAS LISTING /tmp/ccPqDlgc.s 			page 23


     /tmp/ccPqDlgc.s:83     .text:000000000000005c .LVL8
     /tmp/ccPqDlgc.s:97     .text:0000000000000074 .LVL11
     /tmp/ccPqDlgc.s:108    .text:0000000000000084 .LVL13
     /tmp/ccPqDlgc.s:122    .text:000000000000009c .LVL16
     /tmp/ccPqDlgc.s:576    .debug_info:0000000000000000 .Ldebug_info0
     /tmp/ccPqDlgc.s:217    .gcc_except_table:0000000000000000 .LLSDA67

UNDEFINED SYMBOLS
_ZN15MemoryAllocator11getInstanceEv
_ZN15MemoryAllocator8memAllocEm
_ZN10_SemaphoreC1Em
_ZN15MemoryAllocator4freeEPv
_Unwind_Resume
__gxx_personality_v0
_ZN10_Semaphore4waitEv
_ZN13BoundedBuffer6appendEc
_ZN10_Semaphore6signalEv
_ZN13BoundedBuffer4takeEv
CONSOLE_TX_DATA
CONSOLE_STATUS
_Z15thread_dispatchv
CONSOLE_RX_DATA
