GAS LISTING /tmp/ccPqDlgc.s 			page 1


   1              		.file	"Console.cpp"
   2              		.option nopic
   3              		.option norelax
   4              		.attribute arch, "rv64i2p0_m2p0_a2p0"
   5              		.attribute unaligned_access, 0
   6              		.attribute stack_align, 16
   7              		.text
   8              	.Ltext0:
   9              		.align	2
  10              		.globl	_ZN8_ConsoleC2Ev
  12              	_ZN8_ConsoleC2Ev:
  13              	.LFB67:
  14              		.file 1 "src/Console.cpp"
   1:src/Console.cpp **** #include "../h/Console.hpp"
   2:src/Console.cpp **** #include "../h/Riscv.hpp"
   3:src/Console.cpp **** #include "../h/syscall_c.hpp"
   4:src/Console.cpp **** 
   5:src/Console.cpp **** void dbg(char c);
   6:src/Console.cpp **** 
   7:src/Console.cpp **** _Console& _Console::getInstance(){
   8:src/Console.cpp ****     static _Console instance;
   9:src/Console.cpp ****     return instance;
  10:src/Console.cpp **** }
  11:src/Console.cpp **** 
  12:src/Console.cpp **** _Console::_Console():
  15              		.loc 1 12 1
  16              		.cfi_startproc
  17              		.cfi_personality 0x9b,DW.ref.__gxx_personality_v0
  18              		.cfi_lsda 0x1b,.LLSDA67
  19              	.LVL0:
  20 0000 130101FE 		addi	sp,sp,-32
  21              		.cfi_def_cfa_offset 32
  22 0004 233C1100 		sd	ra,24(sp)
  23 0008 23388100 		sd	s0,16(sp)
  24 000c 23349100 		sd	s1,8(sp)
  25 0010 23302101 		sd	s2,0(sp)
  26              		.cfi_offset 1, -8
  27              		.cfi_offset 8, -16
  28              		.cfi_offset 9, -24
  29              		.cfi_offset 18, -32
  30 0014 13040102 		addi	s0,sp,32
  31              		.cfi_def_cfa 8, 0
  32 0018 93040500 		mv	s1,a0
  33              	.LVL1:
  34              	.LBB24:
  35              	.LBB25:
  36              	.LBB26:
  37              		.file 2 "src/../h/../h/BoundedBuffer.hpp"
   1:src/../h/../h/BoundedBuffer.hpp **** #ifndef BOUNDEDBUFFER_HPP
   2:src/../h/../h/BoundedBuffer.hpp **** #define BOUNDEDBUFFER_HPP
   3:src/../h/../h/BoundedBuffer.hpp **** 
   4:src/../h/../h/BoundedBuffer.hpp **** #include "../lib/hw.h"
   5:src/../h/../h/BoundedBuffer.hpp **** 
   6:src/../h/../h/BoundedBuffer.hpp **** class BoundedBuffer{
   7:src/../h/../h/BoundedBuffer.hpp **** public:
   8:src/../h/../h/BoundedBuffer.hpp ****     BoundedBuffer():head(0),tail(0) {
  38              		.loc 2 8 35 is_stmt 0
GAS LISTING /tmp/ccPqDlgc.s 			page 2


  39 001c 23340510 		sd	zero,264(a0)
  40 0020 23380510 		sd	zero,272(a0)
   9:src/../h/../h/BoundedBuffer.hpp ****         this->count=0;
  41              		.loc 2 9 9 is_stmt 1
  42              		.loc 2 9 20 is_stmt 0
  43 0024 23300510 		sd	zero,256(a0)
  44              	.LVL2:
  45              	.LBE26:
  46              	.LBE25:
  47              	.LBB27:
  48              	.LBB28:
   8:src/../h/../h/BoundedBuffer.hpp ****         this->count=0;
  49              		.loc 2 8 35
  50 0028 23300522 		sd	zero,544(a0)
  51 002c 23340522 		sd	zero,552(a0)
  52              		.loc 2 9 9 is_stmt 1
  53              		.loc 2 9 20 is_stmt 0
  54 0030 233C0520 		sd	zero,536(a0)
  55              	.LVL3:
  56              	.LBE28:
  57              	.LBE27:
  58              	.LBB29:
  59              	.LBB30:
  60              		.file 3 "src/../h/../h/Semaphore.hpp"
   1:src/../h/../h/Semaphore.hpp **** #ifndef SEMAPHORE_HPP
   2:src/../h/../h/Semaphore.hpp **** #define SEMAPHORE_HPP
   3:src/../h/../h/Semaphore.hpp **** 
   4:src/../h/../h/Semaphore.hpp **** #include "List.hpp"
   5:src/../h/../h/Semaphore.hpp **** #include "Scheduler.hpp"
   6:src/../h/../h/Semaphore.hpp **** #include "../lib/hw.h"
   7:src/../h/../h/Semaphore.hpp **** #include "../h/TCB.hpp"
   8:src/../h/../h/Semaphore.hpp **** 
   9:src/../h/../h/Semaphore.hpp **** class _Semaphore{
  10:src/../h/../h/Semaphore.hpp **** public:
  11:src/../h/../h/Semaphore.hpp ****     void* operator new(size_t n)   { return MemoryAllocator::getInstance().memAlloc(n); }
  61              		.loc 3 11 38 is_stmt 1
  62              	.LEHB0:
  63              		.loc 3 11 74 is_stmt 0
  64 0034 97000000 		call	_ZN15MemoryAllocator11getInstanceEv
  64      E7800000 
  65              	.LVL4:
  66              		.loc 3 11 84
  67 003c 93058001 		li	a1,24
  68 0040 97000000 		call	_ZN15MemoryAllocator8memAllocEm
  68      E7800000 
  69              	.LVL5:
  70              	.LEHE0:
  71 0048 13090500 		mv	s2,a0
  72              	.LVL6:
  73              	.LBE30:
  74              	.LBE29:
  13:src/Console.cpp ****     outputDataAvailable(new _Semaphore(0)),
  75              		.loc 1 13 41
  76 004c 93050000 		li	a1,0
  77              	.LEHB1:
  78 0050 97000000 		call	_ZN10_SemaphoreC1Em
  78      E7800000 
GAS LISTING /tmp/ccPqDlgc.s 			page 3


  79              	.LVL7:
  80              	.LEHE1:
  14:src/Console.cpp ****     inputDataAvailable(new _Semaphore(0)),
  15:src/Console.cpp ****     outputSpaceAvailable(new _Semaphore(BUFFER_SIZE-1))
  81              		.loc 1 15 55
  82 0058 23B82423 		sd	s2,560(s1)
  83              	.LVL8:
  84              	.LBB31:
  85              	.LBB32:
  86              		.loc 3 11 38 is_stmt 1
  87              	.LEHB2:
  88              		.loc 3 11 74 is_stmt 0
  89 005c 97000000 		call	_ZN15MemoryAllocator11getInstanceEv
  89      E7800000 
  90              	.LVL9:
  91              		.loc 3 11 84
  92 0064 93058001 		li	a1,24
  93 0068 97000000 		call	_ZN15MemoryAllocator8memAllocEm
  93      E7800000 
  94              	.LVL10:
  95              	.LEHE2:
  96 0070 13090500 		mv	s2,a0
  97              	.LVL11:
  98              	.LBE32:
  99              	.LBE31:
  14:src/Console.cpp ****     inputDataAvailable(new _Semaphore(0)),
 100              		.loc 1 14 40
 101 0074 93050000 		li	a1,0
 102              	.LEHB3:
 103 0078 97000000 		call	_ZN10_SemaphoreC1Em
 103      E7800000 
 104              	.LVL12:
 105              	.LEHE3:
 106              		.loc 1 15 55
 107 0080 23BC2423 		sd	s2,568(s1)
 108              	.LVL13:
 109              	.LBB33:
 110              	.LBB34:
 111              		.loc 3 11 38 is_stmt 1
 112              	.LEHB4:
 113              		.loc 3 11 74 is_stmt 0
 114 0084 97000000 		call	_ZN15MemoryAllocator11getInstanceEv
 114      E7800000 
 115              	.LVL14:
 116              		.loc 3 11 84
 117 008c 93058001 		li	a1,24
 118 0090 97000000 		call	_ZN15MemoryAllocator8memAllocEm
 118      E7800000 
 119              	.LVL15:
 120              	.LEHE4:
 121 0098 13090500 		mv	s2,a0
 122              	.LVL16:
 123              	.LBE34:
 124              	.LBE33:
 125              		.loc 1 15 54
 126 009c 9305F00F 		li	a1,255
 127              	.LEHB5:
GAS LISTING /tmp/ccPqDlgc.s 			page 4


 128 00a0 97000000 		call	_ZN10_SemaphoreC1Em
 128      E7800000 
 129              	.LVL17:
 130              	.LEHE5:
 131              		.loc 1 15 55 discriminator 2
 132 00a8 23B02425 		sd	s2,576(s1)
 133              	.LBE24:
  16:src/Console.cpp ****     {}
 134              		.loc 1 16 6 discriminator 2
 135 00ac 83308101 		ld	ra,24(sp)
 136              		.cfi_remember_state
 137              		.cfi_restore 1
 138 00b0 03340101 		ld	s0,16(sp)
 139              		.cfi_restore 8
 140              		.cfi_def_cfa 2, 32
 141 00b4 83348100 		ld	s1,8(sp)
 142              		.cfi_restore 9
 143              	.LVL18:
 144 00b8 03390100 		ld	s2,0(sp)
 145              		.cfi_restore 18
 146 00bc 13010102 		addi	sp,sp,32
 147              		.cfi_def_cfa_offset 0
 148 00c0 67800000 		jr	ra
 149              	.LVL19:
 150              	.L5:
 151              		.cfi_restore_state
 152 00c4 93040500 		mv	s1,a0
 153              	.LVL20:
 154              	.LBB41:
 155              	.LBB35:
 156              	.LBB36:
  12:src/../h/../h/Semaphore.hpp ****     void  operator delete(void* p) { MemoryAllocator::getInstance().free(p); }
 157              		.loc 3 12 38 is_stmt 1
 158              		.loc 3 12 67 is_stmt 0
 159 00c8 97000000 		call	_ZN15MemoryAllocator11getInstanceEv
 159      E7800000 
 160              	.LVL21:
 161              		.loc 3 12 73
 162 00d0 93050900 		mv	a1,s2
 163 00d4 97000000 		call	_ZN15MemoryAllocator4freeEPv
 163      E7800000 
 164              	.LVL22:
 165 00dc 13850400 		mv	a0,s1
 166              	.LEHB6:
 167 00e0 97000000 		call	_Unwind_Resume
 167      E7800000 
 168              	.LVL23:
 169              	.LEHE6:
 170              	.L6:
 171 00e8 93040500 		mv	s1,a0
 172              	.LVL24:
 173              	.LBE36:
 174              	.LBE35:
 175              	.LBB37:
 176              	.LBB38:
 177              		.loc 3 12 38 is_stmt 1
 178              		.loc 3 12 67 is_stmt 0
GAS LISTING /tmp/ccPqDlgc.s 			page 5


 179 00ec 97000000 		call	_ZN15MemoryAllocator11getInstanceEv
 179      E7800000 
 180              	.LVL25:
 181              		.loc 3 12 73
 182 00f4 93050900 		mv	a1,s2
 183 00f8 97000000 		call	_ZN15MemoryAllocator4freeEPv
 183      E7800000 
 184              	.LVL26:
 185 0100 13850400 		mv	a0,s1
 186              	.LEHB7:
 187 0104 97000000 		call	_Unwind_Resume
 187      E7800000 
 188              	.LVL27:
 189              	.LEHE7:
 190              	.L7:
 191 010c 93040500 		mv	s1,a0
 192              	.LVL28:
 193              	.LBE38:
 194              	.LBE37:
 195              	.LBB39:
 196              	.LBB40:
 197              		.loc 3 12 38 is_stmt 1
 198              		.loc 3 12 67 is_stmt 0
 199 0110 97000000 		call	_ZN15MemoryAllocator11getInstanceEv
 199      E7800000 
 200              	.LVL29:
 201              		.loc 3 12 73
 202 0118 93050900 		mv	a1,s2
 203 011c 97000000 		call	_ZN15MemoryAllocator4freeEPv
 203      E7800000 
 204              	.LVL30:
 205 0124 13850400 		mv	a0,s1
 206              	.LEHB8:
 207 0128 97000000 		call	_Unwind_Resume
 207      E7800000 
 208              	.LVL31:
 209              	.LEHE8:
 210              	.LBE40:
 211              	.LBE39:
 212              	.LBE41:
 213              		.cfi_endproc
 214              	.LFE67:
 215              		.globl	__gxx_personality_v0
 216              		.section	.gcc_except_table,"aw",@progbits
 217              	.LLSDA67:
 218 0000 FF       		.byte	0xff
 219 0001 FF       		.byte	0xff
 220 0002 03       		.byte	0x3
 221 0003 75       		.byte	0x75
 222 0004 00000000 		.4byte	.LEHB0-.LFB67
 223 0008 00000000 		.4byte	.LEHE0-.LEHB0
 224 000c 00000000 		.4byte	0
 225 0010 00       		.byte	0
 226 0011 00000000 		.4byte	.LEHB1-.LFB67
 227 0015 00000000 		.4byte	.LEHE1-.LEHB1
 228 0019 00000000 		.4byte	.L5-.LFB67
 229 001d 00       		.byte	0
GAS LISTING /tmp/ccPqDlgc.s 			page 6


 230 001e 00000000 		.4byte	.LEHB2-.LFB67
 231 0022 00000000 		.4byte	.LEHE2-.LEHB2
 232 0026 00000000 		.4byte	0
 233 002a 00       		.byte	0
 234 002b 00000000 		.4byte	.LEHB3-.LFB67
 235 002f 00000000 		.4byte	.LEHE3-.LEHB3
 236 0033 00000000 		.4byte	.L6-.LFB67
 237 0037 00       		.byte	0
 238 0038 00000000 		.4byte	.LEHB4-.LFB67
 239 003c 00000000 		.4byte	.LEHE4-.LEHB4
 240 0040 00000000 		.4byte	0
 241 0044 00       		.byte	0
 242 0045 00000000 		.4byte	.LEHB5-.LFB67
 243 0049 00000000 		.4byte	.LEHE5-.LEHB5
 244 004d 00000000 		.4byte	.L7-.LFB67
 245 0051 00       		.byte	0
 246 0052 00000000 		.4byte	.LEHB6-.LFB67
 247 0056 00000000 		.4byte	.LEHE6-.LEHB6
 248 005a 00000000 		.4byte	0
 249 005e 00       		.byte	0
 250 005f 00000000 		.4byte	.LEHB7-.LFB67
 251 0063 00000000 		.4byte	.LEHE7-.LEHB7
 252 0067 00000000 		.4byte	0
 253 006b 00       		.byte	0
 254 006c 00000000 		.4byte	.LEHB8-.LFB67
 255 0070 00000000 		.4byte	.LEHE8-.LEHB8
 256 0074 00000000 		.4byte	0
 257 0078 00       		.byte	0
 258              		.text
 260              		.globl	_ZN8_ConsoleC1Ev
 261              		.set	_ZN8_ConsoleC1Ev,_ZN8_ConsoleC2Ev
 262              		.align	2
 263              		.globl	_ZN8_Console11getInstanceEv
 265              	_ZN8_Console11getInstanceEv:
 266              	.LFB65:
   7:src/Console.cpp ****     static _Console instance;
 267              		.loc 1 7 34 is_stmt 1
 268              		.cfi_startproc
   8:src/Console.cpp ****     return instance;
 269              		.loc 1 8 5
   8:src/Console.cpp ****     return instance;
 270              		.loc 1 8 21 is_stmt 0
 271 0130 97070000 		lbu	a5,_ZGVZN8_Console11getInstanceEvE8instance
 271      83C70700 
 272 0138 63880700 		beqz	a5,.L16
   9:src/Console.cpp **** }
 273              		.loc 1 9 5 is_stmt 1
  10:src/Console.cpp **** 
 274              		.loc 1 10 1 is_stmt 0
 275 013c 17050000 		lla	a0,.LANCHOR0
 275      13050500 
 276 0144 67800000 		ret
 277              	.L16:
   7:src/Console.cpp ****     static _Console instance;
 278              		.loc 1 7 34 discriminator 1
 279 0148 130101FF 		addi	sp,sp,-16
 280              		.cfi_def_cfa_offset 16
GAS LISTING /tmp/ccPqDlgc.s 			page 7


 281 014c 23341100 		sd	ra,8(sp)
 282 0150 23308100 		sd	s0,0(sp)
 283              		.cfi_offset 1, -8
 284              		.cfi_offset 8, -16
 285 0154 13040101 		addi	s0,sp,16
 286              		.cfi_def_cfa 8, 0
   8:src/Console.cpp ****     return instance;
 287              		.loc 1 8 21 discriminator 1
 288 0158 17050000 		lla	a0,.LANCHOR0
 288      13050500 
 289 0160 97000000 		call	_ZN8_ConsoleC1Ev
 289      E7800000 
 290              	.LVL32:
 291 0168 93071000 		li	a5,1
 292 016c 17070000 		sb	a5,_ZGVZN8_Console11getInstanceEvE8instance,a4
 292      2300F700 
   9:src/Console.cpp **** }
 293              		.loc 1 9 5 is_stmt 1 discriminator 1
  10:src/Console.cpp **** 
 294              		.loc 1 10 1 is_stmt 0 discriminator 1
 295 0174 17050000 		lla	a0,.LANCHOR0
 295      13050500 
 296 017c 83308100 		ld	ra,8(sp)
 297              		.cfi_restore 1
 298 0180 03340100 		ld	s0,0(sp)
 299              		.cfi_restore 8
 300              		.cfi_def_cfa 2, 16
 301 0184 13010101 		addi	sp,sp,16
 302              		.cfi_def_cfa_offset 0
 303 0188 67800000 		jr	ra
 304              		.cfi_endproc
 305              	.LFE65:
 307              		.align	2
 308              		.globl	_ZN8_Console4putcEc
 310              	_ZN8_Console4putcEc:
 311              	.LFB69:
  17:src/Console.cpp **** 
  18:src/Console.cpp **** void _Console::putc(char c){
 312              		.loc 1 18 28 is_stmt 1
 313              		.cfi_startproc
 314              	.LVL33:
 315 018c 130101FE 		addi	sp,sp,-32
 316              		.cfi_def_cfa_offset 32
 317 0190 233C1100 		sd	ra,24(sp)
 318 0194 23388100 		sd	s0,16(sp)
 319 0198 23349100 		sd	s1,8(sp)
 320 019c 23302101 		sd	s2,0(sp)
 321              		.cfi_offset 1, -8
 322              		.cfi_offset 8, -16
 323              		.cfi_offset 9, -24
 324              		.cfi_offset 18, -32
 325 01a0 13040102 		addi	s0,sp,32
 326              		.cfi_def_cfa 8, 0
 327 01a4 93040500 		mv	s1,a0
 328 01a8 13890500 		mv	s2,a1
  19:src/Console.cpp ****     outputSpaceAvailable->wait();
 329              		.loc 1 19 5
GAS LISTING /tmp/ccPqDlgc.s 			page 8


 330              		.loc 1 19 31 is_stmt 0
 331 01ac 03350524 		ld	a0,576(a0)
 332              	.LVL34:
 333 01b0 97000000 		call	_ZN10_Semaphore4waitEv
 333      E7800000 
 334              	.LVL35:
  20:src/Console.cpp ****     outputBuffer.append(c);
 335              		.loc 1 20 5 is_stmt 1
 336              		.loc 1 20 24 is_stmt 0
 337 01b8 93050900 		mv	a1,s2
 338 01bc 13858411 		addi	a0,s1,280
 339 01c0 97000000 		call	_ZN13BoundedBuffer6appendEc
 339      E7800000 
 340              	.LVL36:
  21:src/Console.cpp ****     outputDataAvailable->signal();
 341              		.loc 1 21 5 is_stmt 1
 342              		.loc 1 21 32 is_stmt 0
 343 01c8 03B50423 		ld	a0,560(s1)
 344 01cc 97000000 		call	_ZN10_Semaphore6signalEv
 344      E7800000 
 345              	.LVL37:
  22:src/Console.cpp **** }
 346              		.loc 1 22 1
 347 01d4 83308101 		ld	ra,24(sp)
 348              		.cfi_restore 1
 349 01d8 03340101 		ld	s0,16(sp)
 350              		.cfi_restore 8
 351              		.cfi_def_cfa 2, 32
 352 01dc 83348100 		ld	s1,8(sp)
 353              		.cfi_restore 9
 354              	.LVL38:
 355 01e0 03390100 		ld	s2,0(sp)
 356              		.cfi_restore 18
 357 01e4 13010102 		addi	sp,sp,32
 358              		.cfi_def_cfa_offset 0
 359 01e8 67800000 		jr	ra
 360              		.cfi_endproc
 361              	.LFE69:
 363              		.align	2
 364              		.globl	_ZN8_Console4getcEv
 366              	_ZN8_Console4getcEv:
 367              	.LFB70:
  23:src/Console.cpp **** 
  24:src/Console.cpp **** char _Console::getc(){
 368              		.loc 1 24 22 is_stmt 1
 369              		.cfi_startproc
 370              	.LVL39:
 371 01ec 130101FE 		addi	sp,sp,-32
 372              		.cfi_def_cfa_offset 32
 373 01f0 233C1100 		sd	ra,24(sp)
 374 01f4 23388100 		sd	s0,16(sp)
 375 01f8 23349100 		sd	s1,8(sp)
 376              		.cfi_offset 1, -8
 377              		.cfi_offset 8, -16
 378              		.cfi_offset 9, -24
 379 01fc 13040102 		addi	s0,sp,32
 380              		.cfi_def_cfa 8, 0
GAS LISTING /tmp/ccPqDlgc.s 			page 9


 381 0200 93040500 		mv	s1,a0
  25:src/Console.cpp ****     inputDataAvailable->wait();
 382              		.loc 1 25 5
 383              		.loc 1 25 29 is_stmt 0
 384 0204 03358523 		ld	a0,568(a0)
 385              	.LVL40:
 386 0208 97000000 		call	_ZN10_Semaphore4waitEv
 386      E7800000 
 387              	.LVL41:
  26:src/Console.cpp ****     return inputBuffer.take();
 388              		.loc 1 26 5 is_stmt 1
 389              		.loc 1 26 28 is_stmt 0
 390 0210 13850400 		mv	a0,s1
 391 0214 97000000 		call	_ZN13BoundedBuffer4takeEv
 391      E7800000 
 392              	.LVL42:
  27:src/Console.cpp **** }
 393              		.loc 1 27 1
 394 021c 83308101 		ld	ra,24(sp)
 395              		.cfi_restore 1
 396 0220 03340101 		ld	s0,16(sp)
 397              		.cfi_restore 8
 398              		.cfi_def_cfa 2, 32
 399 0224 83348100 		ld	s1,8(sp)
 400              		.cfi_restore 9
 401              	.LVL43:
 402 0228 13010102 		addi	sp,sp,32
 403              		.cfi_def_cfa_offset 0
 404 022c 67800000 		jr	ra
 405              		.cfi_endproc
 406              	.LFE70:
 408              		.align	2
 409              		.globl	_Z12outputThreadPv
 411              	_Z12outputThreadPv:
 412              	.LFB71:
  28:src/Console.cpp **** 
  29:src/Console.cpp **** void outputThread(void*){
 413              		.loc 1 29 25 is_stmt 1
 414              		.cfi_startproc
 415 0230 130101FE 		addi	sp,sp,-32
 416              		.cfi_def_cfa_offset 32
 417 0234 233C1100 		sd	ra,24(sp)
 418 0238 23388100 		sd	s0,16(sp)
 419 023c 23349100 		sd	s1,8(sp)
 420              		.cfi_offset 1, -8
 421              		.cfi_offset 8, -16
 422              		.cfi_offset 9, -24
 423 0240 13040102 		addi	s0,sp,32
 424              		.cfi_def_cfa 8, 0
  30:src/Console.cpp ****     _Console& console = _Console::getInstance();
 425              		.loc 1 30 5
 426              		.loc 1 30 47 is_stmt 0
 427 0244 97000000 		call	_ZN8_Console11getInstanceEv
 427      E7800000 
 428              	.LVL44:
 429 024c 93040500 		mv	s1,a0
 430              	.LVL45:
GAS LISTING /tmp/ccPqDlgc.s 			page 10


 431 0250 6F008002 		j	.L24
 432              	.L22:
  31:src/Console.cpp ****     while(1){
  32:src/Console.cpp ****         console.outputDataAvailable->wait();
  33:src/Console.cpp ****         while(!(*(volatile char*)CONSOLE_STATUS & CONSOLE_TX_STATUS_BIT)) {
  34:src/Console.cpp ****             thread_dispatch();
  35:src/Console.cpp ****         }
  36:src/Console.cpp ****         *(volatile char*)CONSOLE_TX_DATA = console.outputBuffer.take();
 433              		.loc 1 36 9 is_stmt 1
 434              		.loc 1 36 69 is_stmt 0
 435 0254 13858411 		addi	a0,s1,280
 436 0258 97000000 		call	_ZN13BoundedBuffer4takeEv
 436      E7800000 
 437              	.LVL46:
 438              		.loc 1 36 42
 439 0260 97070000 		ld	a5,CONSOLE_TX_DATA
 439      83B70700 
 440 0268 2380A700 		sb	a0,0(a5)
  37:src/Console.cpp ****         console.outputSpaceAvailable->signal();
 441              		.loc 1 37 9 is_stmt 1
 442              		.loc 1 37 45 is_stmt 0
 443 026c 03B50424 		ld	a0,576(s1)
 444 0270 97000000 		call	_ZN10_Semaphore6signalEv
 444      E7800000 
 445              	.LVL47:
  31:src/Console.cpp ****     while(1){
 446              		.loc 1 31 5 is_stmt 1
 447              	.L24:
  31:src/Console.cpp ****     while(1){
 448              		.loc 1 31 5
  32:src/Console.cpp ****         while(!(*(volatile char*)CONSOLE_STATUS & CONSOLE_TX_STATUS_BIT)) {
 449              		.loc 1 32 9
  32:src/Console.cpp ****         while(!(*(volatile char*)CONSOLE_STATUS & CONSOLE_TX_STATUS_BIT)) {
 450              		.loc 1 32 42 is_stmt 0
 451 0278 03B50423 		ld	a0,560(s1)
 452 027c 97000000 		call	_ZN10_Semaphore4waitEv
 452      E7800000 
 453              	.LVL48:
 454              	.L23:
  33:src/Console.cpp ****             thread_dispatch();
 455              		.loc 1 33 9 is_stmt 1
  33:src/Console.cpp ****             thread_dispatch();
 456              		.loc 1 33 15
  33:src/Console.cpp ****             thread_dispatch();
 457              		.loc 1 33 17 is_stmt 0
 458 0284 97070000 		ld	a5,CONSOLE_STATUS
 458      83B70700 
 459 028c 83C70700 		lbu	a5,0(a5)
 460 0290 93F7F70F 		andi	a5,a5,0xff
  33:src/Console.cpp ****             thread_dispatch();
 461              		.loc 1 33 15
 462 0294 93F70702 		andi	a5,a5,32
 463 0298 E39E07FA 		bnez	a5,.L22
  34:src/Console.cpp ****         }
 464              		.loc 1 34 13 is_stmt 1
  34:src/Console.cpp ****         }
 465              		.loc 1 34 28 is_stmt 0
GAS LISTING /tmp/ccPqDlgc.s 			page 11


 466 029c 97000000 		call	_Z15thread_dispatchv
 466      E7800000 
 467              	.LVL49:
  33:src/Console.cpp ****             thread_dispatch();
 468              		.loc 1 33 9
 469 02a4 6FF01FFE 		j	.L23
 470              		.cfi_endproc
 471              	.LFE71:
 473              		.align	2
 474              		.globl	_ZN8_Console17keyboardInterruptEv
 476              	_ZN8_Console17keyboardInterruptEv:
 477              	.LFB72:
  38:src/Console.cpp ****     }
  39:src/Console.cpp **** }
  40:src/Console.cpp **** 
  41:src/Console.cpp **** 
  42:src/Console.cpp **** void _Console::keyboardInterrupt(){
 478              		.loc 1 42 35 is_stmt 1
 479              		.cfi_startproc
 480              	.LVL50:
 481 02a8 130101FE 		addi	sp,sp,-32
 482              		.cfi_def_cfa_offset 32
 483 02ac 233C1100 		sd	ra,24(sp)
 484 02b0 23388100 		sd	s0,16(sp)
 485 02b4 23349100 		sd	s1,8(sp)
 486              		.cfi_offset 1, -8
 487              		.cfi_offset 8, -16
 488              		.cfi_offset 9, -24
 489 02b8 13040102 		addi	s0,sp,32
 490              		.cfi_def_cfa 8, 0
  43:src/Console.cpp ****     _Console& console=_Console::getInstance();
 491              		.loc 1 43 5
 492              		.loc 1 43 45 is_stmt 0
 493 02bc 97000000 		call	_ZN8_Console11getInstanceEv
 493      E7800000 
 494              	.LVL51:
 495 02c4 93040500 		mv	s1,a0
 496              	.LVL52:
 497              	.L28:
  44:src/Console.cpp ****     while(*(volatile char*)CONSOLE_STATUS & CONSOLE_RX_STATUS_BIT){
 498              		.loc 1 44 5 is_stmt 1
 499              		.loc 1 44 45
 500              		.loc 1 44 11 is_stmt 0
 501 02c8 97070000 		ld	a5,CONSOLE_STATUS
 501      83B70700 
 502 02d0 83C70700 		lbu	a5,0(a5)
 503              		.loc 1 44 45
 504 02d4 93F71700 		andi	a5,a5,1
 505 02d8 638E0702 		beqz	a5,.L26
 506              	.LBB42:
  45:src/Console.cpp ****         char data=*(volatile char*)CONSOLE_RX_DATA;
 507              		.loc 1 45 9 is_stmt 1
 508              		.loc 1 45 19 is_stmt 0
 509 02dc 97070000 		ld	a5,CONSOLE_RX_DATA
 509      83B70700 
 510              		.loc 1 45 36
 511 02e4 83C50700 		lbu	a1,0(a5)
GAS LISTING /tmp/ccPqDlgc.s 			page 12


 512 02e8 93F5F50F 		andi	a1,a1,0xff
 513              	.LVL53:
  46:src/Console.cpp ****         if(!console.inputBuffer.isFull()){
 514              		.loc 1 46 9 is_stmt 1
 515              	.LBB43:
 516              	.LBB44:
  10:src/../h/../h/BoundedBuffer.hpp ****     }
  11:src/../h/../h/BoundedBuffer.hpp ****     void append(char);
  12:src/../h/../h/BoundedBuffer.hpp ****     char take();
  13:src/../h/../h/BoundedBuffer.hpp ****     bool isEmpty() const { return count==0; }
  14:src/../h/../h/BoundedBuffer.hpp ****     bool isFull() const { return count==BUFFER_SIZE; }
 517              		.loc 2 14 27
 518              		.loc 2 14 34 is_stmt 0
 519 02ec 03B70410 		ld	a4,256(s1)
 520              	.LVL54:
 521              	.LBE44:
 522              	.LBE43:
 523              		.loc 1 46 9
 524 02f0 93070010 		li	a5,256
 525 02f4 E30AF7FC 		beq	a4,a5,.L28
  47:src/Console.cpp ****             console.inputBuffer.append(data);
 526              		.loc 1 47 13 is_stmt 1
 527              		.loc 1 47 39 is_stmt 0
 528 02f8 13850400 		mv	a0,s1
 529 02fc 97000000 		call	_ZN13BoundedBuffer6appendEc
 529      E7800000 
 530              	.LVL55:
  48:src/Console.cpp ****             console.inputDataAvailable->signal();
 531              		.loc 1 48 13 is_stmt 1
 532              		.loc 1 48 47 is_stmt 0
 533 0304 03B58423 		ld	a0,568(s1)
 534 0308 97000000 		call	_ZN10_Semaphore6signalEv
 534      E7800000 
 535              	.LVL56:
 536 0310 6FF09FFB 		j	.L28
 537              	.L26:
 538              	.LBE42:
  49:src/Console.cpp ****         }
  50:src/Console.cpp ****     }
  51:src/Console.cpp **** }...
 539              		.loc 1 51 1
 540 0314 83308101 		ld	ra,24(sp)
 541              		.cfi_restore 1
 542 0318 03340101 		ld	s0,16(sp)
 543              		.cfi_restore 8
 544              		.cfi_def_cfa 2, 32
 545 031c 83348100 		ld	s1,8(sp)
 546              		.cfi_restore 9
 547              	.LVL57:
 548 0320 13010102 		addi	sp,sp,32
 549              		.cfi_def_cfa_offset 0
 550 0324 67800000 		jr	ra
 551              		.cfi_endproc
 552              	.LFE72:
 554              		.bss
 555              		.align	3
 556              		.set	.LANCHOR0,. + 0
GAS LISTING /tmp/ccPqDlgc.s 			page 13


 559              	_ZZN8_Console11getInstanceEvE8instance:
 560 0000 00000000 		.zero	584
 560      00000000 
 560      00000000 
 560      00000000 
 560      00000000 
 561              		.section	.sbss,"aw",@nobits
 562              		.align	3
 565              	_ZGVZN8_Console11getInstanceEvE8instance:
 566 0000 00000000 		.zero	8
 566      00000000 
 567              		.text
 568              	.Letext0:
 569              		.file 4 "src/../h/../lib/hw.h"
 570              		.file 5 "src/../h/../h/../h/MemoryAllocator.hpp"
 571              		.file 6 "src/../h/../h/../h/TCB.hpp"
 572              		.file 7 "src/../h/../h/List.hpp"
 573              		.file 8 "src/../h/Console.hpp"
 574              		.file 9 "src/../h/syscall_c.hpp"
 4264              		.align	3
 4267              	DW.ref.__gxx_personality_v0:
 4268 0000 00000000 		.dword	__gxx_personality_v0
 4268      00000000 
 4269              		.ident	"GCC: () 9.3.0"
GAS LISTING /tmp/ccPqDlgc.s 			page 14

