GAS LISTING /tmp/cc5stWrQ.s 			page 1


   1              		.file	"interruptHandler.cpp"
   2              		.option nopic
   3              		.option norelax
   4              		.attribute arch, "rv64i2p0_m2p0_a2p0"
   5              		.attribute unaligned_access, 0
   6              		.attribute stack_align, 16
   7              		.text
   8              	.Ltext0:
   9              		.align	2
  10              		.globl	interruptHandler
  12              	interruptHandler:
  13              	.LFB65:
  14              		.file 1 "src/interruptHandler.cpp"
   1:src/interruptHandler.cpp **** #include "../lib/hw.h"
   2:src/interruptHandler.cpp **** #include "../h/MemoryAllocator.hpp"
   3:src/interruptHandler.cpp **** #include "../h/TCB.hpp"
   4:src/interruptHandler.cpp **** #include "../h/Riscv.hpp"
   5:src/interruptHandler.cpp **** #include "../h/Semaphore.hpp"
   6:src/interruptHandler.cpp **** #include "../h/Console.hpp"
   7:src/interruptHandler.cpp **** 
   8:src/interruptHandler.cpp **** class _thread;
   9:src/interruptHandler.cpp **** typedef _thread* thread_t;
  10:src/interruptHandler.cpp **** 
  11:src/interruptHandler.cpp **** class _sem;
  12:src/interruptHandler.cpp **** typedef _sem* sem_t;
  13:src/interruptHandler.cpp **** 
  14:src/interruptHandler.cpp **** void dbg(char c);
  15:src/interruptHandler.cpp **** 
  16:src/interruptHandler.cpp **** extern "C" void interruptHandler(uint64* reg) {
  15              		.loc 1 16 47
  16              		.cfi_startproc
  17              	.LVL0:
  18 0000 130101FB 		addi	sp,sp,-80
  19              		.cfi_def_cfa_offset 80
  20 0004 23341104 		sd	ra,72(sp)
  21 0008 23308104 		sd	s0,64(sp)
  22 000c 233C9102 		sd	s1,56(sp)
  23 0010 23382103 		sd	s2,48(sp)
  24 0014 23343103 		sd	s3,40(sp)
  25 0018 23304103 		sd	s4,32(sp)
  26              		.cfi_offset 1, -8
  27              		.cfi_offset 8, -16
  28              		.cfi_offset 9, -24
  29              		.cfi_offset 18, -32
  30              		.cfi_offset 19, -40
  31              		.cfi_offset 20, -48
  32 001c 13040105 		addi	s0,sp,80
  33              		.cfi_def_cfa 8, 0
  34 0020 93040500 		mv	s1,a0
  17:src/interruptHandler.cpp ****     uint64 code = reg[10];
  35              		.loc 1 17 5
  36              		.loc 1 17 12 is_stmt 0
  37 0024 83370505 		ld	a5,80(a0)
  38              	.LVL1:
  18:src/interruptHandler.cpp ****     uint64 a1   = reg[11];
  39              		.loc 1 18 5 is_stmt 1
  40              		.loc 1 18 12 is_stmt 0
GAS LISTING /tmp/cc5stWrQ.s 			page 2


  41 0028 033A8505 		ld	s4,88(a0)
  42              	.LVL2:
  19:src/interruptHandler.cpp ****     uint64 a2   = reg[12];
  43              		.loc 1 19 5 is_stmt 1
  44              		.loc 1 19 12 is_stmt 0
  45 002c 03350506 		ld	a0,96(a0)
  46              	.LVL3:
  20:src/interruptHandler.cpp ****     uint64 a3   = reg[13];
  47              		.loc 1 20 5 is_stmt 1
  48              		.loc 1 20 12 is_stmt 0
  49 0030 83B58406 		ld	a1,104(s1)
  50              	.LVL4:
  21:src/interruptHandler.cpp **** 
  22:src/interruptHandler.cpp ****     uint64 scauseValue;
  51              		.loc 1 22 5 is_stmt 1
  23:src/interruptHandler.cpp **** 	uint64 sepc;
  52              		.loc 1 23 2
  24:src/interruptHandler.cpp **** 	uint64 sstatus;
  53              		.loc 1 24 2
  25:src/interruptHandler.cpp **** 
  26:src/interruptHandler.cpp ****     void* addr;
  54              		.loc 1 26 5
  27:src/interruptHandler.cpp ****     size_t size;
  55              		.loc 1 27 5
  28:src/interruptHandler.cpp ****     int returnValue;
  56              		.loc 1 28 5
  29:src/interruptHandler.cpp ****     void* arg;
  57              		.loc 1 29 5
  30:src/interruptHandler.cpp ****     thread_t* handle_thread;
  58              		.loc 1 30 5
  31:src/interruptHandler.cpp ****     TCB::Body start_routine;
  59              		.loc 1 31 5
  32:src/interruptHandler.cpp ****     sem_t* handle_sem;
  60              		.loc 1 32 5
  33:src/interruptHandler.cpp ****     sem_t* id;
  61              		.loc 1 33 5
  34:src/interruptHandler.cpp ****     uint64 n;
  62              		.loc 1 34 5
  35:src/interruptHandler.cpp ****     uint64 init;
  63              		.loc 1 35 5
  36:src/interruptHandler.cpp ****     _Semaphore* sem;
  64              		.loc 1 36 5
  37:src/interruptHandler.cpp ****     time_t time;
  65              		.loc 1 37 5
  38:src/interruptHandler.cpp **** 
  39:src/interruptHandler.cpp ****     sepc=Riscv::r_sepc();
  66              		.loc 1 39 5
  67              	.LBB41:
  68              	.LBB42:
  69              		.file 2 "src/../h/Riscv.hpp"
   1:src/../h/Riscv.hpp **** #ifndef RISCV_HPP
   2:src/../h/Riscv.hpp **** #define RISCV_HPP
   3:src/../h/Riscv.hpp **** 
   4:src/../h/Riscv.hpp **** #include "../lib/hw.h"
   5:src/../h/Riscv.hpp **** 
   6:src/../h/Riscv.hpp **** class Riscv{
   7:src/../h/Riscv.hpp **** public:
GAS LISTING /tmp/cc5stWrQ.s 			page 3


   8:src/../h/Riscv.hpp **** 
   9:src/../h/Riscv.hpp ****     //push(pop) x3..x31
  10:src/../h/Riscv.hpp ****     static void pushRegisters();
  11:src/../h/Riscv.hpp ****     static void popRegisters();
  12:src/../h/Riscv.hpp **** 
  13:src/../h/Riscv.hpp ****     //read helpers
  14:src/../h/Riscv.hpp ****     static uint64 r_scause();
  15:src/../h/Riscv.hpp ****     static uint64 r_sepc();
  16:src/../h/Riscv.hpp ****     static uint64 r_stvec();
  17:src/../h/Riscv.hpp ****     static uint64 r_stval();
  18:src/../h/Riscv.hpp **** 
  19:src/../h/Riscv.hpp ****     //write helpers
  20:src/../h/Riscv.hpp ****     static void w_scause(uint64 scause);
  21:src/../h/Riscv.hpp ****     static void w_sepc(uint64 sepc);
  22:src/../h/Riscv.hpp ****     static void w_stvec(uint64 stvec);
  23:src/../h/Riscv.hpp ****     static void w_stval(uint64 stval);
  24:src/../h/Riscv.hpp **** 
  25:src/../h/Riscv.hpp ****     enum BitMaskSip{
  26:src/../h/Riscv.hpp ****         SIP_SSIE=(1<<1),
  27:src/../h/Riscv.hpp ****         SIP_STIE=(1<<5),
  28:src/../h/Riscv.hpp ****         SIP_SEIE=(1<<9),
  29:src/../h/Riscv.hpp ****     };
  30:src/../h/Riscv.hpp **** 
  31:src/../h/Riscv.hpp ****     static void ms_sip(uint64 mask);
  32:src/../h/Riscv.hpp ****     static void mc_sip(uint64 mask);
  33:src/../h/Riscv.hpp ****     static uint64 r_sip();
  34:src/../h/Riscv.hpp ****     static void w_sip(uint64 sip);
  35:src/../h/Riscv.hpp **** 
  36:src/../h/Riscv.hpp **** 
  37:src/../h/Riscv.hpp ****     enum BitMaskSstatus{
  38:src/../h/Riscv.hpp ****         SSTATUS_SIE=(1<<1),
  39:src/../h/Riscv.hpp ****         SSTATUS_SPIE=(1<<5),
  40:src/../h/Riscv.hpp ****         SSTATUS_SPP=(1<<8),
  41:src/../h/Riscv.hpp ****     };
  42:src/../h/Riscv.hpp **** 
  43:src/../h/Riscv.hpp ****     static void ms_sstatus(uint64 mask);
  44:src/../h/Riscv.hpp ****     static void mc_sstatus(uint64 mask);
  45:src/../h/Riscv.hpp ****     static uint64 r_sstatus();
  46:src/../h/Riscv.hpp ****     static void w_sstatus(uint64 sstatus);
  47:src/../h/Riscv.hpp **** 
  48:src/../h/Riscv.hpp ****     static void enableInterrupts();
  49:src/../h/Riscv.hpp ****     static void disableInterrupts();
  50:src/../h/Riscv.hpp ****     static void popSppSpie();
  51:src/../h/Riscv.hpp **** };
  52:src/../h/Riscv.hpp **** 
  53:src/../h/Riscv.hpp **** inline void Riscv::enableInterrupts(){
  54:src/../h/Riscv.hpp ****     uint64 volatile sstatus;
  55:src/../h/Riscv.hpp ****     __asm__ volatile("csrr %[sstatus], sstatus":[sstatus] "=r"(sstatus));
  56:src/../h/Riscv.hpp ****     sstatus|=(1UL<<1);
  57:src/../h/Riscv.hpp ****     __asm__ volatile ("csrw sstatus, %[sstatus]" : : [sstatus] "r"(sstatus));
  58:src/../h/Riscv.hpp **** }
  59:src/../h/Riscv.hpp **** 
  60:src/../h/Riscv.hpp **** inline void Riscv::disableInterrupts(){
  61:src/../h/Riscv.hpp ****     uint64 volatile sstatus;
  62:src/../h/Riscv.hpp ****     __asm__ volatile("csrr %[sstatus], sstatus":[sstatus] "=r"(sstatus));
  63:src/../h/Riscv.hpp ****     sstatus&=~(1UL<<1);
  64:src/../h/Riscv.hpp ****     __asm__ volatile ("csrw sstatus, %[sstatus]" : : [sstatus] "r"(sstatus));
GAS LISTING /tmp/cc5stWrQ.s 			page 4


  65:src/../h/Riscv.hpp **** }
  66:src/../h/Riscv.hpp **** 
  67:src/../h/Riscv.hpp **** 
  68:src/../h/Riscv.hpp **** inline uint64 Riscv::r_scause(){
  69:src/../h/Riscv.hpp ****     uint64 volatile scause;
  70:src/../h/Riscv.hpp ****     __asm__ volatile("csrr %[scause], scause":[scause] "=r"(scause));
  71:src/../h/Riscv.hpp ****     return scause;
  72:src/../h/Riscv.hpp **** 
  73:src/../h/Riscv.hpp **** }
  74:src/../h/Riscv.hpp **** inline uint64 Riscv::r_sepc(){
  75:src/../h/Riscv.hpp ****     uint64 volatile sepc;
  70              		.loc 2 75 5
  76:src/../h/Riscv.hpp ****     __asm__ volatile("csrr %[sepc], sepc":[sepc] "=r"(sepc));
  71              		.loc 2 76 5
  72              		.loc 2 76 61 is_stmt 0
  73              	 #APP
  74              	# 76 "src/../h/Riscv.hpp" 1
  77              	    return sepc;
  75              		csrr a4, sepc
  76              	# 0 "" 2
  77              	 #NO_APP
  78 0038 2334E4FC 		sd	a4,-56(s0)
  79              		.loc 2 77 5 is_stmt 1
  80              		.loc 2 77 12 is_stmt 0
  81 003c 033984FC 		ld	s2,-56(s0)
  82              	.LVL5:
  83              	.LBE42:
  84              	.LBE41:
  40:src/interruptHandler.cpp ****     sstatus=Riscv::r_sstatus();
  85              		.loc 1 40 5 is_stmt 1
  86              	.LBB43:
  87              	.LBB44:
  78:src/../h/Riscv.hpp **** 
  79:src/../h/Riscv.hpp **** }
  80:src/../h/Riscv.hpp **** inline uint64 Riscv::r_stvec(){
  81:src/../h/Riscv.hpp ****     uint64 volatile stvec;
  82:src/../h/Riscv.hpp ****     __asm__ volatile("csrr %[stvec], stvec":[stvec] "=r"(stvec));
  83:src/../h/Riscv.hpp ****     return stvec;
  84:src/../h/Riscv.hpp **** 
  85:src/../h/Riscv.hpp **** }
  86:src/../h/Riscv.hpp **** inline uint64 Riscv::r_stval(){
  87:src/../h/Riscv.hpp ****     uint64 volatile stval;
  88:src/../h/Riscv.hpp ****     __asm__ volatile("csrr %[stval], stval":[stval] "=r"(stval));
  89:src/../h/Riscv.hpp ****     return stval;
  90:src/../h/Riscv.hpp **** 
  91:src/../h/Riscv.hpp **** }
  92:src/../h/Riscv.hpp **** 
  93:src/../h/Riscv.hpp **** inline void Riscv::w_scause(uint64 scause){
  94:src/../h/Riscv.hpp ****     __asm__ volatile ("csrw scause, %[scause]" : : [scause] "r"(scause));
  95:src/../h/Riscv.hpp **** }
  96:src/../h/Riscv.hpp **** inline void Riscv::w_sepc(uint64 sepc){
  97:src/../h/Riscv.hpp ****     __asm__ volatile ("csrw sepc, %[sepc]" : : [sepc] "r"(sepc));
  98:src/../h/Riscv.hpp **** }
  99:src/../h/Riscv.hpp **** 
 100:src/../h/Riscv.hpp **** inline void Riscv::w_stvec(uint64 stvec){
 101:src/../h/Riscv.hpp ****     __asm__ volatile ("csrw stvec, %[stvec]" : : [stvec] "r"(stvec));
 102:src/../h/Riscv.hpp **** }
GAS LISTING /tmp/cc5stWrQ.s 			page 5


 103:src/../h/Riscv.hpp **** 
 104:src/../h/Riscv.hpp **** inline void Riscv::w_stval(uint64 stval){
 105:src/../h/Riscv.hpp ****     __asm__ volatile ("csrw stval, %[stval]" : : [stval] "r"(stval));
 106:src/../h/Riscv.hpp **** }
 107:src/../h/Riscv.hpp **** 
 108:src/../h/Riscv.hpp **** inline uint64 Riscv::r_sstatus() {
 109:src/../h/Riscv.hpp ****     uint64 volatile sstatus;
  88              		.loc 2 109 5
 110:src/../h/Riscv.hpp ****     __asm__ volatile("csrr %[sstatus], sstatus" : [sstatus] "=r"(sstatus));
  89              		.loc 2 110 5
  90              		.loc 2 110 75 is_stmt 0
  91              	 #APP
  92              	# 110 "src/../h/Riscv.hpp" 1
 111              	    return sstatus;
  93              		csrr a4, sstatus
  94              	# 0 "" 2
  95              	 #NO_APP
  96 0044 2330E4FC 		sd	a4,-64(s0)
  97              		.loc 2 111 5 is_stmt 1
  98              		.loc 2 111 12 is_stmt 0
  99 0048 833904FC 		ld	s3,-64(s0)
 100              	.LVL6:
 101              	.LBE44:
 102              	.LBE43:
  41:src/interruptHandler.cpp ****     scauseValue=Riscv::r_scause();
 103              		.loc 1 41 5 is_stmt 1
 104              	.LBB45:
 105              	.LBB46:
  69:src/../h/Riscv.hpp ****     __asm__ volatile("csrr %[scause], scause":[scause] "=r"(scause));
 106              		.loc 2 69 5
  70:src/../h/Riscv.hpp ****     return scause;
 107              		.loc 2 70 5
  70:src/../h/Riscv.hpp ****     return scause;
 108              		.loc 2 70 69 is_stmt 0
 109              	 #APP
 110              	# 70 "src/../h/Riscv.hpp" 1
 111              		csrr a4, scause
 112              	# 0 "" 2
 113              	 #NO_APP
 114 0050 233CE4FA 		sd	a4,-72(s0)
  71:src/../h/Riscv.hpp **** 
 115              		.loc 2 71 5 is_stmt 1
  71:src/../h/Riscv.hpp **** 
 116              		.loc 2 71 12 is_stmt 0
 117 0054 033784FB 		ld	a4,-72(s0)
 118              	.LVL7:
 119              	.LBE46:
 120              	.LBE45:
  42:src/interruptHandler.cpp **** 
  43:src/interruptHandler.cpp ****     if (scauseValue == 0x0000000000000009UL || scauseValue == 0x0000000000000008UL ) {
 121              		.loc 1 43 5 is_stmt 1
 122              	.LBB47:
 123              		.loc 1 43 45 is_stmt 0
 124 0058 130687FF 		addi	a2,a4,-8
 125              		.loc 1 43 5
 126 005c 93061000 		li	a3,1
 127 0060 63F8C604 		bleu	a2,a3,.L27
GAS LISTING /tmp/cc5stWrQ.s 			page 6


 128              	.LBE47:
  44:src/interruptHandler.cpp **** 
  45:src/interruptHandler.cpp ****         switch (code) {
  46:src/interruptHandler.cpp ****             case 0x01:
  47:src/interruptHandler.cpp ****                 size=a1;
  48:src/interruptHandler.cpp ****                 addr=MemoryAllocator::getInstance().memAlloc(size);
  49:src/interruptHandler.cpp ****                 reg[10]=(uint64)addr;
  50:src/interruptHandler.cpp ****                 break;
  51:src/interruptHandler.cpp ****             case 0x02:
  52:src/interruptHandler.cpp ****                 addr=(void*)a1;
  53:src/interruptHandler.cpp ****                 returnValue=MemoryAllocator::getInstance().free(addr);
  54:src/interruptHandler.cpp ****                 reg[10]=returnValue;
  55:src/interruptHandler.cpp ****                 break;
  56:src/interruptHandler.cpp ****             case 0x011:
  57:src/interruptHandler.cpp **** 				handle_thread=(thread_t*)a1;
  58:src/interruptHandler.cpp ****                 start_routine=(TCB::Body)a2;
  59:src/interruptHandler.cpp ****                 arg=(void*)a3;
  60:src/interruptHandler.cpp ****                 *handle_thread=(thread_t)TCB::create_thread(start_routine,arg,0);
  61:src/interruptHandler.cpp ****                 if(*handle_thread==nullptr) returnValue=-1;
  62:src/interruptHandler.cpp ****                 else returnValue=0;
  63:src/interruptHandler.cpp ****                 reg[10]=returnValue;
  64:src/interruptHandler.cpp ****                 break;
  65:src/interruptHandler.cpp ****             case 0x012:
  66:src/interruptHandler.cpp ****                 returnValue=TCB::thread_exit();
  67:src/interruptHandler.cpp ****                 reg[10]=returnValue;
  68:src/interruptHandler.cpp ****                 break;
  69:src/interruptHandler.cpp ****             case 0x013:
  70:src/interruptHandler.cpp ****                 TCB::timeSliceCounter=0;
  71:src/interruptHandler.cpp ****                 sepc+=4;
  72:src/interruptHandler.cpp ****                 TCB::dispatch();
  73:src/interruptHandler.cpp ****                 Riscv::w_sepc(sepc+4);
  74:src/interruptHandler.cpp ****                 Riscv::w_sstatus(sstatus);
  75:src/interruptHandler.cpp ****                 break;
  76:src/interruptHandler.cpp ****             case 0x021:
  77:src/interruptHandler.cpp ****                 handle_sem=(sem_t*)a1;
  78:src/interruptHandler.cpp ****                 init=a2;
  79:src/interruptHandler.cpp ****                 *handle_sem=(sem_t)_Semaphore::create_semaphore(init);
  80:src/interruptHandler.cpp ****                 returnValue=1;
  81:src/interruptHandler.cpp ****                 reg[10]=returnValue;
  82:src/interruptHandler.cpp ****                 break;
  83:src/interruptHandler.cpp ****             case 0x022:
  84:src/interruptHandler.cpp ****                 handle_sem=(sem_t*)a1;
  85:src/interruptHandler.cpp ****                 sem=(_Semaphore*)handle_sem;
  86:src/interruptHandler.cpp ****                 returnValue=1;
  87:src/interruptHandler.cpp ****                 delete sem;
  88:src/interruptHandler.cpp ****                 reg[10]=returnValue;
  89:src/interruptHandler.cpp ****                 break;
  90:src/interruptHandler.cpp ****             case 0x023:
  91:src/interruptHandler.cpp ****                 id=(sem_t*)a1;
  92:src/interruptHandler.cpp ****                 sem=(_Semaphore*)id;
  93:src/interruptHandler.cpp ****                 sem->wait();
  94:src/interruptHandler.cpp ****                 break;
  95:src/interruptHandler.cpp ****             case 0x024:
  96:src/interruptHandler.cpp ****                 id=(sem_t*)a1;
  97:src/interruptHandler.cpp ****                 sem=(_Semaphore*)id;
  98:src/interruptHandler.cpp ****                 sem->signal();
  99:src/interruptHandler.cpp ****                 break;
GAS LISTING /tmp/cc5stWrQ.s 			page 7


 100:src/interruptHandler.cpp ****             case 0x025:
 101:src/interruptHandler.cpp ****                 id=(sem_t*)a1;
 102:src/interruptHandler.cpp ****                 n=a2;
 103:src/interruptHandler.cpp ****                 sem=(_Semaphore*)id;
 104:src/interruptHandler.cpp ****                 sem->wait_n(n);
 105:src/interruptHandler.cpp ****                 break;
 106:src/interruptHandler.cpp ****             case 0x026:
 107:src/interruptHandler.cpp ****                 id=(sem_t*)a1;
 108:src/interruptHandler.cpp ****                 n=a2;
 109:src/interruptHandler.cpp ****                 sem=(_Semaphore*)id;
 110:src/interruptHandler.cpp ****                 sem->signal_n(n);
 111:src/interruptHandler.cpp ****                 break;
 112:src/interruptHandler.cpp ****             case 0x031:
 113:src/interruptHandler.cpp ****                 time=(time_t)a1;
 114:src/interruptHandler.cpp ****                 TCB::time_sleep(time);
 115:src/interruptHandler.cpp ****                 sepc+=4;
 116:src/interruptHandler.cpp ****                 //TCB::dispatch();
 117:src/interruptHandler.cpp ****                 Riscv::w_sepc(sepc+4);
 118:src/interruptHandler.cpp ****                 Riscv::w_sstatus(sstatus);
 119:src/interruptHandler.cpp ****                 returnValue=1;
 120:src/interruptHandler.cpp ****                 reg[10]=returnValue;
 121:src/interruptHandler.cpp ****                 break;
 122:src/interruptHandler.cpp ****             case 0x041:
 123:src/interruptHandler.cpp ****                 returnValue=(uint64)_Console::getInstance().getc();
 124:src/interruptHandler.cpp ****                 reg[10]=returnValue;
 125:src/interruptHandler.cpp ****                 break;
 126:src/interruptHandler.cpp ****             case 0x042:
 127:src/interruptHandler.cpp ****                 char c=(char)a1;
 128:src/interruptHandler.cpp ****                 _Console::getInstance().putc(c);
 129:src/interruptHandler.cpp ****                 break;
 130:src/interruptHandler.cpp ****         }
 131:src/interruptHandler.cpp **** 		Riscv::w_sepc(sepc+4);
 132:src/interruptHandler.cpp ****         Riscv::w_sstatus(sstatus);
 133:src/interruptHandler.cpp **** 
 134:src/interruptHandler.cpp ****     }
 135:src/interruptHandler.cpp ****     else if(scauseValue==0x8000000000000001UL){
 129              		.loc 1 135 10 is_stmt 1
 130              	.LBB89:
 131              	.LBB48:
 132 0064 9307F0FF 		li	a5,-1
 133              	.LVL8:
 134 0068 9397F703 		slli	a5,a5,63
 135 006c 93871700 		addi	a5,a5,1
 136 0070 630CF720 		beq	a4,a5,.L28
 137              	.LBE48:
 138              	.LBE89:
 136:src/interruptHandler.cpp ****         //timer interrupt
 137:src/interruptHandler.cpp ****         Riscv::mc_sip(Riscv::BitMaskSip::SIP_SSIE);
 138:src/interruptHandler.cpp ****         TCB::timeSliceCounter++;
 139:src/interruptHandler.cpp ****         Scheduler::getInstance().updateSleep();
 140:src/interruptHandler.cpp ****         if(TCB::timeSliceCounter >= TCB::running->getTimeSlice()){
 141:src/interruptHandler.cpp ****             TCB::timeSliceCounter=0;
 142:src/interruptHandler.cpp ****             TCB::dispatch();
 143:src/interruptHandler.cpp ****         }
 144:src/interruptHandler.cpp **** 		Riscv::w_sepc(sepc);
 145:src/interruptHandler.cpp ****         Riscv::w_sstatus(sstatus);
 146:src/interruptHandler.cpp **** 
GAS LISTING /tmp/cc5stWrQ.s 			page 8


 147:src/interruptHandler.cpp ****     }
 148:src/interruptHandler.cpp ****     else if(scauseValue == 0x8000000000000009UL){
 139              		.loc 1 148 10
 140              	.LBB90:
 141              	.LBB65:
 142              	.LBB49:
 143 0074 9307F0FF 		li	a5,-1
 144 0078 9397F703 		slli	a5,a5,63
 145 007c 93879700 		addi	a5,a5,9
 146 0080 631CF706 		bne	a4,a5,.L1
 147              	.LBB50:
 149:src/interruptHandler.cpp ****         //keyboard interrupt
 150:src/interruptHandler.cpp ****         uint64 IRQ=plic_claim();
 148              		.loc 1 150 9
 149              		.loc 1 150 30 is_stmt 0
 150 0084 97000000 		call	plic_claim
 150      E7800000 
 151              	.LVL9:
 152 008c 93040500 		mv	s1,a0
 153              	.LVL10:
 151:src/interruptHandler.cpp ****         if(IRQ==CONSOLE_IRQ){
 154              		.loc 1 151 9 is_stmt 1
 155 0090 9307A000 		li	a5,10
 156 0094 630AF524 		beq	a0,a5,.L29
 157              	.LVL11:
 158              	.L24:
 152:src/interruptHandler.cpp ****             _Console::getInstance().keyboardInterrupt();
 153:src/interruptHandler.cpp ****         }
 154:src/interruptHandler.cpp ****         plic_complete(IRQ);
 159              		.loc 1 154 9
 160              		.loc 1 154 22 is_stmt 0
 161 0098 13850400 		mv	a0,s1
 162 009c 97000000 		call	plic_complete
 162      E7800000 
 163              	.LVL12:
 155:src/interruptHandler.cpp **** 		Riscv::w_sepc(sepc);
 164              		.loc 1 155 3 is_stmt 1
 165              	.LBB51:
 166              	.LBB52:
  97:src/../h/Riscv.hpp **** }
 167              		.loc 2 97 5
  97:src/../h/Riscv.hpp **** }
 168              		.loc 2 97 65 is_stmt 0
 169              	 #APP
 170              	# 97 "src/../h/Riscv.hpp" 1
 171              		csrw sepc, s2
 172              	# 0 "" 2
 173              	.LVL13:
 174              	 #NO_APP
 175              	.LBE52:
 176              	.LBE51:
 156:src/interruptHandler.cpp ****         Riscv::w_sstatus(sstatus);
 177              		.loc 1 156 9 is_stmt 1
 178              	.LBB53:
 179              	.LBB54:
 112:src/../h/Riscv.hpp **** }
 113:src/../h/Riscv.hpp **** 
GAS LISTING /tmp/cc5stWrQ.s 			page 9


 114:src/../h/Riscv.hpp **** inline void Riscv::w_sstatus(uint64 sstatus) {
 115:src/../h/Riscv.hpp ****     __asm__ volatile("csrw sstatus, %[sstatus]" : : [sstatus] "r"(sstatus));
 180              		.loc 2 115 5
 181              		.loc 2 115 76 is_stmt 0
 182              	 #APP
 183              	# 115 "src/../h/Riscv.hpp" 1
 116              	}
 184              		csrw sstatus, s3
 185              	# 0 "" 2
 186              	.LVL14:
 187              	 #NO_APP
 188              	.LBE54:
 189              	.LBE53:
 190              	.LBE50:
 191              	.LBE49:
 192              	.LBE65:
 193              	.LBE90:
 157:src/interruptHandler.cpp **** 
 158:src/interruptHandler.cpp ****     }
 159:src/interruptHandler.cpp ****     else{
 160:src/interruptHandler.cpp ****         //Unexpected interrupt
 161:src/interruptHandler.cpp ****     }
 162:src/interruptHandler.cpp **** }
 194              		.loc 1 162 1
 195 00ac 6F00C004 		j	.L1
 196              	.LVL15:
 197              	.L27:
 198              	.LBB91:
 199              	.LBB66:
  45:src/interruptHandler.cpp ****             case 0x01:
 200              		.loc 1 45 9 is_stmt 1
 201 00b0 13072004 		li	a4,66
 202              	.LVL16:
 203 00b4 636CF702 		bgtu	a5,a4,.L3
 204 00b8 93972700 		slli	a5,a5,2
 205              	.LVL17:
 206 00bc 17070000 		lla	a4,.L5
 206      13070700 
 207 00c4 B387E700 		add	a5,a5,a4
 208 00c8 83A70700 		lw	a5,0(a5)
 209 00cc B387E700 		add	a5,a5,a4
 210 00d0 67800700 		jr	a5
 211              		.section	.rodata
 212              		.align	2
 213              		.align	2
 214              	.L5:
 215 0000 00000000 		.word	.L3-.L5
 216 0004 00000000 		.word	.L18-.L5
 217 0008 00000000 		.word	.L17-.L5
 218 000c 00000000 		.word	.L3-.L5
 219 0010 00000000 		.word	.L3-.L5
 220 0014 00000000 		.word	.L3-.L5
 221 0018 00000000 		.word	.L3-.L5
 222 001c 00000000 		.word	.L3-.L5
 223 0020 00000000 		.word	.L3-.L5
 224 0024 00000000 		.word	.L3-.L5
 225 0028 00000000 		.word	.L3-.L5
GAS LISTING /tmp/cc5stWrQ.s 			page 10


 226 002c 00000000 		.word	.L3-.L5
 227 0030 00000000 		.word	.L3-.L5
 228 0034 00000000 		.word	.L3-.L5
 229 0038 00000000 		.word	.L3-.L5
 230 003c 00000000 		.word	.L3-.L5
 231 0040 00000000 		.word	.L3-.L5
 232 0044 00000000 		.word	.L16-.L5
 233 0048 00000000 		.word	.L15-.L5
 234 004c 00000000 		.word	.L14-.L5
 235 0050 00000000 		.word	.L3-.L5
 236 0054 00000000 		.word	.L3-.L5
 237 0058 00000000 		.word	.L3-.L5
 238 005c 00000000 		.word	.L3-.L5
 239 0060 00000000 		.word	.L3-.L5
 240 0064 00000000 		.word	.L3-.L5
 241 0068 00000000 		.word	.L3-.L5
 242 006c 00000000 		.word	.L3-.L5
 243 0070 00000000 		.word	.L3-.L5
 244 0074 00000000 		.word	.L3-.L5
 245 0078 00000000 		.word	.L3-.L5
 246 007c 00000000 		.word	.L3-.L5
 247 0080 00000000 		.word	.L3-.L5
 248 0084 00000000 		.word	.L13-.L5
 249 0088 00000000 		.word	.L12-.L5
 250 008c 00000000 		.word	.L11-.L5
 251 0090 00000000 		.word	.L10-.L5
 252 0094 00000000 		.word	.L9-.L5
 253 0098 00000000 		.word	.L8-.L5
 254 009c 00000000 		.word	.L3-.L5
 255 00a0 00000000 		.word	.L3-.L5
 256 00a4 00000000 		.word	.L3-.L5
 257 00a8 00000000 		.word	.L3-.L5
 258 00ac 00000000 		.word	.L3-.L5
 259 00b0 00000000 		.word	.L3-.L5
 260 00b4 00000000 		.word	.L3-.L5
 261 00b8 00000000 		.word	.L3-.L5
 262 00bc 00000000 		.word	.L3-.L5
 263 00c0 00000000 		.word	.L3-.L5
 264 00c4 00000000 		.word	.L7-.L5
 265 00c8 00000000 		.word	.L3-.L5
 266 00cc 00000000 		.word	.L3-.L5
 267 00d0 00000000 		.word	.L3-.L5
 268 00d4 00000000 		.word	.L3-.L5
 269 00d8 00000000 		.word	.L3-.L5
 270 00dc 00000000 		.word	.L3-.L5
 271 00e0 00000000 		.word	.L3-.L5
 272 00e4 00000000 		.word	.L3-.L5
 273 00e8 00000000 		.word	.L3-.L5
 274 00ec 00000000 		.word	.L3-.L5
 275 00f0 00000000 		.word	.L3-.L5
 276 00f4 00000000 		.word	.L3-.L5
 277 00f8 00000000 		.word	.L3-.L5
 278 00fc 00000000 		.word	.L3-.L5
 279 0100 00000000 		.word	.L3-.L5
 280 0104 00000000 		.word	.L6-.L5
 281 0108 00000000 		.word	.L4-.L5
 282              		.text
GAS LISTING /tmp/cc5stWrQ.s 			page 11


 283              	.L18:
 284              	.LBB67:
 285              	.LBB68:
  46:src/interruptHandler.cpp ****                 size=a1;
 286              		.loc 1 46 13
  47:src/interruptHandler.cpp ****                 addr=MemoryAllocator::getInstance().memAlloc(size);
 287              		.loc 1 47 17
 288              	.LVL18:
  48:src/interruptHandler.cpp ****                 reg[10]=(uint64)addr;
 289              		.loc 1 48 17
  48:src/interruptHandler.cpp ****                 reg[10]=(uint64)addr;
 290              		.loc 1 48 51 is_stmt 0
 291 00d4 97000000 		call	_ZN15MemoryAllocator11getInstanceEv
 291      E7800000 
 292              	.LVL19:
  48:src/interruptHandler.cpp ****                 reg[10]=(uint64)addr;
 293              		.loc 1 48 61
 294 00dc 93050A00 		mv	a1,s4
 295 00e0 97000000 		call	_ZN15MemoryAllocator8memAllocEm
 295      E7800000 
 296              	.LVL20:
  49:src/interruptHandler.cpp ****                 break;
 297              		.loc 1 49 17 is_stmt 1
  49:src/interruptHandler.cpp ****                 break;
 298              		.loc 1 49 24 is_stmt 0
 299 00e8 23B8A404 		sd	a0,80(s1)
  50:src/interruptHandler.cpp ****             case 0x02:
 300              		.loc 1 50 17 is_stmt 1
 301              	.LVL21:
 302              	.L3:
 303              	.LBE68:
 304              	.LBE67:
 131:src/interruptHandler.cpp ****         Riscv::w_sstatus(sstatus);
 305              		.loc 1 131 3
 131:src/interruptHandler.cpp ****         Riscv::w_sstatus(sstatus);
 306              		.loc 1 131 16 is_stmt 0
 307 00ec 13094900 		addi	s2,s2,4
 308              	.LVL22:
 309              	.LBB82:
 310              	.LBB83:
  97:src/../h/Riscv.hpp **** }
 311              		.loc 2 97 5 is_stmt 1
  97:src/../h/Riscv.hpp **** }
 312              		.loc 2 97 65 is_stmt 0
 313              	 #APP
 314              	# 97 "src/../h/Riscv.hpp" 1
 315              		csrw sepc, s2
 316              	# 0 "" 2
 317              	.LVL23:
 318              	 #NO_APP
 319              	.LBE83:
 320              	.LBE82:
 132:src/interruptHandler.cpp **** 
 321              		.loc 1 132 9 is_stmt 1
 322              	.LBB84:
 323              	.LBB85:
 115:src/../h/Riscv.hpp **** }
GAS LISTING /tmp/cc5stWrQ.s 			page 12


 324              		.loc 2 115 5
 115:src/../h/Riscv.hpp **** }
 325              		.loc 2 115 76 is_stmt 0
 326              	 #APP
 327              	# 115 "src/../h/Riscv.hpp" 1
 328              		csrw sstatus, s3
 329              	# 0 "" 2
 330              	.LVL24:
 331              	 #NO_APP
 332              	.L1:
 333              	.LBE85:
 334              	.LBE84:
 335              	.LBE66:
 336              	.LBE91:
 337              		.loc 1 162 1
 338 00f8 83308104 		ld	ra,72(sp)
 339              		.cfi_remember_state
 340              		.cfi_restore 1
 341 00fc 03340104 		ld	s0,64(sp)
 342              		.cfi_restore 8
 343              		.cfi_def_cfa 2, 80
 344 0100 83348103 		ld	s1,56(sp)
 345              		.cfi_restore 9
 346 0104 03390103 		ld	s2,48(sp)
 347              		.cfi_restore 18
 348 0108 83398102 		ld	s3,40(sp)
 349              		.cfi_restore 19
 350              	.LVL25:
 351 010c 033A0102 		ld	s4,32(sp)
 352              		.cfi_restore 20
 353 0110 13010105 		addi	sp,sp,80
 354              		.cfi_def_cfa_offset 0
 355 0114 67800000 		jr	ra
 356              	.LVL26:
 357              	.L17:
 358              		.cfi_restore_state
 359              	.LBB92:
 360              	.LBB87:
 361              	.LBB86:
 362              	.LBB81:
  51:src/interruptHandler.cpp ****                 addr=(void*)a1;
 363              		.loc 1 51 13 is_stmt 1
  52:src/interruptHandler.cpp ****                 returnValue=MemoryAllocator::getInstance().free(addr);
 364              		.loc 1 52 17
  53:src/interruptHandler.cpp ****                 reg[10]=returnValue;
 365              		.loc 1 53 17
  53:src/interruptHandler.cpp ****                 reg[10]=returnValue;
 366              		.loc 1 53 58 is_stmt 0
 367 0118 97000000 		call	_ZN15MemoryAllocator11getInstanceEv
 367      E7800000 
 368              	.LVL27:
  53:src/interruptHandler.cpp ****                 reg[10]=returnValue;
 369              		.loc 1 53 64
 370 0120 93050A00 		mv	a1,s4
 371 0124 97000000 		call	_ZN15MemoryAllocator4freeEPv
 371      E7800000 
 372              	.LVL28:
GAS LISTING /tmp/cc5stWrQ.s 			page 13


  54:src/interruptHandler.cpp ****                 break;
 373              		.loc 1 54 17 is_stmt 1
  54:src/interruptHandler.cpp ****                 break;
 374              		.loc 1 54 24 is_stmt 0
 375 012c 23B8A404 		sd	a0,80(s1)
  55:src/interruptHandler.cpp ****             case 0x011:
 376              		.loc 1 55 17 is_stmt 1
 377 0130 6FF0DFFB 		j	.L3
 378              	.LVL29:
 379              	.L16:
  56:src/interruptHandler.cpp **** 				handle_thread=(thread_t*)a1;
 380              		.loc 1 56 13
  57:src/interruptHandler.cpp ****                 start_routine=(TCB::Body)a2;
 381              		.loc 1 57 5
  58:src/interruptHandler.cpp ****                 arg=(void*)a3;
 382              		.loc 1 58 17
  59:src/interruptHandler.cpp ****                 *handle_thread=(thread_t)TCB::create_thread(start_routine,arg,0);
 383              		.loc 1 59 17
  60:src/interruptHandler.cpp ****                 if(*handle_thread==nullptr) returnValue=-1;
 384              		.loc 1 60 17
  60:src/interruptHandler.cpp ****                 if(*handle_thread==nullptr) returnValue=-1;
 385              		.loc 1 60 60 is_stmt 0
 386 0134 13060000 		li	a2,0
 387              	.LVL30:
 388 0138 97000000 		call	_ZN3TCB13create_threadEPFvPvES0_b
 388      E7800000 
 389              	.LVL31:
  60:src/interruptHandler.cpp ****                 if(*handle_thread==nullptr) returnValue=-1;
 390              		.loc 1 60 31
 391 0140 2330AA00 		sd	a0,0(s4)
  61:src/interruptHandler.cpp ****                 else returnValue=0;
 392              		.loc 1 61 17 is_stmt 1
 393 0144 63080500 		beqz	a0,.L30
  62:src/interruptHandler.cpp ****                 reg[10]=returnValue;
 394              		.loc 1 62 33 is_stmt 0
 395 0148 93070000 		li	a5,0
 396              	.L19:
 397              	.LVL32:
  63:src/interruptHandler.cpp ****                 break;
 398              		.loc 1 63 17 is_stmt 1
  63:src/interruptHandler.cpp ****                 break;
 399              		.loc 1 63 24 is_stmt 0
 400 014c 23B8F404 		sd	a5,80(s1)
  64:src/interruptHandler.cpp ****             case 0x012:
 401              		.loc 1 64 17 is_stmt 1
 402 0150 6FF0DFF9 		j	.L3
 403              	.LVL33:
 404              	.L30:
  61:src/interruptHandler.cpp ****                 else returnValue=0;
 405              		.loc 1 61 56 is_stmt 0
 406 0154 9307F0FF 		li	a5,-1
 407 0158 6FF05FFF 		j	.L19
 408              	.LVL34:
 409              	.L15:
  65:src/interruptHandler.cpp ****                 returnValue=TCB::thread_exit();
 410              		.loc 1 65 13 is_stmt 1
  66:src/interruptHandler.cpp ****                 reg[10]=returnValue;
GAS LISTING /tmp/cc5stWrQ.s 			page 14


 411              		.loc 1 66 17
  66:src/interruptHandler.cpp ****                 reg[10]=returnValue;
 412              		.loc 1 66 45 is_stmt 0
 413 015c 97000000 		call	_ZN3TCB11thread_exitEv
 413      E7800000 
 414              	.LVL35:
  67:src/interruptHandler.cpp ****                 break;
 415              		.loc 1 67 17 is_stmt 1
  67:src/interruptHandler.cpp ****                 break;
 416              		.loc 1 67 24 is_stmt 0
 417 0164 23B8A404 		sd	a0,80(s1)
  68:src/interruptHandler.cpp ****             case 0x013:
 418              		.loc 1 68 17 is_stmt 1
 419 0168 6FF05FF8 		j	.L3
 420              	.LVL36:
 421              	.L14:
  69:src/interruptHandler.cpp ****                 TCB::timeSliceCounter=0;
 422              		.loc 1 69 13
  70:src/interruptHandler.cpp ****                 sepc+=4;
 423              		.loc 1 70 17
  70:src/interruptHandler.cpp ****                 sepc+=4;
 424              		.loc 1 70 38 is_stmt 0
 425 016c 97070000 		sd	zero,_ZN3TCB16timeSliceCounterE,a5
 425      23B00700 
  71:src/interruptHandler.cpp ****                 TCB::dispatch();
 426              		.loc 1 71 17 is_stmt 1
  71:src/interruptHandler.cpp ****                 TCB::dispatch();
 427              		.loc 1 71 21 is_stmt 0
 428 0174 93044900 		addi	s1,s2,4
 429              	.LVL37:
  72:src/interruptHandler.cpp ****                 Riscv::w_sepc(sepc+4);
 430              		.loc 1 72 17 is_stmt 1
  72:src/interruptHandler.cpp ****                 Riscv::w_sepc(sepc+4);
 431              		.loc 1 72 30 is_stmt 0
 432 0178 97000000 		call	_ZN3TCB8dispatchEv
 432      E7800000 
 433              	.LVL38:
  73:src/interruptHandler.cpp ****                 Riscv::w_sstatus(sstatus);
 434              		.loc 1 73 17 is_stmt 1
  73:src/interruptHandler.cpp ****                 Riscv::w_sstatus(sstatus);
 435              		.loc 1 73 30 is_stmt 0
 436 0180 13098900 		addi	s2,s2,8
 437              	.LVL39:
 438              	.LBB69:
 439              	.LBB70:
  97:src/../h/Riscv.hpp **** }
 440              		.loc 2 97 5 is_stmt 1
  97:src/../h/Riscv.hpp **** }
 441              		.loc 2 97 65 is_stmt 0
 442              	 #APP
 443              	# 97 "src/../h/Riscv.hpp" 1
 444              		csrw sepc, s2
 445              	# 0 "" 2
 446              	.LVL40:
 447              	 #NO_APP
 448              	.LBE70:
 449              	.LBE69:
GAS LISTING /tmp/cc5stWrQ.s 			page 15


  74:src/interruptHandler.cpp ****                 break;
 450              		.loc 1 74 17 is_stmt 1
 451              	.LBB71:
 452              	.LBB72:
 115:src/../h/Riscv.hpp **** }
 453              		.loc 2 115 5
 115:src/../h/Riscv.hpp **** }
 454              		.loc 2 115 76 is_stmt 0
 455              	 #APP
 456              	# 115 "src/../h/Riscv.hpp" 1
 457              		csrw sstatus, s3
 458              	# 0 "" 2
 459              	 #NO_APP
 460              	.LBE72:
 461              	.LBE71:
  71:src/interruptHandler.cpp ****                 TCB::dispatch();
 462              		.loc 1 71 21
 463 018c 13890400 		mv	s2,s1
 464              	.LBB74:
 465              	.LBB73:
 466              		.loc 2 116 1
 467 0190 6FF0DFF5 		j	.L3
 468              	.LVL41:
 469              	.L13:
 470              	.LBE73:
 471              	.LBE74:
  76:src/interruptHandler.cpp ****                 handle_sem=(sem_t*)a1;
 472              		.loc 1 76 13 is_stmt 1
  77:src/interruptHandler.cpp ****                 init=a2;
 473              		.loc 1 77 17
  78:src/interruptHandler.cpp ****                 *handle_sem=(sem_t)_Semaphore::create_semaphore(init);
 474              		.loc 1 78 17
  79:src/interruptHandler.cpp ****                 returnValue=1;
 475              		.loc 1 79 17
  79:src/interruptHandler.cpp ****                 returnValue=1;
 476              		.loc 1 79 64 is_stmt 0
 477 0194 97000000 		call	_ZN10_Semaphore16create_semaphoreEm
 477      E7800000 
 478              	.LVL42:
  79:src/interruptHandler.cpp ****                 returnValue=1;
 479              		.loc 1 79 28
 480 019c 2330AA00 		sd	a0,0(s4)
  80:src/interruptHandler.cpp ****                 reg[10]=returnValue;
 481              		.loc 1 80 17 is_stmt 1
 482              	.LVL43:
  81:src/interruptHandler.cpp ****                 break;
 483              		.loc 1 81 17
  81:src/interruptHandler.cpp ****                 break;
 484              		.loc 1 81 24 is_stmt 0
 485 01a0 93071000 		li	a5,1
 486 01a4 23B8F404 		sd	a5,80(s1)
  82:src/interruptHandler.cpp ****             case 0x022:
 487              		.loc 1 82 17 is_stmt 1
 488 01a8 6FF05FF4 		j	.L3
 489              	.LVL44:
 490              	.L12:
  83:src/interruptHandler.cpp ****                 handle_sem=(sem_t*)a1;
GAS LISTING /tmp/cc5stWrQ.s 			page 16


 491              		.loc 1 83 13
  84:src/interruptHandler.cpp ****                 sem=(_Semaphore*)handle_sem;
 492              		.loc 1 84 17
  85:src/interruptHandler.cpp ****                 returnValue=1;
 493              		.loc 1 85 17
  86:src/interruptHandler.cpp ****                 delete sem;
 494              		.loc 1 86 17
  87:src/interruptHandler.cpp ****                 reg[10]=returnValue;
 495              		.loc 1 87 17
  87:src/interruptHandler.cpp ****                 reg[10]=returnValue;
 496              		.loc 1 87 27 is_stmt 0
 497 01ac 63180A00 		bnez	s4,.L31
 498              	.LVL45:
 499              	.L20:
  88:src/interruptHandler.cpp ****                 break;
 500              		.loc 1 88 17 is_stmt 1
  88:src/interruptHandler.cpp ****                 break;
 501              		.loc 1 88 24 is_stmt 0
 502 01b0 93071000 		li	a5,1
 503 01b4 23B8F404 		sd	a5,80(s1)
  89:src/interruptHandler.cpp ****             case 0x023:
 504              		.loc 1 89 17 is_stmt 1
 505 01b8 6FF05FF3 		j	.L3
 506              	.LVL46:
 507              	.L31:
  87:src/interruptHandler.cpp ****                 reg[10]=returnValue;
 508              		.loc 1 87 24 is_stmt 0 discriminator 1
 509 01bc 13050A00 		mv	a0,s4
 510              	.LVL47:
 511 01c0 97000000 		call	_ZN10_SemaphoreD1Ev
 511      E7800000 
 512              	.LVL48:
 513              	.LBB75:
 514              	.LBB76:
 515              		.file 3 "src/../h/Semaphore.hpp"
   1:src/../h/Semaphore.hpp **** #ifndef SEMAPHORE_HPP
   2:src/../h/Semaphore.hpp **** #define SEMAPHORE_HPP
   3:src/../h/Semaphore.hpp **** 
   4:src/../h/Semaphore.hpp **** #include "List.hpp"
   5:src/../h/Semaphore.hpp **** #include "Scheduler.hpp"
   6:src/../h/Semaphore.hpp **** #include "../lib/hw.h"
   7:src/../h/Semaphore.hpp **** #include "../h/TCB.hpp"
   8:src/../h/Semaphore.hpp **** 
   9:src/../h/Semaphore.hpp **** class _Semaphore{
  10:src/../h/Semaphore.hpp **** public:
  11:src/../h/Semaphore.hpp ****     void* operator new(size_t n)   { return MemoryAllocator::getInstance().memAlloc(n); }
  12:src/../h/Semaphore.hpp ****     void  operator delete(void* p) { MemoryAllocator::getInstance().free(p); }
 516              		.loc 3 12 38 is_stmt 1 discriminator 1
 517              		.loc 3 12 67 is_stmt 0 discriminator 1
 518 01c8 97000000 		call	_ZN15MemoryAllocator11getInstanceEv
 518      E7800000 
 519              	.LVL49:
 520              		.loc 3 12 73 discriminator 1
 521 01d0 93050A00 		mv	a1,s4
 522 01d4 97000000 		call	_ZN15MemoryAllocator4freeEPv
 522      E7800000 
 523              	.LVL50:
GAS LISTING /tmp/cc5stWrQ.s 			page 17


 524              		.loc 3 12 78 discriminator 1
 525 01dc 6FF05FFD 		j	.L20
 526              	.LVL51:
 527              	.L11:
 528              	.LBE76:
 529              	.LBE75:
  90:src/interruptHandler.cpp ****                 id=(sem_t*)a1;
 530              		.loc 1 90 13 is_stmt 1
  91:src/interruptHandler.cpp ****                 sem=(_Semaphore*)id;
 531              		.loc 1 91 17
  92:src/interruptHandler.cpp ****                 sem->wait();
 532              		.loc 1 92 17
  93:src/interruptHandler.cpp ****                 break;
 533              		.loc 1 93 17
  93:src/interruptHandler.cpp ****                 break;
 534              		.loc 1 93 26 is_stmt 0
 535 01e0 13050A00 		mv	a0,s4
 536              	.LVL52:
 537 01e4 97000000 		call	_ZN10_Semaphore4waitEv
 537      E7800000 
 538              	.LVL53:
  94:src/interruptHandler.cpp ****             case 0x024:
 539              		.loc 1 94 17 is_stmt 1
 540 01ec 6FF01FF0 		j	.L3
 541              	.LVL54:
 542              	.L10:
  95:src/interruptHandler.cpp ****                 id=(sem_t*)a1;
 543              		.loc 1 95 13
  96:src/interruptHandler.cpp ****                 sem=(_Semaphore*)id;
 544              		.loc 1 96 17
  97:src/interruptHandler.cpp ****                 sem->signal();
 545              		.loc 1 97 17
  98:src/interruptHandler.cpp ****                 break;
 546              		.loc 1 98 17
  98:src/interruptHandler.cpp ****                 break;
 547              		.loc 1 98 28 is_stmt 0
 548 01f0 13050A00 		mv	a0,s4
 549              	.LVL55:
 550 01f4 97000000 		call	_ZN10_Semaphore6signalEv
 550      E7800000 
 551              	.LVL56:
  99:src/interruptHandler.cpp ****             case 0x025:
 552              		.loc 1 99 17 is_stmt 1
 553 01fc 6FF01FEF 		j	.L3
 554              	.LVL57:
 555              	.L9:
 100:src/interruptHandler.cpp ****                 id=(sem_t*)a1;
 556              		.loc 1 100 13
 101:src/interruptHandler.cpp ****                 n=a2;
 557              		.loc 1 101 17
 102:src/interruptHandler.cpp ****                 sem=(_Semaphore*)id;
 558              		.loc 1 102 17
 103:src/interruptHandler.cpp ****                 sem->wait_n(n);
 559              		.loc 1 103 17
 104:src/interruptHandler.cpp ****                 break;
 560              		.loc 1 104 17
 104:src/interruptHandler.cpp ****                 break;
GAS LISTING /tmp/cc5stWrQ.s 			page 18


 561              		.loc 1 104 28 is_stmt 0
 562 0200 93050500 		mv	a1,a0
 563              	.LVL58:
 564 0204 13050A00 		mv	a0,s4
 565              	.LVL59:
 566 0208 97000000 		call	_ZN10_Semaphore6wait_nEm
 566      E7800000 
 567              	.LVL60:
 105:src/interruptHandler.cpp ****             case 0x026:
 568              		.loc 1 105 17 is_stmt 1
 569 0210 6FF0DFED 		j	.L3
 570              	.LVL61:
 571              	.L8:
 106:src/interruptHandler.cpp ****                 id=(sem_t*)a1;
 572              		.loc 1 106 13
 107:src/interruptHandler.cpp ****                 n=a2;
 573              		.loc 1 107 17
 108:src/interruptHandler.cpp ****                 sem=(_Semaphore*)id;
 574              		.loc 1 108 17
 109:src/interruptHandler.cpp ****                 sem->signal_n(n);
 575              		.loc 1 109 17
 110:src/interruptHandler.cpp ****                 break;
 576              		.loc 1 110 17
 110:src/interruptHandler.cpp ****                 break;
 577              		.loc 1 110 30 is_stmt 0
 578 0214 93050500 		mv	a1,a0
 579              	.LVL62:
 580 0218 13050A00 		mv	a0,s4
 581              	.LVL63:
 582 021c 97000000 		call	_ZN10_Semaphore8signal_nEm
 582      E7800000 
 583              	.LVL64:
 111:src/interruptHandler.cpp ****             case 0x031:
 584              		.loc 1 111 17 is_stmt 1
 585 0224 6FF09FEC 		j	.L3
 586              	.LVL65:
 587              	.L7:
 112:src/interruptHandler.cpp ****                 time=(time_t)a1;
 588              		.loc 1 112 13
 113:src/interruptHandler.cpp ****                 TCB::time_sleep(time);
 589              		.loc 1 113 17
 114:src/interruptHandler.cpp ****                 sepc+=4;
 590              		.loc 1 114 17
 114:src/interruptHandler.cpp ****                 sepc+=4;
 591              		.loc 1 114 32 is_stmt 0
 592 0228 13050A00 		mv	a0,s4
 593              	.LVL66:
 594 022c 97000000 		call	_ZN3TCB10time_sleepEm
 594      E7800000 
 595              	.LVL67:
 115:src/interruptHandler.cpp ****                 //TCB::dispatch();
 596              		.loc 1 115 17 is_stmt 1
 115:src/interruptHandler.cpp ****                 //TCB::dispatch();
 597              		.loc 1 115 21 is_stmt 0
 598 0234 93074900 		addi	a5,s2,4
 599              	.LVL68:
 117:src/interruptHandler.cpp ****                 Riscv::w_sstatus(sstatus);
GAS LISTING /tmp/cc5stWrQ.s 			page 19


 600              		.loc 1 117 17 is_stmt 1
 117:src/interruptHandler.cpp ****                 Riscv::w_sstatus(sstatus);
 601              		.loc 1 117 30 is_stmt 0
 602 0238 13098900 		addi	s2,s2,8
 603              	.LVL69:
 604              	.LBB77:
 605              	.LBB78:
  97:src/../h/Riscv.hpp **** }
 606              		.loc 2 97 5 is_stmt 1
  97:src/../h/Riscv.hpp **** }
 607              		.loc 2 97 65 is_stmt 0
 608              	 #APP
 609              	# 97 "src/../h/Riscv.hpp" 1
 610              		csrw sepc, s2
 611              	# 0 "" 2
 612              	.LVL70:
 613              	 #NO_APP
 614              	.LBE78:
 615              	.LBE77:
 118:src/interruptHandler.cpp ****                 returnValue=1;
 616              		.loc 1 118 17 is_stmt 1
 617              	.LBB79:
 618              	.LBB80:
 115:src/../h/Riscv.hpp **** }
 619              		.loc 2 115 5
 115:src/../h/Riscv.hpp **** }
 620              		.loc 2 115 76 is_stmt 0
 621              	 #APP
 622              	# 115 "src/../h/Riscv.hpp" 1
 623              		csrw sstatus, s3
 624              	# 0 "" 2
 625              	.LVL71:
 626              	 #NO_APP
 627              	.LBE80:
 628              	.LBE79:
 119:src/interruptHandler.cpp ****                 reg[10]=returnValue;
 629              		.loc 1 119 17 is_stmt 1
 120:src/interruptHandler.cpp ****                 break;
 630              		.loc 1 120 17
 120:src/interruptHandler.cpp ****                 break;
 631              		.loc 1 120 24 is_stmt 0
 632 0244 13071000 		li	a4,1
 633 0248 23B8E404 		sd	a4,80(s1)
 121:src/interruptHandler.cpp ****             case 0x041:
 634              		.loc 1 121 17 is_stmt 1
 115:src/interruptHandler.cpp ****                 //TCB::dispatch();
 635              		.loc 1 115 21 is_stmt 0
 636 024c 13890700 		mv	s2,a5
 121:src/interruptHandler.cpp ****             case 0x041:
 637              		.loc 1 121 17
 638 0250 6FF0DFE9 		j	.L3
 639              	.LVL72:
 640              	.L6:
 122:src/interruptHandler.cpp ****                 returnValue=(uint64)_Console::getInstance().getc();
 641              		.loc 1 122 13 is_stmt 1
 123:src/interruptHandler.cpp ****                 reg[10]=returnValue;
 642              		.loc 1 123 17
GAS LISTING /tmp/cc5stWrQ.s 			page 20


 123:src/interruptHandler.cpp ****                 reg[10]=returnValue;
 643              		.loc 1 123 59 is_stmt 0
 644 0254 97000000 		call	_ZN8_Console11getInstanceEv
 644      E7800000 
 645              	.LVL73:
 123:src/interruptHandler.cpp ****                 reg[10]=returnValue;
 646              		.loc 1 123 65
 647 025c 97000000 		call	_ZN8_Console4getcEv
 647      E7800000 
 648              	.LVL74:
 124:src/interruptHandler.cpp ****                 break;
 649              		.loc 1 124 17 is_stmt 1
 124:src/interruptHandler.cpp ****                 break;
 650              		.loc 1 124 24 is_stmt 0
 651 0264 23B8A404 		sd	a0,80(s1)
 125:src/interruptHandler.cpp ****             case 0x042:
 652              		.loc 1 125 17 is_stmt 1
 653 0268 6FF05FE8 		j	.L3
 654              	.LVL75:
 655              	.L4:
 126:src/interruptHandler.cpp ****                 char c=(char)a1;
 656              		.loc 1 126 13
 127:src/interruptHandler.cpp ****                 _Console::getInstance().putc(c);
 657              		.loc 1 127 17
 127:src/interruptHandler.cpp ****                 _Console::getInstance().putc(c);
 658              		.loc 1 127 22 is_stmt 0
 659 026c 137AFA0F 		andi	s4,s4,0xff
 660              	.LVL76:
 128:src/interruptHandler.cpp ****                 break;
 661              		.loc 1 128 17 is_stmt 1
 128:src/interruptHandler.cpp ****                 break;
 662              		.loc 1 128 39 is_stmt 0
 663 0270 97000000 		call	_ZN8_Console11getInstanceEv
 663      E7800000 
 664              	.LVL77:
 128:src/interruptHandler.cpp ****                 break;
 665              		.loc 1 128 45
 666 0278 93050A00 		mv	a1,s4
 667 027c 97000000 		call	_ZN8_Console4putcEc
 667      E7800000 
 668              	.LVL78:
 129:src/interruptHandler.cpp ****         }
 669              		.loc 1 129 17 is_stmt 1
 670 0284 6FF09FE6 		j	.L3
 671              	.LVL79:
 672              	.L28:
 673              	.LBE81:
 674              	.LBE86:
 675              	.LBE87:
 676              	.LBB88:
 137:src/interruptHandler.cpp ****         TCB::timeSliceCounter++;
 677              		.loc 1 137 9
 678              	.LBB56:
 679              	.LBB57:
 117:src/../h/Riscv.hpp **** 
 118:src/../h/Riscv.hpp **** inline void Riscv::ms_sstatus(uint64 mask) {
 119:src/../h/Riscv.hpp ****     __asm__ volatile("csrs sstatus, %[mask]" : : [mask] "r"(mask));
GAS LISTING /tmp/cc5stWrQ.s 			page 21


 120:src/../h/Riscv.hpp **** }
 121:src/../h/Riscv.hpp **** 
 122:src/../h/Riscv.hpp **** inline void Riscv::mc_sstatus(uint64 mask) {
 123:src/../h/Riscv.hpp ****     __asm__ volatile("csrc sstatus, %[mask]" : : [mask] "r"(mask));
 124:src/../h/Riscv.hpp **** }
 125:src/../h/Riscv.hpp **** inline uint64 Riscv::r_sip() {
 126:src/../h/Riscv.hpp ****     uint64 volatile sip;
 127:src/../h/Riscv.hpp ****     __asm__ volatile("csrr %[sip], sip" : [sip] "=r"(sip));
 128:src/../h/Riscv.hpp ****     return sip;
 129:src/../h/Riscv.hpp **** }
 130:src/../h/Riscv.hpp **** 
 131:src/../h/Riscv.hpp **** inline void Riscv::w_sip(uint64 sip) {
 132:src/../h/Riscv.hpp ****     __asm__ volatile("csrw sip, %[sip]" : : [sip] "r"(sip));
 133:src/../h/Riscv.hpp **** }
 134:src/../h/Riscv.hpp **** 
 135:src/../h/Riscv.hpp **** inline void Riscv::ms_sip(uint64 mask) {
 136:src/../h/Riscv.hpp ****     __asm__ volatile("csrs sip, %[mask]" : : [mask] "r"(mask));
 137:src/../h/Riscv.hpp **** }
 138:src/../h/Riscv.hpp **** 
 139:src/../h/Riscv.hpp **** inline void Riscv::mc_sip(uint64 mask) {
 140:src/../h/Riscv.hpp ****     __asm__ volatile("csrc sip, %[mask]" : : [mask] "r"(mask));
 680              		.loc 2 140 5
 681              		.loc 2 140 63 is_stmt 0
 682 0288 93072000 		li	a5,2
 683              	 #APP
 684              	# 140 "src/../h/Riscv.hpp" 1
 141              	}
 685              		csrc sip, a5
 686              	# 0 "" 2
 687              	.LVL80:
 688              	 #NO_APP
 689              	.LBE57:
 690              	.LBE56:
 138:src/interruptHandler.cpp ****         Scheduler::getInstance().updateSleep();
 691              		.loc 1 138 9 is_stmt 1
 138:src/interruptHandler.cpp ****         Scheduler::getInstance().updateSleep();
 692              		.loc 1 138 30 is_stmt 0
 693 0290 97040000 		lla	s1,_ZN3TCB16timeSliceCounterE
 693      93840400 
 694              	.LVL81:
 695 0298 83B70400 		ld	a5,0(s1)
 696 029c 93871700 		addi	a5,a5,1
 697 02a0 23B0F400 		sd	a5,0(s1)
 139:src/interruptHandler.cpp ****         if(TCB::timeSliceCounter >= TCB::running->getTimeSlice()){
 698              		.loc 1 139 9 is_stmt 1
 139:src/interruptHandler.cpp ****         if(TCB::timeSliceCounter >= TCB::running->getTimeSlice()){
 699              		.loc 1 139 32 is_stmt 0
 700 02a4 97000000 		call	_ZN9Scheduler11getInstanceEv
 700      E7800000 
 701              	.LVL82:
 139:src/interruptHandler.cpp ****         if(TCB::timeSliceCounter >= TCB::running->getTimeSlice()){
 702              		.loc 1 139 46
 703 02ac 97000000 		call	_ZN9Scheduler11updateSleepEv
 703      E7800000 
 704              	.LVL83:
 140:src/interruptHandler.cpp ****             TCB::timeSliceCounter=0;
 705              		.loc 1 140 9 is_stmt 1
GAS LISTING /tmp/cc5stWrQ.s 			page 22


 140:src/interruptHandler.cpp ****             TCB::timeSliceCounter=0;
 706              		.loc 1 140 63 is_stmt 0
 707 02b4 97070000 		ld	a5,_ZN3TCB7runningE
 707      83B70700 
 708              	.LVL84:
 709              	.LBB58:
 710              	.LBB59:
 711              		.file 4 "src/../h/TCB.hpp"
   1:src/../h/TCB.hpp **** #ifndef TCB_HPP
   2:src/../h/TCB.hpp **** #define TCB_HPP
   3:src/../h/TCB.hpp **** 
   4:src/../h/TCB.hpp **** #include "../lib/hw.h"
   5:src/../h/TCB.hpp **** #include "../h/MemoryAllocator.hpp"
   6:src/../h/TCB.hpp **** class Scheduler;
   7:src/../h/TCB.hpp **** 
   8:src/../h/TCB.hpp **** class TCB{
   9:src/../h/TCB.hpp **** public:
  10:src/../h/TCB.hpp ****     ~TCB(){ MemoryAllocator::getInstance().free(stack); }
  11:src/../h/TCB.hpp ****     using Body = void (*)(void *);
  12:src/../h/TCB.hpp ****     static TCB *create_thread(Body body,void* args,bool kernelThread);
  13:src/../h/TCB.hpp ****     uint64 getTimeSlice() const{ return timeSlice;}
 712              		.loc 4 13 34 is_stmt 1
 713              		.loc 4 13 41 is_stmt 0
 714 02bc 83B70703 		ld	a5,48(a5)
 715              	.LVL85:
 716              	.LBE59:
 717              	.LBE58:
 140:src/interruptHandler.cpp ****             TCB::timeSliceCounter=0;
 718              		.loc 1 140 34
 719 02c0 03B70400 		ld	a4,0(s1)
 140:src/interruptHandler.cpp ****             TCB::timeSliceCounter=0;
 720              		.loc 1 140 9
 721 02c4 6378F700 		bgeu	a4,a5,.L32
 722              	.L23:
 144:src/interruptHandler.cpp ****         Riscv::w_sstatus(sstatus);
 723              		.loc 1 144 3 is_stmt 1
 724              	.LVL86:
 725              	.LBB60:
 726              	.LBB61:
  97:src/../h/Riscv.hpp **** }
 727              		.loc 2 97 5
  97:src/../h/Riscv.hpp **** }
 728              		.loc 2 97 65 is_stmt 0
 729              	 #APP
 730              	# 97 "src/../h/Riscv.hpp" 1
 731              		csrw sepc, s2
 732              	# 0 "" 2
 733              	.LVL87:
 734              	 #NO_APP
 735              	.LBE61:
 736              	.LBE60:
 145:src/interruptHandler.cpp **** 
 737              		.loc 1 145 9 is_stmt 1
 738              	.LBB62:
 739              	.LBB63:
 115:src/../h/Riscv.hpp **** }
 740              		.loc 2 115 5
GAS LISTING /tmp/cc5stWrQ.s 			page 23


 115:src/../h/Riscv.hpp **** }
 741              		.loc 2 115 76 is_stmt 0
 742              	 #APP
 743              	# 115 "src/../h/Riscv.hpp" 1
 116:src/../h/Riscv.hpp **** 
 744              		csrw sstatus, s3
 745              	# 0 "" 2
 746              		.loc 2 116 1
 747              	 #NO_APP
 748 02d0 6FF09FE2 		j	.L1
 749              	.LVL88:
 750              	.L32:
 751              	.LBE63:
 752              	.LBE62:
 141:src/interruptHandler.cpp ****             TCB::dispatch();
 753              		.loc 1 141 13 is_stmt 1
 141:src/interruptHandler.cpp ****             TCB::dispatch();
 754              		.loc 1 141 34 is_stmt 0
 755 02d4 97070000 		sd	zero,_ZN3TCB16timeSliceCounterE,a5
 755      23B00700 
 142:src/interruptHandler.cpp ****         }
 756              		.loc 1 142 13 is_stmt 1
 142:src/interruptHandler.cpp ****         }
 757              		.loc 1 142 26 is_stmt 0
 758 02dc 97000000 		call	_ZN3TCB8dispatchEv
 758      E7800000 
 759              	.LVL89:
 760 02e4 6FF05FFE 		j	.L23
 761              	.LVL90:
 762              	.L29:
 763              	.LBB64:
 764              	.LBB55:
 152:src/interruptHandler.cpp ****         }
 765              		.loc 1 152 13 is_stmt 1
 152:src/interruptHandler.cpp ****         }
 766              		.loc 1 152 35 is_stmt 0
 767 02e8 97000000 		call	_ZN8_Console11getInstanceEv
 767      E7800000 
 768              	.LVL91:
 152:src/interruptHandler.cpp ****         }
 769              		.loc 1 152 54
 770 02f0 97000000 		call	_ZN8_Console17keyboardInterruptEv
 770      E7800000 
 771              	.LVL92:
 772 02f8 6FF01FDA 		j	.L24
 773              	.LBE55:
 774              	.LBE64:
 775              	.LBE88:
 776              	.LBE92:
 777              		.cfi_endproc
 778              	.LFE65:
 780              	.Letext0:
 781              		.file 5 "src/../lib/hw.h"
 782              		.file 6 "src/../h/MemoryAllocator.hpp"
 783              		.file 7 "src/../h/List.hpp"
 784              		.file 8 "src/../h/PriorityQueue.hpp"
 785              		.file 9 "src/../h/Scheduler.hpp"
GAS LISTING /tmp/cc5stWrQ.s 			page 24


 786              		.file 10 "src/../h/../h/BoundedBuffer.hpp"
 787              		.file 11 "src/../h/Console.hpp"
GAS LISTING /tmp/cc5stWrQ.s 			page 25


DEFINED SYMBOLS
                            *ABS*:0000000000000000 interruptHandler.cpp
     /tmp/cc5stWrQ.s:12     .text:0000000000000000 interruptHandler
     /tmp/cc5stWrQ.s:16     .text:0000000000000000 .L0 
     /tmp/cc5stWrQ.s:18     .text:0000000000000000 .L0 
     /tmp/cc5stWrQ.s:19     .text:0000000000000004 .L0 
     /tmp/cc5stWrQ.s:26     .text:000000000000001c .L0 
     /tmp/cc5stWrQ.s:27     .text:000000000000001c .L0 
     /tmp/cc5stWrQ.s:28     .text:000000000000001c .L0 
     /tmp/cc5stWrQ.s:29     .text:000000000000001c .L0 
     /tmp/cc5stWrQ.s:30     .text:000000000000001c .L0 
     /tmp/cc5stWrQ.s:31     .text:000000000000001c .L0 
     /tmp/cc5stWrQ.s:33     .text:0000000000000020 .L0 
     /tmp/cc5stWrQ.s:36     .text:0000000000000024 .L0 
     /tmp/cc5stWrQ.s:37     .text:0000000000000024 .L0 
     /tmp/cc5stWrQ.s:40     .text:0000000000000028 .L0 
     /tmp/cc5stWrQ.s:41     .text:0000000000000028 .L0 
     /tmp/cc5stWrQ.s:44     .text:000000000000002c .L0 
     /tmp/cc5stWrQ.s:45     .text:000000000000002c .L0 
     /tmp/cc5stWrQ.s:48     .text:0000000000000030 .L0 
     /tmp/cc5stWrQ.s:49     .text:0000000000000030 .L0 
     /tmp/cc5stWrQ.s:52     .text:0000000000000034 .L0 
     /tmp/cc5stWrQ.s:53     .text:0000000000000034 .L0 
     /tmp/cc5stWrQ.s:54     .text:0000000000000034 .L0 
     /tmp/cc5stWrQ.s:55     .text:0000000000000034 .L0 
     /tmp/cc5stWrQ.s:56     .text:0000000000000034 .L0 
     /tmp/cc5stWrQ.s:57     .text:0000000000000034 .L0 
     /tmp/cc5stWrQ.s:58     .text:0000000000000034 .L0 
     /tmp/cc5stWrQ.s:59     .text:0000000000000034 .L0 
     /tmp/cc5stWrQ.s:60     .text:0000000000000034 .L0 
     /tmp/cc5stWrQ.s:61     .text:0000000000000034 .L0 
     /tmp/cc5stWrQ.s:62     .text:0000000000000034 .L0 
     /tmp/cc5stWrQ.s:63     .text:0000000000000034 .L0 
     /tmp/cc5stWrQ.s:64     .text:0000000000000034 .L0 
     /tmp/cc5stWrQ.s:65     .text:0000000000000034 .L0 
     /tmp/cc5stWrQ.s:66     .text:0000000000000034 .L0 
     /tmp/cc5stWrQ.s:70     .text:0000000000000034 .L0 
     /tmp/cc5stWrQ.s:71     .text:0000000000000034 .L0 
     /tmp/cc5stWrQ.s:72     .text:0000000000000034 .L0 
  src/../h/Riscv.hpp:76     .text:0000000000000034 .L0 
     /tmp/cc5stWrQ.s:80     .text:000000000000003c .L0 
     /tmp/cc5stWrQ.s:81     .text:000000000000003c .L0 
     /tmp/cc5stWrQ.s:88     .text:0000000000000040 .L0 
     /tmp/cc5stWrQ.s:89     .text:0000000000000040 .L0 
     /tmp/cc5stWrQ.s:90     .text:0000000000000040 .L0 
  src/../h/Riscv.hpp:110    .text:0000000000000040 .L0 
     /tmp/cc5stWrQ.s:98     .text:0000000000000048 .L0 
     /tmp/cc5stWrQ.s:99     .text:0000000000000048 .L0 
     /tmp/cc5stWrQ.s:106    .text:000000000000004c .L0 
     /tmp/cc5stWrQ.s:107    .text:000000000000004c .L0 
     /tmp/cc5stWrQ.s:108    .text:000000000000004c .L0 
  src/../h/Riscv.hpp:70     .text:000000000000004c .L0 
     /tmp/cc5stWrQ.s:116    .text:0000000000000054 .L0 
     /tmp/cc5stWrQ.s:117    .text:0000000000000054 .L0 
     /tmp/cc5stWrQ.s:123    .text:0000000000000058 .L0 
     /tmp/cc5stWrQ.s:124    .text:0000000000000058 .L0 
     /tmp/cc5stWrQ.s:126    .text:000000000000005c .L0 
GAS LISTING /tmp/cc5stWrQ.s 			page 26


     /tmp/cc5stWrQ.s:132    .text:0000000000000064 .L0 
     /tmp/cc5stWrQ.s:143    .text:0000000000000074 .L0 
     /tmp/cc5stWrQ.s:149    .text:0000000000000084 .L0 
     /tmp/cc5stWrQ.s:150    .text:0000000000000084 .L0 
     /tmp/cc5stWrQ.s:155    .text:0000000000000090 .L0 
     /tmp/cc5stWrQ.s:160    .text:0000000000000098 .L0 
     /tmp/cc5stWrQ.s:161    .text:0000000000000098 .L0 
     /tmp/cc5stWrQ.s:167    .text:00000000000000a4 .L0 
     /tmp/cc5stWrQ.s:168    .text:00000000000000a4 .L0 
  src/../h/Riscv.hpp:97     .text:00000000000000a4 .L0 
     /tmp/cc5stWrQ.s:180    .text:00000000000000a8 .L0 
     /tmp/cc5stWrQ.s:181    .text:00000000000000a8 .L0 
  src/../h/Riscv.hpp:115    .text:00000000000000a8 .L0 
     /tmp/cc5stWrQ.s:195    .text:00000000000000ac .L0 
     /tmp/cc5stWrQ.s:201    .text:00000000000000b0 .L0 
     /tmp/cc5stWrQ.s:287    .text:00000000000000d4 .L0 
     /tmp/cc5stWrQ.s:289    .text:00000000000000d4 .L0 
     /tmp/cc5stWrQ.s:290    .text:00000000000000d4 .L0 
     /tmp/cc5stWrQ.s:291    .text:00000000000000d4 .L0 
     /tmp/cc5stWrQ.s:294    .text:00000000000000dc .L0 
     /tmp/cc5stWrQ.s:298    .text:00000000000000e8 .L0 
     /tmp/cc5stWrQ.s:299    .text:00000000000000e8 .L0 
     /tmp/cc5stWrQ.s:305    .text:00000000000000ec .L0 
     /tmp/cc5stWrQ.s:306    .text:00000000000000ec .L0 
     /tmp/cc5stWrQ.s:307    .text:00000000000000ec .L0 
     /tmp/cc5stWrQ.s:312    .text:00000000000000f0 .L0 
  src/../h/Riscv.hpp:97     .text:00000000000000f0 .L0 
     /tmp/cc5stWrQ.s:324    .text:00000000000000f4 .L0 
     /tmp/cc5stWrQ.s:325    .text:00000000000000f4 .L0 
  src/../h/Riscv.hpp:115    .text:00000000000000f4 .L0 
     /tmp/cc5stWrQ.s:338    .text:00000000000000f8 .L0 
     /tmp/cc5stWrQ.s:339    .text:00000000000000fc .L0 
     /tmp/cc5stWrQ.s:340    .text:00000000000000fc .L0 
     /tmp/cc5stWrQ.s:342    .text:0000000000000100 .L0 
     /tmp/cc5stWrQ.s:343    .text:0000000000000100 .L0 
     /tmp/cc5stWrQ.s:345    .text:0000000000000104 .L0 
     /tmp/cc5stWrQ.s:347    .text:0000000000000108 .L0 
     /tmp/cc5stWrQ.s:349    .text:000000000000010c .L0 
     /tmp/cc5stWrQ.s:352    .text:0000000000000110 .L0 
     /tmp/cc5stWrQ.s:354    .text:0000000000000114 .L0 
     /tmp/cc5stWrQ.s:358    .text:0000000000000118 .L0 
     /tmp/cc5stWrQ.s:364    .text:0000000000000118 .L0 
     /tmp/cc5stWrQ.s:365    .text:0000000000000118 .L0 
     /tmp/cc5stWrQ.s:366    .text:0000000000000118 .L0 
     /tmp/cc5stWrQ.s:367    .text:0000000000000118 .L0 
     /tmp/cc5stWrQ.s:370    .text:0000000000000120 .L0 
     /tmp/cc5stWrQ.s:374    .text:000000000000012c .L0 
     /tmp/cc5stWrQ.s:375    .text:000000000000012c .L0 
     /tmp/cc5stWrQ.s:377    .text:0000000000000130 .L0 
     /tmp/cc5stWrQ.s:381    .text:0000000000000134 .L0 
     /tmp/cc5stWrQ.s:382    .text:0000000000000134 .L0 
     /tmp/cc5stWrQ.s:383    .text:0000000000000134 .L0 
     /tmp/cc5stWrQ.s:384    .text:0000000000000134 .L0 
     /tmp/cc5stWrQ.s:385    .text:0000000000000134 .L0 
     /tmp/cc5stWrQ.s:386    .text:0000000000000134 .L0 
     /tmp/cc5stWrQ.s:391    .text:0000000000000140 .L0 
     /tmp/cc5stWrQ.s:393    .text:0000000000000144 .L0 
GAS LISTING /tmp/cc5stWrQ.s 			page 27


     /tmp/cc5stWrQ.s:395    .text:0000000000000148 .L0 
     /tmp/cc5stWrQ.s:399    .text:000000000000014c .L0 
     /tmp/cc5stWrQ.s:400    .text:000000000000014c .L0 
     /tmp/cc5stWrQ.s:402    .text:0000000000000150 .L0 
     /tmp/cc5stWrQ.s:406    .text:0000000000000154 .L0 
     /tmp/cc5stWrQ.s:411    .text:000000000000015c .L0 
     /tmp/cc5stWrQ.s:412    .text:000000000000015c .L0 
     /tmp/cc5stWrQ.s:413    .text:000000000000015c .L0 
     /tmp/cc5stWrQ.s:416    .text:0000000000000164 .L0 
     /tmp/cc5stWrQ.s:417    .text:0000000000000164 .L0 
     /tmp/cc5stWrQ.s:419    .text:0000000000000168 .L0 
     /tmp/cc5stWrQ.s:423    .text:000000000000016c .L0 
     /tmp/cc5stWrQ.s:424    .text:000000000000016c .L0 
     /tmp/cc5stWrQ.s:425    .text:000000000000016c .L0 
     /tmp/cc5stWrQ.s:427    .text:0000000000000174 .L0 
     /tmp/cc5stWrQ.s:428    .text:0000000000000174 .L0 
     /tmp/cc5stWrQ.s:431    .text:0000000000000178 .L0 
     /tmp/cc5stWrQ.s:432    .text:0000000000000178 .L0 
     /tmp/cc5stWrQ.s:435    .text:0000000000000180 .L0 
     /tmp/cc5stWrQ.s:436    .text:0000000000000180 .L0 
     /tmp/cc5stWrQ.s:441    .text:0000000000000184 .L0 
  src/../h/Riscv.hpp:97     .text:0000000000000184 .L0 
     /tmp/cc5stWrQ.s:453    .text:0000000000000188 .L0 
     /tmp/cc5stWrQ.s:454    .text:0000000000000188 .L0 
  src/../h/Riscv.hpp:115    .text:0000000000000188 .L0 
     /tmp/cc5stWrQ.s:463    .text:000000000000018c .L0 
     /tmp/cc5stWrQ.s:467    .text:0000000000000190 .L0 
     /tmp/cc5stWrQ.s:473    .text:0000000000000194 .L0 
     /tmp/cc5stWrQ.s:474    .text:0000000000000194 .L0 
     /tmp/cc5stWrQ.s:475    .text:0000000000000194 .L0 
     /tmp/cc5stWrQ.s:476    .text:0000000000000194 .L0 
     /tmp/cc5stWrQ.s:477    .text:0000000000000194 .L0 
     /tmp/cc5stWrQ.s:480    .text:000000000000019c .L0 
     /tmp/cc5stWrQ.s:483    .text:00000000000001a0 .L0 
     /tmp/cc5stWrQ.s:484    .text:00000000000001a0 .L0 
     /tmp/cc5stWrQ.s:485    .text:00000000000001a0 .L0 
     /tmp/cc5stWrQ.s:488    .text:00000000000001a8 .L0 
     /tmp/cc5stWrQ.s:492    .text:00000000000001ac .L0 
     /tmp/cc5stWrQ.s:493    .text:00000000000001ac .L0 
     /tmp/cc5stWrQ.s:494    .text:00000000000001ac .L0 
     /tmp/cc5stWrQ.s:495    .text:00000000000001ac .L0 
     /tmp/cc5stWrQ.s:496    .text:00000000000001ac .L0 
     /tmp/cc5stWrQ.s:497    .text:00000000000001ac .L0 
     /tmp/cc5stWrQ.s:501    .text:00000000000001b0 .L0 
     /tmp/cc5stWrQ.s:502    .text:00000000000001b0 .L0 
     /tmp/cc5stWrQ.s:505    .text:00000000000001b8 .L0 
     /tmp/cc5stWrQ.s:509    .text:00000000000001bc .L0 
     /tmp/cc5stWrQ.s:517    .text:00000000000001c8 .L0 
     /tmp/cc5stWrQ.s:518    .text:00000000000001c8 .L0 
     /tmp/cc5stWrQ.s:521    .text:00000000000001d0 .L0 
     /tmp/cc5stWrQ.s:525    .text:00000000000001dc .L0 
     /tmp/cc5stWrQ.s:531    .text:00000000000001e0 .L0 
     /tmp/cc5stWrQ.s:532    .text:00000000000001e0 .L0 
     /tmp/cc5stWrQ.s:533    .text:00000000000001e0 .L0 
     /tmp/cc5stWrQ.s:534    .text:00000000000001e0 .L0 
     /tmp/cc5stWrQ.s:535    .text:00000000000001e0 .L0 
     /tmp/cc5stWrQ.s:540    .text:00000000000001ec .L0 
GAS LISTING /tmp/cc5stWrQ.s 			page 28


     /tmp/cc5stWrQ.s:544    .text:00000000000001f0 .L0 
     /tmp/cc5stWrQ.s:545    .text:00000000000001f0 .L0 
     /tmp/cc5stWrQ.s:546    .text:00000000000001f0 .L0 
     /tmp/cc5stWrQ.s:547    .text:00000000000001f0 .L0 
     /tmp/cc5stWrQ.s:548    .text:00000000000001f0 .L0 
     /tmp/cc5stWrQ.s:553    .text:00000000000001fc .L0 
     /tmp/cc5stWrQ.s:557    .text:0000000000000200 .L0 
     /tmp/cc5stWrQ.s:558    .text:0000000000000200 .L0 
     /tmp/cc5stWrQ.s:559    .text:0000000000000200 .L0 
     /tmp/cc5stWrQ.s:560    .text:0000000000000200 .L0 
     /tmp/cc5stWrQ.s:561    .text:0000000000000200 .L0 
     /tmp/cc5stWrQ.s:562    .text:0000000000000200 .L0 
     /tmp/cc5stWrQ.s:569    .text:0000000000000210 .L0 
     /tmp/cc5stWrQ.s:573    .text:0000000000000214 .L0 
     /tmp/cc5stWrQ.s:574    .text:0000000000000214 .L0 
     /tmp/cc5stWrQ.s:575    .text:0000000000000214 .L0 
     /tmp/cc5stWrQ.s:576    .text:0000000000000214 .L0 
     /tmp/cc5stWrQ.s:577    .text:0000000000000214 .L0 
     /tmp/cc5stWrQ.s:578    .text:0000000000000214 .L0 
     /tmp/cc5stWrQ.s:585    .text:0000000000000224 .L0 
     /tmp/cc5stWrQ.s:589    .text:0000000000000228 .L0 
     /tmp/cc5stWrQ.s:590    .text:0000000000000228 .L0 
     /tmp/cc5stWrQ.s:591    .text:0000000000000228 .L0 
     /tmp/cc5stWrQ.s:592    .text:0000000000000228 .L0 
     /tmp/cc5stWrQ.s:597    .text:0000000000000234 .L0 
     /tmp/cc5stWrQ.s:598    .text:0000000000000234 .L0 
     /tmp/cc5stWrQ.s:601    .text:0000000000000238 .L0 
     /tmp/cc5stWrQ.s:602    .text:0000000000000238 .L0 
     /tmp/cc5stWrQ.s:607    .text:000000000000023c .L0 
  src/../h/Riscv.hpp:97     .text:000000000000023c .L0 
     /tmp/cc5stWrQ.s:619    .text:0000000000000240 .L0 
     /tmp/cc5stWrQ.s:620    .text:0000000000000240 .L0 
  src/../h/Riscv.hpp:115    .text:0000000000000240 .L0 
     /tmp/cc5stWrQ.s:630    .text:0000000000000244 .L0 
     /tmp/cc5stWrQ.s:631    .text:0000000000000244 .L0 
     /tmp/cc5stWrQ.s:632    .text:0000000000000244 .L0 
     /tmp/cc5stWrQ.s:635    .text:000000000000024c .L0 
     /tmp/cc5stWrQ.s:636    .text:000000000000024c .L0 
     /tmp/cc5stWrQ.s:638    .text:0000000000000250 .L0 
     /tmp/cc5stWrQ.s:642    .text:0000000000000254 .L0 
     /tmp/cc5stWrQ.s:643    .text:0000000000000254 .L0 
     /tmp/cc5stWrQ.s:644    .text:0000000000000254 .L0 
     /tmp/cc5stWrQ.s:647    .text:000000000000025c .L0 
     /tmp/cc5stWrQ.s:650    .text:0000000000000264 .L0 
     /tmp/cc5stWrQ.s:651    .text:0000000000000264 .L0 
     /tmp/cc5stWrQ.s:653    .text:0000000000000268 .L0 
     /tmp/cc5stWrQ.s:657    .text:000000000000026c .L0 
     /tmp/cc5stWrQ.s:658    .text:000000000000026c .L0 
     /tmp/cc5stWrQ.s:659    .text:000000000000026c .L0 
     /tmp/cc5stWrQ.s:662    .text:0000000000000270 .L0 
     /tmp/cc5stWrQ.s:663    .text:0000000000000270 .L0 
     /tmp/cc5stWrQ.s:666    .text:0000000000000278 .L0 
     /tmp/cc5stWrQ.s:670    .text:0000000000000284 .L0 
     /tmp/cc5stWrQ.s:680    .text:0000000000000288 .L0 
     /tmp/cc5stWrQ.s:681    .text:0000000000000288 .L0 
     /tmp/cc5stWrQ.s:682    .text:0000000000000288 .L0 
     /tmp/cc5stWrQ.s:692    .text:0000000000000290 .L0 
GAS LISTING /tmp/cc5stWrQ.s 			page 29


     /tmp/cc5stWrQ.s:693    .text:0000000000000290 .L0 
     /tmp/cc5stWrQ.s:699    .text:00000000000002a4 .L0 
     /tmp/cc5stWrQ.s:700    .text:00000000000002a4 .L0 
     /tmp/cc5stWrQ.s:703    .text:00000000000002ac .L0 
     /tmp/cc5stWrQ.s:706    .text:00000000000002b4 .L0 
     /tmp/cc5stWrQ.s:707    .text:00000000000002b4 .L0 
     /tmp/cc5stWrQ.s:713    .text:00000000000002bc .L0 
     /tmp/cc5stWrQ.s:714    .text:00000000000002bc .L0 
     /tmp/cc5stWrQ.s:719    .text:00000000000002c0 .L0 
     /tmp/cc5stWrQ.s:721    .text:00000000000002c4 .L0 
     /tmp/cc5stWrQ.s:727    .text:00000000000002c8 .L0 
     /tmp/cc5stWrQ.s:728    .text:00000000000002c8 .L0 
  src/../h/Riscv.hpp:97     .text:00000000000002c8 .L0 
     /tmp/cc5stWrQ.s:740    .text:00000000000002cc .L0 
     /tmp/cc5stWrQ.s:741    .text:00000000000002cc .L0 
  src/../h/Riscv.hpp:115    .text:00000000000002cc .L0 
     /tmp/cc5stWrQ.s:748    .text:00000000000002d0 .L0 
     /tmp/cc5stWrQ.s:754    .text:00000000000002d4 .L0 
     /tmp/cc5stWrQ.s:755    .text:00000000000002d4 .L0 
     /tmp/cc5stWrQ.s:757    .text:00000000000002dc .L0 
     /tmp/cc5stWrQ.s:758    .text:00000000000002dc .L0 
     /tmp/cc5stWrQ.s:766    .text:00000000000002e8 .L0 
     /tmp/cc5stWrQ.s:767    .text:00000000000002e8 .L0 
     /tmp/cc5stWrQ.s:770    .text:00000000000002f0 .L0 
     /tmp/cc5stWrQ.s:777    .text:00000000000002fc .L0 
     /tmp/cc5stWrQ.s:788    .text:00000000000002fc .L0 
     /tmp/cc5stWrQ.s:214    .rodata:0000000000000000 .L5
     /tmp/cc5stWrQ.s:206    .text:00000000000000bc .L0 
     /tmp/cc5stWrQ.s:425    .text:000000000000016c .L0 
     /tmp/cc5stWrQ.s:693    .text:0000000000000290 .L0 
     /tmp/cc5stWrQ.s:707    .text:00000000000002b4 .L0 
     /tmp/cc5stWrQ.s:755    .text:00000000000002d4 .L0 
     /tmp/cc5stWrQ.s:197    .text:00000000000000b0 .L27
     /tmp/cc5stWrQ.s:672    .text:0000000000000288 .L28
     /tmp/cc5stWrQ.s:332    .text:00000000000000f8 .L1
     /tmp/cc5stWrQ.s:762    .text:00000000000002e8 .L29
     /tmp/cc5stWrQ.s:302    .text:00000000000000ec .L3
     /tmp/cc5stWrQ.s:404    .text:0000000000000154 .L30
     /tmp/cc5stWrQ.s:396    .text:000000000000014c .L19
     /tmp/cc5stWrQ.s:507    .text:00000000000001bc .L31
     /tmp/cc5stWrQ.s:499    .text:00000000000001b0 .L20
     /tmp/cc5stWrQ.s:750    .text:00000000000002d4 .L32
     /tmp/cc5stWrQ.s:722    .text:00000000000002c8 .L23
     /tmp/cc5stWrQ.s:158    .text:0000000000000098 .L24
     /tmp/cc5stWrQ.s:283    .text:00000000000000d4 .L18
     /tmp/cc5stWrQ.s:357    .text:0000000000000118 .L17
     /tmp/cc5stWrQ.s:379    .text:0000000000000134 .L16
     /tmp/cc5stWrQ.s:409    .text:000000000000015c .L15
     /tmp/cc5stWrQ.s:421    .text:000000000000016c .L14
     /tmp/cc5stWrQ.s:469    .text:0000000000000194 .L13
     /tmp/cc5stWrQ.s:490    .text:00000000000001ac .L12
     /tmp/cc5stWrQ.s:527    .text:00000000000001e0 .L11
     /tmp/cc5stWrQ.s:542    .text:00000000000001f0 .L10
     /tmp/cc5stWrQ.s:555    .text:0000000000000200 .L9
     /tmp/cc5stWrQ.s:571    .text:0000000000000214 .L8
     /tmp/cc5stWrQ.s:587    .text:0000000000000228 .L7
     /tmp/cc5stWrQ.s:640    .text:0000000000000254 .L6
GAS LISTING /tmp/cc5stWrQ.s 			page 30


     /tmp/cc5stWrQ.s:655    .text:000000000000026c .L4
     /tmp/cc5stWrQ.s:3293   .debug_abbrev:0000000000000000 .Ldebug_abbrev0
     /tmp/cc5stWrQ.s:5704   .debug_str:0000000000000d56 .LASF267
     /tmp/cc5stWrQ.s:5656   .debug_str:0000000000000bb6 .LASF268
     /tmp/cc5stWrQ.s:5642   .debug_str:0000000000000b33 .LASF269
     /tmp/cc5stWrQ.s:8      .text:0000000000000000 .Ltext0
     /tmp/cc5stWrQ.s:780    .text:00000000000002fc .Letext0
     /tmp/cc5stWrQ.s:5288   .debug_line:0000000000000000 .Ldebug_line0
     /tmp/cc5stWrQ.s:5474   .debug_str:000000000000058c .LASF0
     /tmp/cc5stWrQ.s:5518   .debug_str:00000000000006df .LASF1
     /tmp/cc5stWrQ.s:5664   .debug_str:0000000000000bee .LASF2
     /tmp/cc5stWrQ.s:5420   .debug_str:00000000000003de .LASF3
     /tmp/cc5stWrQ.s:5672   .debug_str:0000000000000c38 .LASF4
     /tmp/cc5stWrQ.s:5492   .debug_str:0000000000000612 .LASF5
     /tmp/cc5stWrQ.s:5312   .debug_str:00000000000000da .LASF6
     /tmp/cc5stWrQ.s:5628   .debug_str:0000000000000ad2 .LASF7
     /tmp/cc5stWrQ.s:5610   .debug_str:0000000000000a3b .LASF8
     /tmp/cc5stWrQ.s:5506   .debug_str:000000000000069b .LASF9
     /tmp/cc5stWrQ.s:5444   .debug_str:000000000000049c .LASF10
     /tmp/cc5stWrQ.s:5456   .debug_str:00000000000004fd .LASF11
     /tmp/cc5stWrQ.s:5358   .debug_str:00000000000001fb .LASF12
     /tmp/cc5stWrQ.s:5432   .debug_str:0000000000000443 .LASF13
     /tmp/cc5stWrQ.s:5370   .debug_str:0000000000000249 .LASF14
     /tmp/cc5stWrQ.s:5356   .debug_str:00000000000001eb .LASF15
     /tmp/cc5stWrQ.s:5712   .debug_str:0000000000000e3a .LASF16
     /tmp/cc5stWrQ.s:5412   .debug_str:0000000000000379 .LASF17
     /tmp/cc5stWrQ.s:5694   .debug_str:0000000000000d00 .LASF18
     /tmp/cc5stWrQ.s:5392   .debug_str:00000000000002fc .LASF33
     /tmp/cc5stWrQ.s:5546   .debug_str:00000000000007c9 .LASF19
     /tmp/cc5stWrQ.s:5360   .debug_str:000000000000020a .LASF20
     /tmp/cc5stWrQ.s:5324   .debug_str:0000000000000122 .LASF21
     /tmp/cc5stWrQ.s:5758   .debug_str:0000000000000f63 .LASF22
     /tmp/cc5stWrQ.s:5602   .debug_str:00000000000009ee .LASF29
     /tmp/cc5stWrQ.s:5812   .debug_str:000000000000112b .LASF61
     /tmp/cc5stWrQ.s:5566   .debug_str:0000000000000860 .LASF63
     /tmp/cc5stWrQ.s:5654   .debug_str:0000000000000bad .LASF23
     /tmp/cc5stWrQ.s:5806   .debug_str:00000000000010e8 .LASF25
     /tmp/cc5stWrQ.s:5334   .debug_str:000000000000015b .LASF24
     /tmp/cc5stWrQ.s:5620   .debug_str:0000000000000a77 .LASF26
     /tmp/cc5stWrQ.s:5494   .debug_str:0000000000000624 .LASF27
     /tmp/cc5stWrQ.s:5320   .debug_str:0000000000000103 .LASF31
     /tmp/cc5stWrQ.s:5430   .debug_str:000000000000043e .LASF28
     /tmp/cc5stWrQ.s:5374   .debug_str:0000000000000274 .LASF30
     /tmp/cc5stWrQ.s:5470   .debug_str:000000000000055c .LASF32
     /tmp/cc5stWrQ.s:5454   .debug_str:00000000000004f3 .LASF81
     /tmp/cc5stWrQ.s:5300   .debug_str:000000000000004e .LASF83
     /tmp/cc5stWrQ.s:5720   .debug_str:0000000000000e77 .LASF34
     /tmp/cc5stWrQ.s:5674   .debug_str:0000000000000c3f .LASF35
     /tmp/cc5stWrQ.s:5308   .debug_str:00000000000000c2 .LASF37
     /tmp/cc5stWrQ.s:5784   .debug_str:000000000000104d .LASF36
     /tmp/cc5stWrQ.s:5526   .debug_str:0000000000000711 .LASF38
     /tmp/cc5stWrQ.s:5600   .debug_str:00000000000009e9 .LASF270
     /tmp/cc5stWrQ.s:5524   .debug_str:0000000000000704 .LASF39
     /tmp/cc5stWrQ.s:5774   .debug_str:0000000000000fe6 .LASF40
     /tmp/cc5stWrQ.s:5722   .debug_str:0000000000000e7f .LASF41
     /tmp/cc5stWrQ.s:5576   .debug_str:00000000000008f2 .LASF42
     /tmp/cc5stWrQ.s:5336   .debug_str:0000000000000169 .LASF43
GAS LISTING /tmp/cc5stWrQ.s 			page 31


     /tmp/cc5stWrQ.s:5760   .debug_str:0000000000000f68 .LASF44
     /tmp/cc5stWrQ.s:5648   .debug_str:0000000000000b73 .LASF45
     /tmp/cc5stWrQ.s:5680   .debug_str:0000000000000c6d .LASF46
     /tmp/cc5stWrQ.s:5754   .debug_str:0000000000000f4d .LASF47
     /tmp/cc5stWrQ.s:5666   .debug_str:0000000000000bfc .LASF48
     /tmp/cc5stWrQ.s:5344   .debug_str:0000000000000193 .LASF49
     /tmp/cc5stWrQ.s:5832   .debug_str:00000000000011d7 .LASF50
     /tmp/cc5stWrQ.s:5652   .debug_str:0000000000000b9d .LASF51
     /tmp/cc5stWrQ.s:5464   .debug_str:0000000000000526 .LASF52
     /tmp/cc5stWrQ.s:5376   .debug_str:000000000000027e .LASF53
     /tmp/cc5stWrQ.s:5608   .debug_str:0000000000000a24 .LASF54
     /tmp/cc5stWrQ.s:5836   .debug_str:0000000000001200 .LASF55
     /tmp/cc5stWrQ.s:5822   .debug_str:000000000000117d .LASF56
     /tmp/cc5stWrQ.s:5520   .debug_str:00000000000006f2 .LASF57
     /tmp/cc5stWrQ.s:5746   .debug_str:0000000000000f18 .LASF59
     /tmp/cc5stWrQ.s:5394   .debug_str:0000000000000305 .LASF58
     /tmp/cc5stWrQ.s:5364   .debug_str:0000000000000222 .LASF60
     /tmp/cc5stWrQ.s:5552   .debug_str:0000000000000801 .LASF62
     /tmp/cc5stWrQ.s:5428   .debug_str:0000000000000427 .LASF64
     /tmp/cc5stWrQ.s:5658   .debug_str:0000000000000bcf .LASF65
     /tmp/cc5stWrQ.s:5676   .debug_str:0000000000000c44 .LASF66
     /tmp/cc5stWrQ.s:5738   .debug_str:0000000000000efd .LASF67
     /tmp/cc5stWrQ.s:5686   .debug_str:0000000000000cb3 .LASF68
     /tmp/cc5stWrQ.s:5618   .debug_str:0000000000000a62 .LASF160
     /tmp/cc5stWrQ.s:5298   .debug_str:0000000000000049 .LASF69
     /tmp/cc5stWrQ.s:5828   .debug_str:00000000000011b9 .LASF70
     /tmp/cc5stWrQ.s:5756   .debug_str:0000000000000f5b .LASF71
     /tmp/cc5stWrQ.s:5692   .debug_str:0000000000000cf7 .LASF72
     /tmp/cc5stWrQ.s:5770   .debug_str:0000000000000fd5 .LASF73
     /tmp/cc5stWrQ.s:5748   .debug_str:0000000000000f28 .LASF74
     /tmp/cc5stWrQ.s:5490   .debug_str:0000000000000607 .LASF75
     /tmp/cc5stWrQ.s:5318   .debug_str:00000000000000f9 .LASF76
     /tmp/cc5stWrQ.s:5500   .debug_str:0000000000000654 .LASF77
     /tmp/cc5stWrQ.s:5752   .debug_str:0000000000000f45 .LASF78
     /tmp/cc5stWrQ.s:5404   .debug_str:000000000000033e .LASF79
     /tmp/cc5stWrQ.s:5558   .debug_str:000000000000082a .LASF80
     /tmp/cc5stWrQ.s:5342   .debug_str:0000000000000185 .LASF271
     /tmp/cc5stWrQ.s:5814   .debug_str:0000000000001137 .LASF272
     /tmp/cc5stWrQ.s:5382   .debug_str:00000000000002ad .LASF82
     /tmp/cc5stWrQ.s:5306   .debug_str:000000000000009a .LASF84
     /tmp/cc5stWrQ.s:5670   .debug_str:0000000000000c2d .LASF85
     /tmp/cc5stWrQ.s:5818   .debug_str:000000000000115c .LASF86
     /tmp/cc5stWrQ.s:5542   .debug_str:00000000000007a4 .LASF87
     /tmp/cc5stWrQ.s:5790   .debug_str:0000000000001083 .LASF88
     /tmp/cc5stWrQ.s:5510   .debug_str:00000000000006c1 .LASF273
     /tmp/cc5stWrQ.s:5468   .debug_str:0000000000000553 .LASF89
     /tmp/cc5stWrQ.s:5406   .debug_str:0000000000000348 .LASF90
     /tmp/cc5stWrQ.s:5800   .debug_str:00000000000010b7 .LASF91
     /tmp/cc5stWrQ.s:5684   .debug_str:0000000000000ca5 .LASF92
     /tmp/cc5stWrQ.s:5418   .debug_str:00000000000003c3 .LASF93
     /tmp/cc5stWrQ.s:5478   .debug_str:00000000000005a9 .LASF94
     /tmp/cc5stWrQ.s:5804   .debug_str:00000000000010ce .LASF95
     /tmp/cc5stWrQ.s:5766   .debug_str:0000000000000fab .LASF96
     /tmp/cc5stWrQ.s:5534   .debug_str:000000000000075f .LASF97
     /tmp/cc5stWrQ.s:5636   .debug_str:0000000000000b08 .LASF98
     /tmp/cc5stWrQ.s:5644   .debug_str:0000000000000b4c .LASF99
     /tmp/cc5stWrQ.s:5808   .debug_str:0000000000001108 .LASF100
GAS LISTING /tmp/cc5stWrQ.s 			page 32


     /tmp/cc5stWrQ.s:5708   .debug_str:0000000000000e21 .LASF101
     /tmp/cc5stWrQ.s:5530   .debug_str:000000000000074f .LASF102
     /tmp/cc5stWrQ.s:5646   .debug_str:0000000000000b5f .LASF103
     /tmp/cc5stWrQ.s:5660   .debug_str:0000000000000bda .LASF104
     /tmp/cc5stWrQ.s:5598   .debug_str:00000000000009d4 .LASF105
     /tmp/cc5stWrQ.s:5584   .debug_str:0000000000000938 .LASF106
     /tmp/cc5stWrQ.s:5508   .debug_str:00000000000006ae .LASF107
     /tmp/cc5stWrQ.s:5578   .debug_str:0000000000000909 .LASF108
     /tmp/cc5stWrQ.s:5596   .debug_str:00000000000009c0 .LASF109
     /tmp/cc5stWrQ.s:5698   .debug_str:0000000000000d29 .LASF110
     /tmp/cc5stWrQ.s:5482   .debug_str:00000000000005bc .LASF111
     /tmp/cc5stWrQ.s:5706   .debug_str:0000000000000e1a .LASF112
     /tmp/cc5stWrQ.s:5678   .debug_str:0000000000000c5a .LASF113
     /tmp/cc5stWrQ.s:5460   .debug_str:0000000000000514 .LASF114
     /tmp/cc5stWrQ.s:5362   .debug_str:000000000000020f .LASF115
     /tmp/cc5stWrQ.s:5402   .debug_str:0000000000000338 .LASF116
     /tmp/cc5stWrQ.s:5466   .debug_str:0000000000000541 .LASF117
     /tmp/cc5stWrQ.s:5480   .debug_str:00000000000005b6 .LASF118
     /tmp/cc5stWrQ.s:5388   .debug_str:00000000000002dc .LASF119
     /tmp/cc5stWrQ.s:5314   .debug_str:00000000000000e1 .LASF120
     /tmp/cc5stWrQ.s:5668   .debug_str:0000000000000c15 .LASF121
     /tmp/cc5stWrQ.s:5662   .debug_str:0000000000000be3 .LASF122
     /tmp/cc5stWrQ.s:5830   .debug_str:00000000000011bf .LASF123
     /tmp/cc5stWrQ.s:5792   .debug_str:0000000000001089 .LASF124
     /tmp/cc5stWrQ.s:5820   .debug_str:0000000000001167 .LASF125
     /tmp/cc5stWrQ.s:5786   .debug_str:000000000000105b .LASF126
     /tmp/cc5stWrQ.s:5562   .debug_str:0000000000000843 .LASF127
     /tmp/cc5stWrQ.s:5776   .debug_str:0000000000000fff .LASF128
     /tmp/cc5stWrQ.s:5734   .debug_str:0000000000000ec7 .LASF129
     /tmp/cc5stWrQ.s:5486   .debug_str:00000000000005d8 .LASF130
     /tmp/cc5stWrQ.s:5378   .debug_str:0000000000000289 .LASF131
     /tmp/cc5stWrQ.s:5462   .debug_str:000000000000051b .LASF132
     /tmp/cc5stWrQ.s:5586   .debug_str:000000000000093f .LASF133
     /tmp/cc5stWrQ.s:5614   .debug_str:0000000000000a53 .LASF134
     /tmp/cc5stWrQ.s:5572   .debug_str:00000000000008c9 .LASF135
     /tmp/cc5stWrQ.s:5696   .debug_str:0000000000000d16 .LASF136
     /tmp/cc5stWrQ.s:5426   .debug_str:0000000000000410 .LASF137
     /tmp/cc5stWrQ.s:5384   .debug_str:00000000000002bb .LASF157
     /tmp/cc5stWrQ.s:5408   .debug_str:0000000000000351 .LASF158
     /tmp/cc5stWrQ.s:5512   .debug_str:00000000000006cc .LASF138
     /tmp/cc5stWrQ.s:5352   .debug_str:00000000000001c9 .LASF139
     /tmp/cc5stWrQ.s:5532   .debug_str:0000000000000757 .LASF140
     /tmp/cc5stWrQ.s:5414   .debug_str:000000000000038f .LASF141
     /tmp/cc5stWrQ.s:5604   .debug_str:00000000000009fe .LASF142
     /tmp/cc5stWrQ.s:5788   .debug_str:0000000000001065 .LASF143
     /tmp/cc5stWrQ.s:5842   .debug_str:0000000000001239 .LASF144
     /tmp/cc5stWrQ.s:5372   .debug_str:0000000000000259 .LASF145
     /tmp/cc5stWrQ.s:5688   .debug_str:0000000000000cc4 .LASF146
     /tmp/cc5stWrQ.s:5504   .debug_str:000000000000067e .LASF147
     /tmp/cc5stWrQ.s:5624   .debug_str:0000000000000abe .LASF148
     /tmp/cc5stWrQ.s:5304   .debug_str:0000000000000080 .LASF149
     /tmp/cc5stWrQ.s:5396   .debug_str:000000000000030e .LASF150
     /tmp/cc5stWrQ.s:5826   .debug_str:00000000000011a2 .LASF151
     /tmp/cc5stWrQ.s:5380   .debug_str:00000000000002a8 .LASF167
     /tmp/cc5stWrQ.s:5580   .debug_str:0000000000000911 .LASF152
     /tmp/cc5stWrQ.s:5424   .debug_str:00000000000003fd .LASF153
     /tmp/cc5stWrQ.s:5782   .debug_str:000000000000103f .LASF154
GAS LISTING /tmp/cc5stWrQ.s 			page 33


     /tmp/cc5stWrQ.s:5640   .debug_str:0000000000000b16 .LASF155
     /tmp/cc5stWrQ.s:5768   .debug_str:0000000000000fb4 .LASF156
     /tmp/cc5stWrQ.s:5434   .debug_str:0000000000000452 .LASF159
     /tmp/cc5stWrQ.s:5778   .debug_str:0000000000001010 .LASF161
     /tmp/cc5stWrQ.s:5350   .debug_str:00000000000001c2 .LASF162
     /tmp/cc5stWrQ.s:5332   .debug_str:0000000000000139 .LASF163
     /tmp/cc5stWrQ.s:5514   .debug_str:00000000000006d5 .LASF164
     /tmp/cc5stWrQ.s:5730   .debug_str:0000000000000e9a .LASF165
     /tmp/cc5stWrQ.s:5622   .debug_str:0000000000000a9d .LASF166
     /tmp/cc5stWrQ.s:5442   .debug_str:0000000000000492 .LASF168
     /tmp/cc5stWrQ.s:5838   .debug_str:0000000000001208 .LASF169
     /tmp/cc5stWrQ.s:5450   .debug_str:00000000000004c6 .LASF274
     /tmp/cc5stWrQ.s:5294   .debug_str:000000000000002c .LASF170
     /tmp/cc5stWrQ.s:5502   .debug_str:0000000000000661 .LASF171
     /tmp/cc5stWrQ.s:5716   .debug_str:0000000000000e5c .LASF275
     /tmp/cc5stWrQ.s:5816   .debug_str:0000000000001150 .LASF172
     /tmp/cc5stWrQ.s:5488   .debug_str:00000000000005ea .LASF173
     /tmp/cc5stWrQ.s:5732   .debug_str:0000000000000eba .LASF174
     /tmp/cc5stWrQ.s:5682   .debug_str:0000000000000c87 .LASF175
     /tmp/cc5stWrQ.s:5780   .debug_str:0000000000001032 .LASF176
     /tmp/cc5stWrQ.s:5700   .debug_str:0000000000000d31 .LASF177
     /tmp/cc5stWrQ.s:5824   .debug_str:0000000000001190 .LASF178
     /tmp/cc5stWrQ.s:5368   .debug_str:0000000000000243 .LASF179
     /tmp/cc5stWrQ.s:5322   .debug_str:000000000000011c .LASF180
     /tmp/cc5stWrQ.s:5338   .debug_str:0000000000000175 .LASF181
     /tmp/cc5stWrQ.s:5834   .debug_str:00000000000011f3 .LASF182
     /tmp/cc5stWrQ.s:5840   .debug_str:0000000000001225 .LASF183
     /tmp/cc5stWrQ.s:5476   .debug_str:0000000000000599 .LASF184
     /tmp/cc5stWrQ.s:5290   .debug_str:0000000000000000 .LASF185
     /tmp/cc5stWrQ.s:5296   .debug_str:0000000000000035 .LASF186
     /tmp/cc5stWrQ.s:5556   .debug_str:000000000000081e .LASF187
     /tmp/cc5stWrQ.s:5446   .debug_str:00000000000004ac .LASF188
     /tmp/cc5stWrQ.s:5536   .debug_str:0000000000000774 .LASF189
     /tmp/cc5stWrQ.s:5574   .debug_str:00000000000008ce .LASF190
     /tmp/cc5stWrQ.s:5496   .debug_str:0000000000000641 .LASF191
     /tmp/cc5stWrQ.s:5606   .debug_str:0000000000000a0a .LASF192
     /tmp/cc5stWrQ.s:5718   .debug_str:0000000000000e70 .LASF193
     /tmp/cc5stWrQ.s:5422   .debug_str:00000000000003e4 .LASF194
     /tmp/cc5stWrQ.s:5744   .debug_str:0000000000000f13 .LASF195
     /tmp/cc5stWrQ.s:5794   .debug_str:0000000000001093 .LASF196
     /tmp/cc5stWrQ.s:5440   .debug_str:0000000000000489 .LASF197
     /tmp/cc5stWrQ.s:5810   .debug_str:0000000000001110 .LASF198
     /tmp/cc5stWrQ.s:5398   .debug_str:0000000000000314 .LASF199
     /tmp/cc5stWrQ.s:5634   .debug_str:0000000000000aef .LASF200
     /tmp/cc5stWrQ.s:5472   .debug_str:0000000000000586 .LASF201
     /tmp/cc5stWrQ.s:5416   .debug_str:00000000000003ab .LASF202
     /tmp/cc5stWrQ.s:5302   .debug_str:0000000000000078 .LASF203
     /tmp/cc5stWrQ.s:5550   .debug_str:00000000000007e7 .LASF204
     /tmp/cc5stWrQ.s:5630   .debug_str:0000000000000ad9 .LASF205
     /tmp/cc5stWrQ.s:5366   .debug_str:0000000000000235 .LASF206
     /tmp/cc5stWrQ.s:5292   .debug_str:0000000000000015 .LASF207
     /tmp/cc5stWrQ.s:5564   .debug_str:0000000000000859 .LASF208
     /tmp/cc5stWrQ.s:5528   .debug_str:0000000000000733 .LASF209
     /tmp/cc5stWrQ.s:5354   .debug_str:00000000000001e6 .LASF210
     /tmp/cc5stWrQ.s:5348   .debug_str:00000000000001a8 .LASF211
     /tmp/cc5stWrQ.s:5484   .debug_str:00000000000005d0 .LASF212
     /tmp/cc5stWrQ.s:5762   .debug_str:0000000000000f7f .LASF213
GAS LISTING /tmp/cc5stWrQ.s 			page 34


     /tmp/cc5stWrQ.s:5638   .debug_str:0000000000000b0f .LASF214
     /tmp/cc5stWrQ.s:5400   .debug_str:000000000000031b .LASF215
     /tmp/cc5stWrQ.s:5310   .debug_str:00000000000000ce .LASF239
     /tmp/cc5stWrQ.s:5436   .debug_str:0000000000000473 .LASF216
     /tmp/cc5stWrQ.s:5448   .debug_str:00000000000004c0 .LASF217
     /tmp/cc5stWrQ.s:5726   .debug_str:0000000000000e90 .LASF218
     /tmp/cc5stWrQ.s:5458   .debug_str:000000000000050b .LASF219
     /tmp/cc5stWrQ.s:5650   .debug_str:0000000000000b81 .LASF220
     /tmp/cc5stWrQ.s:5796   .debug_str:00000000000010aa .LASF221
     /tmp/cc5stWrQ.s:5560   .debug_str:000000000000082f .LASF222
     /tmp/cc5stWrQ.s:5710   .debug_str:0000000000000e35 .LASF223
     /tmp/cc5stWrQ.s:5540   .debug_str:0000000000000790 .LASF224
     /tmp/cc5stWrQ.s:5764   .debug_str:0000000000000f9d .LASF225
     /tmp/cc5stWrQ.s:5592   .debug_str:000000000000098e .LASF226
     /tmp/cc5stWrQ.s:5548   .debug_str:00000000000007d5 .LASF227
     /tmp/cc5stWrQ.s:5582   .debug_str:0000000000000916 .LASF228
     /tmp/cc5stWrQ.s:5438   .debug_str:000000000000047a .LASF229
     /tmp/cc5stWrQ.s:5568   .debug_str:0000000000000884 .LASF230
     /tmp/cc5stWrQ.s:5590   .debug_str:000000000000097e .LASF231
     /tmp/cc5stWrQ.s:5544   .debug_str:00000000000007a9 .LASF232
     /tmp/cc5stWrQ.s:5386   .debug_str:00000000000002c5 .LASF233
     /tmp/cc5stWrQ.s:5588   .debug_str:0000000000000957 .LASF234
     /tmp/cc5stWrQ.s:5714   .debug_str:0000000000000e46 .LASF235
     /tmp/cc5stWrQ.s:5570   .debug_str:00000000000008a3 .LASF236
     /tmp/cc5stWrQ.s:5736   .debug_str:0000000000000ee5 .LASF237
     /tmp/cc5stWrQ.s:5690   .debug_str:0000000000000ccf .LASF238
     /tmp/cc5stWrQ.s:5410   .debug_str:0000000000000368 .LASF240
     /tmp/cc5stWrQ.s:5772   .debug_str:0000000000000fda .LASF241
     /tmp/cc5stWrQ.s:5316   .debug_str:00000000000000ec .LASF242
     /tmp/cc5stWrQ.s:5594   .debug_str:00000000000009ac .LASF243
     /tmp/cc5stWrQ.s:5750   .debug_str:0000000000000f32 .LASF244
     /tmp/cc5stWrQ.s:5452   .debug_str:00000000000004de .LASF245
     /tmp/cc5stWrQ.s:5740   .debug_str:0000000000000f05 .LASF246
     /tmp/cc5stWrQ.s:5328   .debug_str:000000000000012c .LASF248
     /tmp/cc5stWrQ.s:5724   .debug_str:0000000000000e8a .LASF247
     /tmp/cc5stWrQ.s:5728   .debug_str:0000000000000e95 .LASF249
     /tmp/cc5stWrQ.s:5554   .debug_str:000000000000080d .LASF250
     /tmp/cc5stWrQ.s:13     .text:0000000000000000 .LFB65
     /tmp/cc5stWrQ.s:778    .text:00000000000002fc .LFE65
     /tmp/cc5stWrQ.s:4488   .debug_loc:0000000000000000 .LLST0
     /tmp/cc5stWrQ.s:5612   .debug_str:0000000000000a4e .LASF251
     /tmp/cc5stWrQ.s:4539   .debug_loc:00000000000000c7 .LLST1
     /tmp/cc5stWrQ.s:4651   .debug_loc:0000000000000290 .LLST2
     /tmp/cc5stWrQ.s:4671   .debug_loc:00000000000002ee .LLST3
     /tmp/cc5stWrQ.s:4772   .debug_loc:00000000000004bf .LLST4
     /tmp/cc5stWrQ.s:5522   .debug_str:00000000000006f8 .LASF252
     /tmp/cc5stWrQ.s:4853   .debug_loc:000000000000063c .LLST5
     /tmp/cc5stWrQ.s:5742   .debug_str:0000000000000f0e .LASF253
     /tmp/cc5stWrQ.s:4958   .debug_loc:00000000000007c0 .LLST6
     /tmp/cc5stWrQ.s:5798   .debug_str:00000000000010af .LASF254
     /tmp/cc5stWrQ.s:4991   .debug_loc:0000000000000857 .LLST7
     /tmp/cc5stWrQ.s:5346   .debug_str:00000000000001a3 .LASF255
     /tmp/cc5stWrQ.s:5002   .debug_loc:000000000000088d .LLST8
     /tmp/cc5stWrQ.s:5516   .debug_str:00000000000006da .LASF256
     /tmp/cc5stWrQ.s:5013   .debug_loc:00000000000008c3 .LLST9
     /tmp/cc5stWrQ.s:5498   .debug_str:0000000000000648 .LASF257
     /tmp/cc5stWrQ.s:5020   .debug_loc:00000000000008e6 .LLST10
GAS LISTING /tmp/cc5stWrQ.s 			page 35


     /tmp/cc5stWrQ.s:5054   .debug_loc:000000000000096f .LLST11
     /tmp/cc5stWrQ.s:5390   .debug_str:00000000000002ee .LASF258
     /tmp/cc5stWrQ.s:5061   .debug_loc:0000000000000992 .LLST12
     /tmp/cc5stWrQ.s:5632   .debug_str:0000000000000ae1 .LASF259
     /tmp/cc5stWrQ.s:5068   .debug_loc:00000000000009b5 .LLST13
     /tmp/cc5stWrQ.s:5626   .debug_str:0000000000000ac7 .LASF260
     /tmp/cc5stWrQ.s:5075   .debug_loc:00000000000009d8 .LLST14
     /tmp/cc5stWrQ.s:5082   .debug_loc:00000000000009fb .LLST15
     /tmp/cc5stWrQ.s:5089   .debug_loc:0000000000000a1e .LLST16
     /tmp/cc5stWrQ.s:5330   .debug_str:0000000000000134 .LASF261
     /tmp/cc5stWrQ.s:5108   .debug_loc:0000000000000a7a .LLST17
     /tmp/cc5stWrQ.s:5115   .debug_loc:0000000000000a9d .LLST18
     /tmp/cc5stWrQ.s:5616   .debug_str:0000000000000a5d .LASF262
     /tmp/cc5stWrQ.s:5122   .debug_loc:0000000000000ac0 .LLST19
     /tmp/cc5stWrQ.s:5268   .debug_ranges:0000000000000000 .Ldebug_ranges0
     /tmp/cc5stWrQ.s:5129   .debug_loc:0000000000000ae3 .LLST27
     /tmp/cc5stWrQ.s:438    .text:0000000000000184 .LBB69
     /tmp/cc5stWrQ.s:449    .text:0000000000000188 .LBE69
     /tmp/cc5stWrQ.s:5136   .debug_loc:0000000000000b06 .LLST28
     /tmp/cc5stWrQ.s:451    .text:0000000000000188 .LBB71
     /tmp/cc5stWrQ.s:5143   .debug_loc:0000000000000b29 .LLST29
     /tmp/cc5stWrQ.s:513    .text:00000000000001c8 .LBB75
     /tmp/cc5stWrQ.s:529    .text:00000000000001e0 .LBE75
     /tmp/cc5stWrQ.s:5150   .debug_loc:0000000000000b4c .LLST30
     /tmp/cc5stWrQ.s:519    .text:00000000000001d0 .LVL49
     /tmp/cc5stWrQ.s:523    .text:00000000000001dc .LVL50
     /tmp/cc5stWrQ.s:604    .text:000000000000023c .LBB77
     /tmp/cc5stWrQ.s:615    .text:0000000000000240 .LBE77
     /tmp/cc5stWrQ.s:5157   .debug_loc:0000000000000b6f .LLST31
     /tmp/cc5stWrQ.s:617    .text:0000000000000240 .LBB79
     /tmp/cc5stWrQ.s:628    .text:0000000000000244 .LBE79
     /tmp/cc5stWrQ.s:5164   .debug_loc:0000000000000b92 .LLST32
     /tmp/cc5stWrQ.s:292    .text:00000000000000dc .LVL19
     /tmp/cc5stWrQ.s:296    .text:00000000000000e8 .LVL20
     /tmp/cc5stWrQ.s:368    .text:0000000000000120 .LVL27
     /tmp/cc5stWrQ.s:372    .text:000000000000012c .LVL28
     /tmp/cc5stWrQ.s:389    .text:0000000000000140 .LVL31
     /tmp/cc5stWrQ.s:414    .text:0000000000000164 .LVL35
     /tmp/cc5stWrQ.s:433    .text:0000000000000180 .LVL38
     /tmp/cc5stWrQ.s:478    .text:000000000000019c .LVL42
     /tmp/cc5stWrQ.s:512    .text:00000000000001c8 .LVL48
     /tmp/cc5stWrQ.s:538    .text:00000000000001ec .LVL53
     /tmp/cc5stWrQ.s:551    .text:00000000000001fc .LVL56
     /tmp/cc5stWrQ.s:567    .text:0000000000000210 .LVL60
     /tmp/cc5stWrQ.s:583    .text:0000000000000224 .LVL64
     /tmp/cc5stWrQ.s:595    .text:0000000000000234 .LVL67
     /tmp/cc5stWrQ.s:645    .text:000000000000025c .LVL73
     /tmp/cc5stWrQ.s:648    .text:0000000000000264 .LVL74
     /tmp/cc5stWrQ.s:664    .text:0000000000000278 .LVL77
     /tmp/cc5stWrQ.s:668    .text:0000000000000284 .LVL78
     /tmp/cc5stWrQ.s:5171   .debug_loc:0000000000000bb5 .LLST20
     /tmp/cc5stWrQ.s:165    .text:00000000000000a4 .LBB51
     /tmp/cc5stWrQ.s:176    .text:00000000000000a8 .LBE51
     /tmp/cc5stWrQ.s:5198   .debug_loc:0000000000000bfb .LLST21
     /tmp/cc5stWrQ.s:178    .text:00000000000000a8 .LBB53
     /tmp/cc5stWrQ.s:189    .text:00000000000000ac .LBE53
     /tmp/cc5stWrQ.s:5205   .debug_loc:0000000000000c1e .LLST22
GAS LISTING /tmp/cc5stWrQ.s 			page 36


     /tmp/cc5stWrQ.s:151    .text:000000000000008c .LVL9
     /tmp/cc5stWrQ.s:163    .text:00000000000000a4 .LVL12
     /tmp/cc5stWrQ.s:768    .text:00000000000002f0 .LVL91
     /tmp/cc5stWrQ.s:771    .text:00000000000002f8 .LVL92
     /tmp/cc5stWrQ.s:67     .text:0000000000000034 .LBB41
     /tmp/cc5stWrQ.s:84     .text:0000000000000040 .LBE41
     /tmp/cc5stWrQ.s:86     .text:0000000000000040 .LBB43
     /tmp/cc5stWrQ.s:102    .text:000000000000004c .LBE43
     /tmp/cc5stWrQ.s:104    .text:000000000000004c .LBB45
     /tmp/cc5stWrQ.s:120    .text:0000000000000058 .LBE45
     /tmp/cc5stWrQ.s:678    .text:0000000000000288 .LBB56
     /tmp/cc5stWrQ.s:690    .text:0000000000000290 .LBE56
     /tmp/cc5stWrQ.s:5212   .debug_loc:0000000000000c41 .LLST23
     /tmp/cc5stWrQ.s:709    .text:00000000000002bc .LBB58
     /tmp/cc5stWrQ.s:717    .text:00000000000002c0 .LBE58
     /tmp/cc5stWrQ.s:5220   .debug_loc:0000000000000c65 .LLST24
     /tmp/cc5stWrQ.s:725    .text:00000000000002c8 .LBB60
     /tmp/cc5stWrQ.s:736    .text:00000000000002cc .LBE60
     /tmp/cc5stWrQ.s:5227   .debug_loc:0000000000000c88 .LLST25
     /tmp/cc5stWrQ.s:738    .text:00000000000002cc .LBB62
     /tmp/cc5stWrQ.s:752    .text:00000000000002d4 .LBE62
     /tmp/cc5stWrQ.s:5234   .debug_loc:0000000000000cab .LLST26
     /tmp/cc5stWrQ.s:309    .text:00000000000000f0 .LBB82
     /tmp/cc5stWrQ.s:320    .text:00000000000000f4 .LBE82
     /tmp/cc5stWrQ.s:5241   .debug_loc:0000000000000cce .LLST33
     /tmp/cc5stWrQ.s:322    .text:00000000000000f4 .LBB84
     /tmp/cc5stWrQ.s:334    .text:00000000000000f8 .LBE84
     /tmp/cc5stWrQ.s:5248   .debug_loc:0000000000000cf1 .LLST34
     /tmp/cc5stWrQ.s:701    .text:00000000000002ac .LVL82
     /tmp/cc5stWrQ.s:704    .text:00000000000002b4 .LVL83
     /tmp/cc5stWrQ.s:759    .text:00000000000002e4 .LVL89
     /tmp/cc5stWrQ.s:5326   .debug_str:0000000000000127 .LASF263
     /tmp/cc5stWrQ.s:5702   .debug_str:0000000000000d4f .LASF264
     /tmp/cc5stWrQ.s:5340   .debug_str:0000000000000180 .LASF276
     /tmp/cc5stWrQ.s:5538   .debug_str:0000000000000785 .LASF265
     /tmp/cc5stWrQ.s:5802   .debug_str:00000000000010c0 .LASF266
     /tmp/cc5stWrQ.s:17     .text:0000000000000000 .LVL0
     /tmp/cc5stWrQ.s:46     .text:0000000000000030 .LVL3
     /tmp/cc5stWrQ.s:153    .text:0000000000000090 .LVL10
     /tmp/cc5stWrQ.s:196    .text:00000000000000b0 .LVL15
     /tmp/cc5stWrQ.s:301    .text:00000000000000ec .LVL21
     /tmp/cc5stWrQ.s:356    .text:0000000000000118 .LVL26
     /tmp/cc5stWrQ.s:429    .text:0000000000000178 .LVL37
     /tmp/cc5stWrQ.s:468    .text:0000000000000194 .LVL41
     /tmp/cc5stWrQ.s:694    .text:0000000000000298 .LVL81
     /tmp/cc5stWrQ.s:38     .text:0000000000000028 .LVL1
     /tmp/cc5stWrQ.s:133    .text:0000000000000068 .LVL8
     /tmp/cc5stWrQ.s:205    .text:00000000000000bc .LVL17
     /tmp/cc5stWrQ.s:378    .text:0000000000000134 .LVL29
     /tmp/cc5stWrQ.s:408    .text:000000000000015c .LVL34
     /tmp/cc5stWrQ.s:420    .text:000000000000016c .LVL36
     /tmp/cc5stWrQ.s:489    .text:00000000000001ac .LVL44
     /tmp/cc5stWrQ.s:498    .text:00000000000001b0 .LVL45
     /tmp/cc5stWrQ.s:506    .text:00000000000001bc .LVL46
     /tmp/cc5stWrQ.s:526    .text:00000000000001e0 .LVL51
     /tmp/cc5stWrQ.s:541    .text:00000000000001f0 .LVL54
     /tmp/cc5stWrQ.s:554    .text:0000000000000200 .LVL57
GAS LISTING /tmp/cc5stWrQ.s 			page 37


     /tmp/cc5stWrQ.s:570    .text:0000000000000214 .LVL61
     /tmp/cc5stWrQ.s:586    .text:0000000000000228 .LVL65
     /tmp/cc5stWrQ.s:639    .text:0000000000000254 .LVL72
     /tmp/cc5stWrQ.s:654    .text:000000000000026c .LVL75
     /tmp/cc5stWrQ.s:671    .text:0000000000000288 .LVL79
     /tmp/cc5stWrQ.s:42     .text:000000000000002c .LVL2
     /tmp/cc5stWrQ.s:660    .text:0000000000000270 .LVL76
     /tmp/cc5stWrQ.s:510    .text:00000000000001c0 .LVL47
     /tmp/cc5stWrQ.s:536    .text:00000000000001e4 .LVL52
     /tmp/cc5stWrQ.s:549    .text:00000000000001f4 .LVL55
     /tmp/cc5stWrQ.s:565    .text:0000000000000208 .LVL59
     /tmp/cc5stWrQ.s:581    .text:000000000000021c .LVL63
     /tmp/cc5stWrQ.s:593    .text:000000000000022c .LVL66
     /tmp/cc5stWrQ.s:50     .text:0000000000000034 .LVL4
     /tmp/cc5stWrQ.s:563    .text:0000000000000204 .LVL58
     /tmp/cc5stWrQ.s:579    .text:0000000000000218 .LVL62
     /tmp/cc5stWrQ.s:118    .text:0000000000000058 .LVL7
     /tmp/cc5stWrQ.s:202    .text:00000000000000b4 .LVL16
     /tmp/cc5stWrQ.s:387    .text:0000000000000138 .LVL30
     /tmp/cc5stWrQ.s:82     .text:0000000000000040 .LVL5
     /tmp/cc5stWrQ.s:308    .text:00000000000000f0 .LVL22
     /tmp/cc5stWrQ.s:330    .text:00000000000000f8 .LVL24
     /tmp/cc5stWrQ.s:599    .text:0000000000000238 .LVL68
     /tmp/cc5stWrQ.s:100    .text:000000000000004c .LVL6
     /tmp/cc5stWrQ.s:350    .text:000000000000010c .LVL25
     /tmp/cc5stWrQ.s:288    .text:00000000000000d4 .LVL18
     /tmp/cc5stWrQ.s:397    .text:000000000000014c .LVL32
     /tmp/cc5stWrQ.s:403    .text:0000000000000154 .LVL33
     /tmp/cc5stWrQ.s:482    .text:00000000000001a0 .LVL43
     /tmp/cc5stWrQ.s:625    .text:0000000000000244 .LVL71
     /tmp/cc5stWrQ.s:437    .text:0000000000000184 .LVL39
     /tmp/cc5stWrQ.s:446    .text:0000000000000188 .LVL40
     /tmp/cc5stWrQ.s:603    .text:000000000000023c .LVL69
     /tmp/cc5stWrQ.s:612    .text:0000000000000240 .LVL70
     /tmp/cc5stWrQ.s:157    .text:0000000000000098 .LVL11
     /tmp/cc5stWrQ.s:761    .text:00000000000002e8 .LVL90
     /tmp/cc5stWrQ.s:173    .text:00000000000000a8 .LVL13
     /tmp/cc5stWrQ.s:186    .text:00000000000000ac .LVL14
     /tmp/cc5stWrQ.s:687    .text:0000000000000290 .LVL80
     /tmp/cc5stWrQ.s:708    .text:00000000000002bc .LVL84
     /tmp/cc5stWrQ.s:715    .text:00000000000002c0 .LVL85
     /tmp/cc5stWrQ.s:724    .text:00000000000002c8 .LVL86
     /tmp/cc5stWrQ.s:733    .text:00000000000002cc .LVL87
     /tmp/cc5stWrQ.s:749    .text:00000000000002d4 .LVL88
     /tmp/cc5stWrQ.s:317    .text:00000000000000f4 .LVL23
     /tmp/cc5stWrQ.s:789    .debug_info:0000000000000000 .Ldebug_info0
     /tmp/cc5stWrQ.s:147    .text:0000000000000084 .LBB50
     /tmp/cc5stWrQ.s:190    .text:00000000000000ac .LBE50
     /tmp/cc5stWrQ.s:764    .text:00000000000002e8 .LBB55
     /tmp/cc5stWrQ.s:773    .text:00000000000002fc .LBE55
     /tmp/cc5stWrQ.s:285    .text:00000000000000d4 .LBB68
     /tmp/cc5stWrQ.s:303    .text:00000000000000ec .LBE68
     /tmp/cc5stWrQ.s:362    .text:0000000000000118 .LBB81
     /tmp/cc5stWrQ.s:673    .text:0000000000000288 .LBE81
     /tmp/cc5stWrQ.s:461    .text:000000000000018c .LBE71
     /tmp/cc5stWrQ.s:464    .text:0000000000000190 .LBB74
     /tmp/cc5stWrQ.s:471    .text:0000000000000194 .LBE74
GAS LISTING /tmp/cc5stWrQ.s 			page 38



UNDEFINED SYMBOLS
plic_claim
plic_complete
_ZN15MemoryAllocator11getInstanceEv
_ZN15MemoryAllocator8memAllocEm
_ZN15MemoryAllocator4freeEPv
_ZN3TCB13create_threadEPFvPvES0_b
_ZN3TCB11thread_exitEv
_ZN3TCB16timeSliceCounterE
_ZN3TCB8dispatchEv
_ZN10_Semaphore16create_semaphoreEm
_ZN10_SemaphoreD1Ev
_ZN10_Semaphore4waitEv
_ZN10_Semaphore6signalEv
_ZN10_Semaphore6wait_nEm
_ZN10_Semaphore8signal_nEm
_ZN3TCB10time_sleepEm
_ZN8_Console11getInstanceEv
_ZN8_Console4getcEv
_ZN8_Console4putcEc
_ZN9Scheduler11getInstanceEv
_ZN9Scheduler11updateSleepEv
_ZN3TCB7runningE
_ZN8_Console17keyboardInterruptEv
