GAS LISTING /tmp/ccmmKP5W.s 			page 1


   1              		.file	"interruptHandler.cpp"
   2              		.option nopic
   3              		.option norelax
   4              		.attribute arch, "rv64i2p0_m2p0_a2p0"
   5              		.attribute unaligned_access, 0
   6              		.attribute stack_align, 16
   7              		.text
   8              	.Ltext0:
   9              		.align	2
  10              		.globl	interruptHandler
  12              	interruptHandler:
  13              	.LFB0:
  14              		.file 1 "src/interruptHandler.cpp"
   1:src/interruptHandler.cpp **** #include "../lib/hw.h"
   2:src/interruptHandler.cpp **** #include "../h/MemoryAllocator.hpp"
   3:src/interruptHandler.cpp **** 
   4:src/interruptHandler.cpp **** 
   5:src/interruptHandler.cpp **** extern "C" void interruptHandler() {
  15              		.loc 1 5 36
  16              		.cfi_startproc
   6:src/interruptHandler.cpp ****     uint64 scauseValue;
  17              		.loc 1 6 5
   7:src/interruptHandler.cpp ****     void* addr;
  18              		.loc 1 7 5
   8:src/interruptHandler.cpp ****     size_t size;
  19              		.loc 1 8 5
   9:src/interruptHandler.cpp ****     int returnValue;
  20              		.loc 1 9 5
  10:src/interruptHandler.cpp **** 
  11:src/interruptHandler.cpp ****     __asm__ volatile("csrr %[scause], scause": [scause] "=r" (scauseValue));
  21              		.loc 1 11 5
  22              		.loc 1 11 76 is_stmt 0
  23              	 #APP
  24              	# 11 "src/interruptHandler.cpp" 1
  12              	    __asm__ volatile("csrr t0,sepc");
  25              		csrr a5, scause
  26              	# 0 "" 2
  27              	.LVL0:
  28              		.loc 1 12 5 is_stmt 1
  29              		.loc 1 12 37 is_stmt 0
  30              	# 12 "src/interruptHandler.cpp" 1
  13              	    __asm__ volatile("addi t0,t0,4");
  31              		csrr t0,sepc
  32              	# 0 "" 2
  33              		.loc 1 13 5 is_stmt 1
  34              		.loc 1 13 37 is_stmt 0
  35              	# 13 "src/interruptHandler.cpp" 1
  14              	    __asm__ volatile("csrw sepc,t0");
  36              		addi t0,t0,4
  37              	# 0 "" 2
  38              		.loc 1 14 5 is_stmt 1
  39              		.loc 1 14 37 is_stmt 0
  40              	# 14 "src/interruptHandler.cpp" 1
  15              	    if (scauseValue == (0x01<<3 | 0x01) || scauseValue == (0x01<<3)) {
  41              		csrw sepc,t0
  42              	# 0 "" 2
  43              		.loc 1 15 5 is_stmt 1
GAS LISTING /tmp/ccmmKP5W.s 			page 2


  44              	 #NO_APP
  45              	.LBB2:
  46              		.loc 1 15 41 is_stmt 0
  47 0010 938787FF 		addi	a5,a5,-8
  48              	.LVL1:
  49              		.loc 1 15 5
  50 0014 13071000 		li	a4,1
  51 0018 6374F700 		bleu	a5,a4,.L9
  52 001c 67800000 		ret
  53              	.L9:
  54              	.LBE2:
   5:src/interruptHandler.cpp ****     uint64 scauseValue;
  55              		.loc 1 5 36
  56 0020 130101FE 		addi	sp,sp,-32
  57              		.cfi_def_cfa_offset 32
  58 0024 233C1100 		sd	ra,24(sp)
  59 0028 23388100 		sd	s0,16(sp)
  60 002c 23349100 		sd	s1,8(sp)
  61              		.cfi_offset 1, -8
  62              		.cfi_offset 8, -16
  63              		.cfi_offset 9, -24
  64 0030 13040102 		addi	s0,sp,32
  65              		.cfi_def_cfa 8, 0
  66              	.LBB5:
  67              	.LBB3:
  16:src/interruptHandler.cpp ****         //ecall iz korisnickog rezima
  17:src/interruptHandler.cpp ****         uint64 code;
  68              		.loc 1 17 9 is_stmt 1
  18:src/interruptHandler.cpp ****         //big swittch with C API codes
  19:src/interruptHandler.cpp ****         __asm__ volatile("mv %0, a0" : "=r" (code) );
  69              		.loc 1 19 9
  70              		.loc 1 19 53 is_stmt 0
  71              	 #APP
  72              	# 19 "src/interruptHandler.cpp" 1
  20              	        switch (code) {
  73              		mv a5, a0
  74              	# 0 "" 2
  75              	.LVL2:
  76              		.loc 1 20 9 is_stmt 1
  77              	 #NO_APP
  78 0038 6380E702 		beq	a5,a4,.L3
  79 003c 13072000 		li	a4,2
  80 0040 638CE702 		beq	a5,a4,.L4
  81              	.LVL3:
  82              	.L1:
  83              	.LBE3:
  84              	.LBE5:
  21:src/interruptHandler.cpp ****             case 0x01:
  22:src/interruptHandler.cpp ****                 //write from a1 to size
  23:src/interruptHandler.cpp ****                 __asm__ volatile ("mv %0, a1" : "=r" (size) );
  24:src/interruptHandler.cpp ****                 addr=MemoryAllocator::getInstance().memAlloc(size);
  25:src/interruptHandler.cpp ****                 //write to a0 return value
  26:src/interruptHandler.cpp ****                 __asm__ volatile ("mv a0, %0" : : "r" (addr));
  27:src/interruptHandler.cpp ****                 break;
  28:src/interruptHandler.cpp ****             case 0x02:
  29:src/interruptHandler.cpp **** 
  30:src/interruptHandler.cpp ****                 //write from a1 to addr
GAS LISTING /tmp/ccmmKP5W.s 			page 3


  31:src/interruptHandler.cpp ****                 __asm__ volatile ("mv %0, a1" : "=r" (addr));
  32:src/interruptHandler.cpp **** 
  33:src/interruptHandler.cpp ****                 returnValue=MemoryAllocator::getInstance().free(addr);
  34:src/interruptHandler.cpp ****                 //write to a0 return value
  35:src/interruptHandler.cpp ****                 __asm__ volatile ("mv a0, %0" : : "r" (returnValue));
  36:src/interruptHandler.cpp ****                 break;
  37:src/interruptHandler.cpp ****         }
  38:src/interruptHandler.cpp ****     }
  39:src/interruptHandler.cpp ****     else {
  40:src/interruptHandler.cpp ****         //i will need to add other traps
  41:src/interruptHandler.cpp ****     }
  42:src/interruptHandler.cpp **** }
  85              		.loc 1 42 1 is_stmt 0
  86 0044 83308101 		ld	ra,24(sp)
  87              		.cfi_remember_state
  88              		.cfi_restore 1
  89 0048 03340101 		ld	s0,16(sp)
  90              		.cfi_restore 8
  91              		.cfi_def_cfa 2, 32
  92 004c 83348100 		ld	s1,8(sp)
  93              		.cfi_restore 9
  94 0050 13010102 		addi	sp,sp,32
  95              		.cfi_def_cfa_offset 0
  96 0054 67800000 		jr	ra
  97              	.LVL4:
  98              	.L3:
  99              		.cfi_restore_state
 100              	.LBB6:
 101              	.LBB4:
  21:src/interruptHandler.cpp ****             case 0x01:
 102              		.loc 1 21 13 is_stmt 1
  23:src/interruptHandler.cpp ****                 addr=MemoryAllocator::getInstance().memAlloc(size);
 103              		.loc 1 23 17
  23:src/interruptHandler.cpp ****                 addr=MemoryAllocator::getInstance().memAlloc(size);
 104              		.loc 1 23 62 is_stmt 0
 105              	 #APP
 106              	# 23 "src/interruptHandler.cpp" 1
 107              		mv s1, a1
 108              	# 0 "" 2
 109              	.LVL5:
  24:src/interruptHandler.cpp ****                 //write to a0 return value
 110              		.loc 1 24 17 is_stmt 1
  24:src/interruptHandler.cpp ****                 //write to a0 return value
 111              		.loc 1 24 51 is_stmt 0
 112              	 #NO_APP
 113 005c 97000000 		call	_ZN15MemoryAllocator11getInstanceEv
 113      E7800000 
 114              	.LVL6:
  24:src/interruptHandler.cpp ****                 //write to a0 return value
 115              		.loc 1 24 61
 116 0064 93850400 		mv	a1,s1
 117 0068 97000000 		call	_ZN15MemoryAllocator8memAllocEm
 117      E7800000 
 118              	.LVL7:
  26:src/interruptHandler.cpp ****                 break;
 119              		.loc 1 26 17 is_stmt 1
  26:src/interruptHandler.cpp ****                 break;
GAS LISTING /tmp/ccmmKP5W.s 			page 4


 120              		.loc 1 26 62 is_stmt 0
 121              	 #APP
 122              	# 26 "src/interruptHandler.cpp" 1
  27:src/interruptHandler.cpp ****             case 0x02:
 123              		mv a0, a0
 124              	# 0 "" 2
 125              		.loc 1 27 17 is_stmt 1
 126              	 #NO_APP
 127 0074 6FF01FFD 		j	.L1
 128              	.LVL8:
 129              	.L4:
  28:src/interruptHandler.cpp **** 
 130              		.loc 1 28 13
  31:src/interruptHandler.cpp **** 
 131              		.loc 1 31 17
  31:src/interruptHandler.cpp **** 
 132              		.loc 1 31 61 is_stmt 0
 133              	 #APP
 134              	# 31 "src/interruptHandler.cpp" 1
 135              		mv s1, a1
 136              	# 0 "" 2
 137              	.LVL9:
  33:src/interruptHandler.cpp ****                 //write to a0 return value
 138              		.loc 1 33 17 is_stmt 1
  33:src/interruptHandler.cpp ****                 //write to a0 return value
 139              		.loc 1 33 58 is_stmt 0
 140              	 #NO_APP
 141 007c 97000000 		call	_ZN15MemoryAllocator11getInstanceEv
 141      E7800000 
 142              	.LVL10:
  33:src/interruptHandler.cpp ****                 //write to a0 return value
 143              		.loc 1 33 64
 144 0084 93850400 		mv	a1,s1
 145 0088 97000000 		call	_ZN15MemoryAllocator4freeEPv
 145      E7800000 
 146              	.LVL11:
  35:src/interruptHandler.cpp ****                 break;
 147              		.loc 1 35 17 is_stmt 1
  35:src/interruptHandler.cpp ****                 break;
 148              		.loc 1 35 69 is_stmt 0
 149              	 #APP
 150              	# 35 "src/interruptHandler.cpp" 1
  36:src/interruptHandler.cpp ****         }
 151              		mv a0, a0
 152              	# 0 "" 2
 153              		.loc 1 36 17 is_stmt 1
 154              	 #NO_APP
 155              	.LBE4:
 156              	.LBE6:
 157              		.loc 1 42 1 is_stmt 0
 158 0094 6FF01FFB 		j	.L1
 159              		.cfi_endproc
 160              	.LFE0:
 162              	.Letext0:
 163              		.file 2 "src/../lib/hw.h"
 164              		.file 3 "src/../h/MemoryAllocator.hpp"
GAS LISTING /tmp/ccmmKP5W.s 			page 5


DEFINED SYMBOLS
                            *ABS*:0000000000000000 interruptHandler.cpp
     /tmp/ccmmKP5W.s:12     .text:0000000000000000 interruptHandler
     /tmp/ccmmKP5W.s:16     .text:0000000000000000 .L0 
     /tmp/ccmmKP5W.s:17     .text:0000000000000000 .L0 
     /tmp/ccmmKP5W.s:18     .text:0000000000000000 .L0 
     /tmp/ccmmKP5W.s:19     .text:0000000000000000 .L0 
     /tmp/ccmmKP5W.s:20     .text:0000000000000000 .L0 
     /tmp/ccmmKP5W.s:21     .text:0000000000000000 .L0 
     /tmp/ccmmKP5W.s:22     .text:0000000000000000 .L0 
src/interruptHandler.cpp:11     .text:0000000000000000 .L0 
     /tmp/ccmmKP5W.s:29     .text:0000000000000004 .L0 
src/interruptHandler.cpp:12     .text:0000000000000004 .L0 
     /tmp/ccmmKP5W.s:34     .text:0000000000000008 .L0 
src/interruptHandler.cpp:13     .text:0000000000000008 .L0 
     /tmp/ccmmKP5W.s:39     .text:000000000000000c .L0 
src/interruptHandler.cpp:14     .text:000000000000000c .L0 
     /tmp/ccmmKP5W.s:46     .text:0000000000000010 .L0 
     /tmp/ccmmKP5W.s:47     .text:0000000000000010 .L0 
     /tmp/ccmmKP5W.s:50     .text:0000000000000014 .L0 
     /tmp/ccmmKP5W.s:56     .text:0000000000000020 .L0 
     /tmp/ccmmKP5W.s:57     .text:0000000000000024 .L0 
     /tmp/ccmmKP5W.s:61     .text:0000000000000030 .L0 
     /tmp/ccmmKP5W.s:62     .text:0000000000000030 .L0 
     /tmp/ccmmKP5W.s:63     .text:0000000000000030 .L0 
     /tmp/ccmmKP5W.s:65     .text:0000000000000034 .L0 
     /tmp/ccmmKP5W.s:69     .text:0000000000000034 .L0 
     /tmp/ccmmKP5W.s:70     .text:0000000000000034 .L0 
src/interruptHandler.cpp:19     .text:0000000000000034 .L0 
     /tmp/ccmmKP5W.s:78     .text:0000000000000038 .L0 
     /tmp/ccmmKP5W.s:86     .text:0000000000000044 .L0 
     /tmp/ccmmKP5W.s:87     .text:0000000000000048 .L0 
     /tmp/ccmmKP5W.s:88     .text:0000000000000048 .L0 
     /tmp/ccmmKP5W.s:90     .text:000000000000004c .L0 
     /tmp/ccmmKP5W.s:91     .text:000000000000004c .L0 
     /tmp/ccmmKP5W.s:93     .text:0000000000000050 .L0 
     /tmp/ccmmKP5W.s:95     .text:0000000000000054 .L0 
     /tmp/ccmmKP5W.s:99     .text:0000000000000058 .L0 
     /tmp/ccmmKP5W.s:103    .text:0000000000000058 .L0 
     /tmp/ccmmKP5W.s:104    .text:0000000000000058 .L0 
src/interruptHandler.cpp:23     .text:0000000000000058 .L0 
     /tmp/ccmmKP5W.s:111    .text:000000000000005c .L0 
     /tmp/ccmmKP5W.s:113    .text:000000000000005c .L0 
     /tmp/ccmmKP5W.s:116    .text:0000000000000064 .L0 
     /tmp/ccmmKP5W.s:120    .text:0000000000000070 .L0 
src/interruptHandler.cpp:26     .text:0000000000000070 .L0 
     /tmp/ccmmKP5W.s:127    .text:0000000000000074 .L0 
     /tmp/ccmmKP5W.s:131    .text:0000000000000078 .L0 
     /tmp/ccmmKP5W.s:132    .text:0000000000000078 .L0 
src/interruptHandler.cpp:31     .text:0000000000000078 .L0 
     /tmp/ccmmKP5W.s:139    .text:000000000000007c .L0 
     /tmp/ccmmKP5W.s:141    .text:000000000000007c .L0 
     /tmp/ccmmKP5W.s:144    .text:0000000000000084 .L0 
     /tmp/ccmmKP5W.s:148    .text:0000000000000090 .L0 
src/interruptHandler.cpp:35     .text:0000000000000090 .L0 
     /tmp/ccmmKP5W.s:157    .text:0000000000000094 .L0 
     /tmp/ccmmKP5W.s:158    .text:0000000000000094 .L0 
GAS LISTING /tmp/ccmmKP5W.s 			page 6


     /tmp/ccmmKP5W.s:159    .text:0000000000000098 .L0 
     /tmp/ccmmKP5W.s:165    .text:0000000000000098 .L0 
     /tmp/ccmmKP5W.s:53     .text:0000000000000020 .L9
     /tmp/ccmmKP5W.s:98     .text:0000000000000058 .L3
     /tmp/ccmmKP5W.s:129    .text:0000000000000078 .L4
     /tmp/ccmmKP5W.s:82     .text:0000000000000044 .L1
     /tmp/ccmmKP5W.s:552    .debug_abbrev:0000000000000000 .Ldebug_abbrev0
     /tmp/ccmmKP5W.s:1046   .debug_str:0000000000000063 .LASF42
     /tmp/ccmmKP5W.s:1076   .debug_str:000000000000021e .LASF43
     /tmp/ccmmKP5W.s:1108   .debug_str:0000000000000315 .LASF44
     /tmp/ccmmKP5W.s:8      .text:0000000000000000 .Ltext0
     /tmp/ccmmKP5W.s:162    .text:0000000000000098 .Letext0
     /tmp/ccmmKP5W.s:1032   .debug_line:0000000000000000 .Ldebug_line0
     /tmp/ccmmKP5W.s:1090   .debug_str:000000000000028b .LASF0
     /tmp/ccmmKP5W.s:1080   .debug_str:0000000000000249 .LASF1
     /tmp/ccmmKP5W.s:1072   .debug_str:0000000000000204 .LASF2
     /tmp/ccmmKP5W.s:1114   .debug_str:000000000000035d .LASF3
     /tmp/ccmmKP5W.s:1052   .debug_str:000000000000013d .LASF4
     /tmp/ccmmKP5W.s:1078   .debug_str:0000000000000237 .LASF5
     /tmp/ccmmKP5W.s:1040   .debug_str:000000000000004d .LASF6
     /tmp/ccmmKP5W.s:1036   .debug_str:000000000000002a .LASF7
     /tmp/ccmmKP5W.s:1066   .debug_str:00000000000001bc .LASF8
     /tmp/ccmmKP5W.s:1096   .debug_str:00000000000002c1 .LASF9
     /tmp/ccmmKP5W.s:1048   .debug_str:0000000000000127 .LASF10
     /tmp/ccmmKP5W.s:1132   .debug_str:00000000000003e1 .LASF11
     /tmp/ccmmKP5W.s:1068   .debug_str:00000000000001cf .LASF12
     /tmp/ccmmKP5W.s:1120   .debug_str:0000000000000378 .LASF13
     /tmp/ccmmKP5W.s:1102   .debug_str:00000000000002f3 .LASF14
     /tmp/ccmmKP5W.s:1082   .debug_str:000000000000025c .LASF15
     /tmp/ccmmKP5W.s:1062   .debug_str:000000000000019d .LASF16
     /tmp/ccmmKP5W.s:1098   .debug_str:00000000000002d1 .LASF17
     /tmp/ccmmKP5W.s:1064   .debug_str:00000000000001b3 .LASF45
     /tmp/ccmmKP5W.s:1118   .debug_str:000000000000036c .LASF18
     /tmp/ccmmKP5W.s:1042   .debug_str:0000000000000054 .LASF19
     /tmp/ccmmKP5W.s:1130   .debug_str:00000000000003dc .LASF20
     /tmp/ccmmKP5W.s:1104   .debug_str:0000000000000303 .LASF21
     /tmp/ccmmKP5W.s:1038   .debug_str:000000000000003d .LASF32
     /tmp/ccmmKP5W.s:1100   .debug_str:00000000000002e7 .LASF46
     /tmp/ccmmKP5W.s:1094   .debug_str:000000000000029d .LASF47
     /tmp/ccmmKP5W.s:1116   .debug_str:0000000000000363 .LASF22
     /tmp/ccmmKP5W.s:1126   .debug_str:0000000000000397 .LASF24
     /tmp/ccmmKP5W.s:1110   .debug_str:0000000000000325 .LASF23
     /tmp/ccmmKP5W.s:1070   .debug_str:00000000000001de .LASF25
     /tmp/ccmmKP5W.s:1060   .debug_str:0000000000000180 .LASF26
     /tmp/ccmmKP5W.s:1106   .debug_str:0000000000000308 .LASF27
     /tmp/ccmmKP5W.s:1128   .debug_str:00000000000003b7 .LASF28
     /tmp/ccmmKP5W.s:1050   .debug_str:0000000000000135 .LASF29
     /tmp/ccmmKP5W.s:1058   .debug_str:0000000000000161 .LASF30
     /tmp/ccmmKP5W.s:1084   .debug_str:0000000000000268 .LASF34
     /tmp/ccmmKP5W.s:1088   .debug_str:0000000000000286 .LASF31
     /tmp/ccmmKP5W.s:1124   .debug_str:000000000000038d .LASF33
     /tmp/ccmmKP5W.s:1034   .debug_str:0000000000000000 .LASF35
     /tmp/ccmmKP5W.s:1044   .debug_str:0000000000000059 .LASF48
     /tmp/ccmmKP5W.s:1112   .debug_str:0000000000000333 .LASF49
     /tmp/ccmmKP5W.s:1054   .debug_str:0000000000000144 .LASF36
     /tmp/ccmmKP5W.s:13     .text:0000000000000000 .LFB0
     /tmp/ccmmKP5W.s:160    .text:0000000000000098 .LFE0
GAS LISTING /tmp/ccmmKP5W.s 			page 7


     /tmp/ccmmKP5W.s:1056   .debug_str:0000000000000155 .LASF37
     /tmp/ccmmKP5W.s:965    .debug_loc:0000000000000000 .LLST0
     /tmp/ccmmKP5W.s:1122   .debug_str:0000000000000388 .LASF38
     /tmp/ccmmKP5W.s:978    .debug_loc:0000000000000038 .LLST1
     /tmp/ccmmKP5W.s:1092   .debug_str:0000000000000298 .LASF39
     /tmp/ccmmKP5W.s:989    .debug_loc:000000000000006e .LLST2
     /tmp/ccmmKP5W.s:1074   .debug_str:0000000000000212 .LASF40
     /tmp/ccmmKP5W.s:1024   .debug_ranges:0000000000000000 .Ldebug_ranges0
     /tmp/ccmmKP5W.s:1086   .debug_str:0000000000000281 .LASF41
     /tmp/ccmmKP5W.s:996    .debug_loc:0000000000000091 .LLST3
     /tmp/ccmmKP5W.s:114    .text:0000000000000064 .LVL6
     /tmp/ccmmKP5W.s:118    .text:0000000000000070 .LVL7
     /tmp/ccmmKP5W.s:142    .text:0000000000000084 .LVL10
     /tmp/ccmmKP5W.s:146    .text:0000000000000090 .LVL11
     /tmp/ccmmKP5W.s:27     .text:0000000000000004 .LVL0
     /tmp/ccmmKP5W.s:48     .text:0000000000000014 .LVL1
     /tmp/ccmmKP5W.s:75     .text:0000000000000038 .LVL2
     /tmp/ccmmKP5W.s:128    .text:0000000000000078 .LVL8
     /tmp/ccmmKP5W.s:137    .text:000000000000007c .LVL9
     /tmp/ccmmKP5W.s:109    .text:000000000000005c .LVL5
     /tmp/ccmmKP5W.s:81     .text:0000000000000044 .LVL3
     /tmp/ccmmKP5W.s:97     .text:0000000000000058 .LVL4
     /tmp/ccmmKP5W.s:166    .debug_info:0000000000000000 .Ldebug_info0
     /tmp/ccmmKP5W.s:67     .text:0000000000000034 .LBB3
     /tmp/ccmmKP5W.s:83     .text:0000000000000044 .LBE3
     /tmp/ccmmKP5W.s:101    .text:0000000000000058 .LBB4
     /tmp/ccmmKP5W.s:155    .text:0000000000000094 .LBE4

UNDEFINED SYMBOLS
_ZN15MemoryAllocator11getInstanceEv
_ZN15MemoryAllocator8memAllocEm
_ZN15MemoryAllocator4freeEPv
