GAS LISTING /tmp/cca2OYD2.s 			page 1


   1              		.file	"interruptHandler.cpp"
   2              		.option nopic
   3              		.option norelax
   4              		.attribute arch, "rv64i2p0_m2p0_a2p0"
   5              		.attribute unaligned_access, 0
   6              		.attribute stack_align, 16
   7              		.text
   8              	.Ltext0:
   9              		.align	2
  10              		.globl	interruptHandler
  12              	interruptHandler:
  13              	.LFB13:
  14              		.file 1 "src/interruptHandler.cpp"
   1:src/interruptHandler.cpp **** #include "../lib/hw.h"
   2:src/interruptHandler.cpp **** #include "../h/MemoryAllocator.hpp"
   3:src/interruptHandler.cpp **** #include "../h/TCB.hpp"
   4:src/interruptHandler.cpp **** 
   5:src/interruptHandler.cpp **** 
   6:src/interruptHandler.cpp **** extern "C" void interruptHandler() {
  15              		.loc 1 6 36
  16              		.cfi_startproc
   7:src/interruptHandler.cpp ****     uint64 scauseValue;
  17              		.loc 1 7 5
   8:src/interruptHandler.cpp ****     void* addr;
  18              		.loc 1 8 5
   9:src/interruptHandler.cpp ****     size_t size;
  19              		.loc 1 9 5
  10:src/interruptHandler.cpp ****     int returnValue;
  20              		.loc 1 10 5
  11:src/interruptHandler.cpp **** 
  12:src/interruptHandler.cpp ****     __asm__ volatile("csrr %[scause], scause": [scause] "=r" (scauseValue));
  21              		.loc 1 12 5
  22              		.loc 1 12 76 is_stmt 0
  23              	 #APP
  24              	# 12 "src/interruptHandler.cpp" 1
  13              	
  25              		csrr a5, scause
  26              	# 0 "" 2
  27              	.LVL0:
  14:src/interruptHandler.cpp ****     //increment PC
  15:src/interruptHandler.cpp ****     __asm__ volatile("csrr t0,sepc");
  28              		.loc 1 15 5 is_stmt 1
  29              		.loc 1 15 37 is_stmt 0
  30              	# 15 "src/interruptHandler.cpp" 1
  16              	    __asm__ volatile("addi t0,t0,4");
  31              		csrr t0,sepc
  32              	# 0 "" 2
  33              		.loc 1 16 5 is_stmt 1
  34              		.loc 1 16 37 is_stmt 0
  35              	# 16 "src/interruptHandler.cpp" 1
  17              	    __asm__ volatile("csrw sepc,t0");
  36              		addi t0,t0,4
  37              	# 0 "" 2
  38              		.loc 1 17 5 is_stmt 1
  39              		.loc 1 17 37 is_stmt 0
  40              	# 17 "src/interruptHandler.cpp" 1
  18              	    //I am not sure why the value 0x09 is inside my scause if I call this from user space,
GAS LISTING /tmp/cca2OYD2.s 			page 2


  19:src/interruptHandler.cpp ****     // but I will figure that out later
  20:src/interruptHandler.cpp ****     //I was stupid becusae I am calling form privilege regime so thats why its 9 instead of 8 I nee
  21:src/interruptHandler.cpp ****     if (scauseValue == (0x01<<3 | 0x01) || scauseValue == (0x01<<3)) {
  41              		csrw sepc,t0
  42              	# 0 "" 2
  43              		.loc 1 21 5 is_stmt 1
  44              	 #NO_APP
  45              	.LBB2:
  46              		.loc 1 21 41 is_stmt 0
  47 0010 938787FF 		addi	a5,a5,-8
  48              	.LVL1:
  49              		.loc 1 21 5
  50 0014 13071000 		li	a4,1
  51 0018 6374F700 		bleu	a5,a4,.L9
  52 001c 67800000 		ret
  53              	.L9:
  54              	.LBE2:
   6:src/interruptHandler.cpp ****     uint64 scauseValue;
  55              		.loc 1 6 36
  56 0020 130101FE 		addi	sp,sp,-32
  57              		.cfi_def_cfa_offset 32
  58 0024 233C1100 		sd	ra,24(sp)
  59 0028 23388100 		sd	s0,16(sp)
  60 002c 23349100 		sd	s1,8(sp)
  61              		.cfi_offset 1, -8
  62              		.cfi_offset 8, -16
  63              		.cfi_offset 9, -24
  64 0030 13040102 		addi	s0,sp,32
  65              		.cfi_def_cfa 8, 0
  66              	.LBB5:
  67              	.LBB3:
  22:src/interruptHandler.cpp ****         //ecall iz korisnickog rezima
  23:src/interruptHandler.cpp ****         uint64 code;
  68              		.loc 1 23 9 is_stmt 1
  24:src/interruptHandler.cpp ****         //big swittch with C API codes
  25:src/interruptHandler.cpp ****         __asm__ volatile("mv %0, a0" : "=r" (code) );
  69              		.loc 1 25 9
  70              		.loc 1 25 53 is_stmt 0
  71              	 #APP
  72              	# 25 "src/interruptHandler.cpp" 1
  26              	        switch (code) {
  73              		mv a5, a0
  74              	# 0 "" 2
  75              	.LVL2:
  76              		.loc 1 26 9 is_stmt 1
  77              	 #NO_APP
  78 0038 13072000 		li	a4,2
  79 003c 6384E704 		beq	a5,a4,.L3
  80 0040 13071001 		li	a4,17
  81 0044 6380E706 		beq	a5,a4,.L4
  82 0048 13071000 		li	a4,1
  83 004c 638CE700 		beq	a5,a4,.L10
  84              	.LVL3:
  85              	.L1:
  86              	.LBE3:
  87              	.LBE5:
  27:src/interruptHandler.cpp ****             case 0x01:
GAS LISTING /tmp/cca2OYD2.s 			page 3


  28:src/interruptHandler.cpp ****                 //write from a1 to size
  29:src/interruptHandler.cpp ****                 __asm__ volatile ("mv %0, a1" : "=r" (size) );
  30:src/interruptHandler.cpp ****                 addr=MemoryAllocator::getInstance().memAlloc(size);
  31:src/interruptHandler.cpp ****                 //write to a0 return value
  32:src/interruptHandler.cpp ****                 __asm__ volatile ("mv a0, %0" : : "r" (addr));
  33:src/interruptHandler.cpp ****                 break;
  34:src/interruptHandler.cpp ****             case 0x02:
  35:src/interruptHandler.cpp ****                 //write from a1 to addr
  36:src/interruptHandler.cpp ****                 __asm__ volatile ("mv %0, a1" : "=r" (addr));
  37:src/interruptHandler.cpp **** 
  38:src/interruptHandler.cpp ****                 returnValue=MemoryAllocator::getInstance().free(addr);
  39:src/interruptHandler.cpp ****                 //write to a0 return value
  40:src/interruptHandler.cpp ****                 __asm__ volatile ("mv a0, %0" : : "r" (returnValue));
  41:src/interruptHandler.cpp ****                 break;
  42:src/interruptHandler.cpp **** 
  43:src/interruptHandler.cpp ****             //thread_create
  44:src/interruptHandler.cpp **** 			case 0x011:
  45:src/interruptHandler.cpp **** 				//I dont know if I should I allocate here the stack for the thread on in the syscall_c file whe
  46:src/interruptHandler.cpp **** 				__asm__ volatile ("mv %0, a1" : "=r" (addr));
  47:src/interruptHandler.cpp **** 				__asm__ volatile ("mv %0, a2" : "=r" (addr));
  48:src/interruptHandler.cpp **** 
  49:src/interruptHandler.cpp ****                 break;
  50:src/interruptHandler.cpp ****             //thread_exit
  51:src/interruptHandler.cpp ****             case 0x012:
  52:src/interruptHandler.cpp ****                 break;
  53:src/interruptHandler.cpp ****             //thread_dispatch
  54:src/interruptHandler.cpp ****             case 0x013:
  55:src/interruptHandler.cpp ****                 break;
  56:src/interruptHandler.cpp **** 
  57:src/interruptHandler.cpp ****         }
  58:src/interruptHandler.cpp ****     }
  59:src/interruptHandler.cpp ****     else {
  60:src/interruptHandler.cpp ****         //i will need to add other traps
  61:src/interruptHandler.cpp ****     }
  62:src/interruptHandler.cpp **** }
  88              		.loc 1 62 1 is_stmt 0
  89 0050 83308101 		ld	ra,24(sp)
  90              		.cfi_remember_state
  91              		.cfi_restore 1
  92 0054 03340101 		ld	s0,16(sp)
  93              		.cfi_restore 8
  94              		.cfi_def_cfa 2, 32
  95 0058 83348100 		ld	s1,8(sp)
  96              		.cfi_restore 9
  97 005c 13010102 		addi	sp,sp,32
  98              		.cfi_def_cfa_offset 0
  99 0060 67800000 		jr	ra
 100              	.LVL4:
 101              	.L10:
 102              		.cfi_restore_state
 103              	.LBB6:
 104              	.LBB4:
  27:src/interruptHandler.cpp ****             case 0x01:
 105              		.loc 1 27 13 is_stmt 1
  29:src/interruptHandler.cpp ****                 addr=MemoryAllocator::getInstance().memAlloc(size);
 106              		.loc 1 29 17
  29:src/interruptHandler.cpp ****                 addr=MemoryAllocator::getInstance().memAlloc(size);
GAS LISTING /tmp/cca2OYD2.s 			page 4


 107              		.loc 1 29 62 is_stmt 0
 108              	 #APP
 109              	# 29 "src/interruptHandler.cpp" 1
 110              		mv s1, a1
 111              	# 0 "" 2
 112              	.LVL5:
  30:src/interruptHandler.cpp ****                 //write to a0 return value
 113              		.loc 1 30 17 is_stmt 1
  30:src/interruptHandler.cpp ****                 //write to a0 return value
 114              		.loc 1 30 51 is_stmt 0
 115              	 #NO_APP
 116 0068 97000000 		call	_ZN15MemoryAllocator11getInstanceEv
 116      E7800000 
 117              	.LVL6:
  30:src/interruptHandler.cpp ****                 //write to a0 return value
 118              		.loc 1 30 61
 119 0070 93850400 		mv	a1,s1
 120 0074 97000000 		call	_ZN15MemoryAllocator8memAllocEm
 120      E7800000 
 121              	.LVL7:
  32:src/interruptHandler.cpp ****                 break;
 122              		.loc 1 32 17 is_stmt 1
  32:src/interruptHandler.cpp ****                 break;
 123              		.loc 1 32 62 is_stmt 0
 124              	 #APP
 125              	# 32 "src/interruptHandler.cpp" 1
  33:src/interruptHandler.cpp ****             case 0x02:
 126              		mv a0, a0
 127              	# 0 "" 2
 128              		.loc 1 33 17 is_stmt 1
 129              	 #NO_APP
 130 0080 6FF01FFD 		j	.L1
 131              	.LVL8:
 132              	.L3:
  34:src/interruptHandler.cpp ****                 //write from a1 to addr
 133              		.loc 1 34 13
  36:src/interruptHandler.cpp **** 
 134              		.loc 1 36 17
  36:src/interruptHandler.cpp **** 
 135              		.loc 1 36 61 is_stmt 0
 136              	 #APP
 137              	# 36 "src/interruptHandler.cpp" 1
 138              		mv s1, a1
 139              	# 0 "" 2
 140              	.LVL9:
  38:src/interruptHandler.cpp ****                 //write to a0 return value
 141              		.loc 1 38 17 is_stmt 1
  38:src/interruptHandler.cpp ****                 //write to a0 return value
 142              		.loc 1 38 58 is_stmt 0
 143              	 #NO_APP
 144 0088 97000000 		call	_ZN15MemoryAllocator11getInstanceEv
 144      E7800000 
 145              	.LVL10:
  38:src/interruptHandler.cpp ****                 //write to a0 return value
 146              		.loc 1 38 64
 147 0090 93850400 		mv	a1,s1
 148 0094 97000000 		call	_ZN15MemoryAllocator4freeEPv
GAS LISTING /tmp/cca2OYD2.s 			page 5


 148      E7800000 
 149              	.LVL11:
  40:src/interruptHandler.cpp ****                 break;
 150              		.loc 1 40 17 is_stmt 1
  40:src/interruptHandler.cpp ****                 break;
 151              		.loc 1 40 69 is_stmt 0
 152              	 #APP
 153              	# 40 "src/interruptHandler.cpp" 1
  41:src/interruptHandler.cpp **** 
 154              		mv a0, a0
 155              	# 0 "" 2
 156              		.loc 1 41 17 is_stmt 1
 157              	 #NO_APP
 158 00a0 6FF01FFB 		j	.L1
 159              	.LVL12:
 160              	.L4:
  44:src/interruptHandler.cpp **** 				//I dont know if I should I allocate here the stack for the thread on in the syscall_c file whe
 161              		.loc 1 44 4
  46:src/interruptHandler.cpp **** 				__asm__ volatile ("mv %0, a2" : "=r" (addr));
 162              		.loc 1 46 5
  46:src/interruptHandler.cpp **** 				__asm__ volatile ("mv %0, a2" : "=r" (addr));
 163              		.loc 1 46 49 is_stmt 0
 164              	 #APP
 165              	# 46 "src/interruptHandler.cpp" 1
 166              		mv a5, a1
 167              	# 0 "" 2
 168              	.LVL13:
  47:src/interruptHandler.cpp **** 
 169              		.loc 1 47 5 is_stmt 1
  47:src/interruptHandler.cpp **** 
 170              		.loc 1 47 49 is_stmt 0
 171              	# 47 "src/interruptHandler.cpp" 1
  49:src/interruptHandler.cpp ****             //thread_exit
 172              		mv a5, a2
 173              	# 0 "" 2
 174              		.loc 1 49 17 is_stmt 1
 175              	 #NO_APP
 176              	.LBE4:
 177              	.LBE6:
 178              		.loc 1 62 1 is_stmt 0
 179 00ac 6FF05FFA 		j	.L1
 180              		.cfi_endproc
 181              	.LFE13:
 183              	.Letext0:
 184              		.file 2 "src/../lib/hw.h"
 185              		.file 3 "src/../h/MemoryAllocator.hpp"
GAS LISTING /tmp/cca2OYD2.s 			page 6


DEFINED SYMBOLS
                            *ABS*:0000000000000000 interruptHandler.cpp
     /tmp/cca2OYD2.s:12     .text:0000000000000000 interruptHandler
     /tmp/cca2OYD2.s:16     .text:0000000000000000 .L0 
     /tmp/cca2OYD2.s:17     .text:0000000000000000 .L0 
     /tmp/cca2OYD2.s:18     .text:0000000000000000 .L0 
     /tmp/cca2OYD2.s:19     .text:0000000000000000 .L0 
     /tmp/cca2OYD2.s:20     .text:0000000000000000 .L0 
     /tmp/cca2OYD2.s:21     .text:0000000000000000 .L0 
     /tmp/cca2OYD2.s:22     .text:0000000000000000 .L0 
src/interruptHandler.cpp:12     .text:0000000000000000 .L0 
     /tmp/cca2OYD2.s:29     .text:0000000000000004 .L0 
src/interruptHandler.cpp:15     .text:0000000000000004 .L0 
     /tmp/cca2OYD2.s:34     .text:0000000000000008 .L0 
src/interruptHandler.cpp:16     .text:0000000000000008 .L0 
     /tmp/cca2OYD2.s:39     .text:000000000000000c .L0 
src/interruptHandler.cpp:17     .text:000000000000000c .L0 
     /tmp/cca2OYD2.s:46     .text:0000000000000010 .L0 
     /tmp/cca2OYD2.s:47     .text:0000000000000010 .L0 
     /tmp/cca2OYD2.s:50     .text:0000000000000014 .L0 
     /tmp/cca2OYD2.s:56     .text:0000000000000020 .L0 
     /tmp/cca2OYD2.s:57     .text:0000000000000024 .L0 
     /tmp/cca2OYD2.s:61     .text:0000000000000030 .L0 
     /tmp/cca2OYD2.s:62     .text:0000000000000030 .L0 
     /tmp/cca2OYD2.s:63     .text:0000000000000030 .L0 
     /tmp/cca2OYD2.s:65     .text:0000000000000034 .L0 
     /tmp/cca2OYD2.s:69     .text:0000000000000034 .L0 
     /tmp/cca2OYD2.s:70     .text:0000000000000034 .L0 
src/interruptHandler.cpp:25     .text:0000000000000034 .L0 
     /tmp/cca2OYD2.s:78     .text:0000000000000038 .L0 
     /tmp/cca2OYD2.s:89     .text:0000000000000050 .L0 
     /tmp/cca2OYD2.s:90     .text:0000000000000054 .L0 
     /tmp/cca2OYD2.s:91     .text:0000000000000054 .L0 
     /tmp/cca2OYD2.s:93     .text:0000000000000058 .L0 
     /tmp/cca2OYD2.s:94     .text:0000000000000058 .L0 
     /tmp/cca2OYD2.s:96     .text:000000000000005c .L0 
     /tmp/cca2OYD2.s:98     .text:0000000000000060 .L0 
     /tmp/cca2OYD2.s:102    .text:0000000000000064 .L0 
     /tmp/cca2OYD2.s:106    .text:0000000000000064 .L0 
     /tmp/cca2OYD2.s:107    .text:0000000000000064 .L0 
src/interruptHandler.cpp:29     .text:0000000000000064 .L0 
     /tmp/cca2OYD2.s:114    .text:0000000000000068 .L0 
     /tmp/cca2OYD2.s:116    .text:0000000000000068 .L0 
     /tmp/cca2OYD2.s:119    .text:0000000000000070 .L0 
     /tmp/cca2OYD2.s:123    .text:000000000000007c .L0 
src/interruptHandler.cpp:32     .text:000000000000007c .L0 
     /tmp/cca2OYD2.s:130    .text:0000000000000080 .L0 
     /tmp/cca2OYD2.s:134    .text:0000000000000084 .L0 
     /tmp/cca2OYD2.s:135    .text:0000000000000084 .L0 
src/interruptHandler.cpp:36     .text:0000000000000084 .L0 
     /tmp/cca2OYD2.s:142    .text:0000000000000088 .L0 
     /tmp/cca2OYD2.s:144    .text:0000000000000088 .L0 
     /tmp/cca2OYD2.s:147    .text:0000000000000090 .L0 
     /tmp/cca2OYD2.s:151    .text:000000000000009c .L0 
src/interruptHandler.cpp:40     .text:000000000000009c .L0 
     /tmp/cca2OYD2.s:158    .text:00000000000000a0 .L0 
     /tmp/cca2OYD2.s:162    .text:00000000000000a4 .L0 
GAS LISTING /tmp/cca2OYD2.s 			page 7


     /tmp/cca2OYD2.s:163    .text:00000000000000a4 .L0 
src/interruptHandler.cpp:46     .text:00000000000000a4 .L0 
     /tmp/cca2OYD2.s:170    .text:00000000000000a8 .L0 
src/interruptHandler.cpp:47     .text:00000000000000a8 .L0 
     /tmp/cca2OYD2.s:178    .text:00000000000000ac .L0 
     /tmp/cca2OYD2.s:179    .text:00000000000000ac .L0 
     /tmp/cca2OYD2.s:180    .text:00000000000000b0 .L0 
     /tmp/cca2OYD2.s:186    .text:00000000000000b0 .L0 
     /tmp/cca2OYD2.s:53     .text:0000000000000020 .L9
     /tmp/cca2OYD2.s:132    .text:0000000000000084 .L3
     /tmp/cca2OYD2.s:160    .text:00000000000000a4 .L4
     /tmp/cca2OYD2.s:101    .text:0000000000000064 .L10
     /tmp/cca2OYD2.s:85     .text:0000000000000050 .L1
     /tmp/cca2OYD2.s:550    .debug_abbrev:0000000000000000 .Ldebug_abbrev0
     /tmp/cca2OYD2.s:1028   .debug_str:0000000000000010 .LASF39
     /tmp/cca2OYD2.s:1092   .debug_str:00000000000002ab .LASF40
     /tmp/cca2OYD2.s:1044   .debug_str:000000000000012a .LASF41
     /tmp/cca2OYD2.s:8      .text:0000000000000000 .Ltext0
     /tmp/cca2OYD2.s:183    .text:00000000000000b0 .Letext0
     /tmp/cca2OYD2.s:1024   .debug_line:0000000000000000 .Ldebug_line0
     /tmp/cca2OYD2.s:1076   .debug_str:000000000000020f .LASF0
     /tmp/cca2OYD2.s:1080   .debug_str:0000000000000221 .LASF1
     /tmp/cca2OYD2.s:1068   .debug_str:00000000000001db .LASF2
     /tmp/cca2OYD2.s:1050   .debug_str:000000000000016d .LASF3
     /tmp/cca2OYD2.s:1058   .debug_str:000000000000018b .LASF4
     /tmp/cca2OYD2.s:1100   .debug_str:0000000000000321 .LASF5
     /tmp/cca2OYD2.s:1030   .debug_str:00000000000000d4 .LASF6
     /tmp/cca2OYD2.s:1082   .debug_str:0000000000000234 .LASF7
     /tmp/cca2OYD2.s:1074   .debug_str:00000000000001fc .LASF8
     /tmp/cca2OYD2.s:1112   .debug_str:000000000000036b .LASF9
     /tmp/cca2OYD2.s:1056   .debug_str:000000000000017d .LASF10
     /tmp/cca2OYD2.s:1086   .debug_str:0000000000000271 .LASF11
     /tmp/cca2OYD2.s:1110   .debug_str:000000000000035c .LASF12
     /tmp/cca2OYD2.s:1032   .debug_str:00000000000000db .LASF13
     /tmp/cca2OYD2.s:1026   .debug_str:0000000000000000 .LASF14
     /tmp/cca2OYD2.s:1036   .debug_str:00000000000000f7 .LASF15
     /tmp/cca2OYD2.s:1096   .debug_str:00000000000002e1 .LASF16
     /tmp/cca2OYD2.s:1040   .debug_str:000000000000010f .LASF17
     /tmp/cca2OYD2.s:1062   .debug_str:00000000000001b6 .LASF42
     /tmp/cca2OYD2.s:1038   .debug_str:0000000000000103 .LASF18
     /tmp/cca2OYD2.s:1118   .debug_str:00000000000003a0 .LASF19
     /tmp/cca2OYD2.s:1116   .debug_str:000000000000039b .LASF20
     /tmp/cca2OYD2.s:1052   .debug_str:0000000000000173 .LASF21
     /tmp/cca2OYD2.s:1064   .debug_str:00000000000001bf .LASF28
     /tmp/cca2OYD2.s:1108   .debug_str:0000000000000350 .LASF43
     /tmp/cca2OYD2.s:1060   .debug_str:0000000000000192 .LASF44
     /tmp/cca2OYD2.s:1072   .debug_str:00000000000001f3 .LASF22
     /tmp/cca2OYD2.s:1114   .debug_str:000000000000037b .LASF24
     /tmp/cca2OYD2.s:1106   .debug_str:0000000000000342 .LASF23
     /tmp/cca2OYD2.s:1090   .debug_str:0000000000000285 .LASF25
     /tmp/cca2OYD2.s:1094   .debug_str:00000000000002c4 .LASF26
     /tmp/cca2OYD2.s:1048   .debug_str:0000000000000154 .LASF30
     /tmp/cca2OYD2.s:1042   .debug_str:0000000000000125 .LASF27
     /tmp/cca2OYD2.s:1102   .debug_str:0000000000000333 .LASF29
     /tmp/cca2OYD2.s:1098   .debug_str:00000000000002f7 .LASF31
     /tmp/cca2OYD2.s:1070   .debug_str:00000000000001e9 .LASF45
     /tmp/cca2OYD2.s:1084   .debug_str:0000000000000247 .LASF46
GAS LISTING /tmp/cca2OYD2.s 			page 8


     /tmp/cca2OYD2.s:1054   .debug_str:0000000000000178 .LASF32
     /tmp/cca2OYD2.s:1046   .debug_str:0000000000000143 .LASF33
     /tmp/cca2OYD2.s:13     .text:0000000000000000 .LFB13
     /tmp/cca2OYD2.s:181    .text:00000000000000b0 .LFE13
     /tmp/cca2OYD2.s:1034   .debug_str:00000000000000eb .LASF34
     /tmp/cca2OYD2.s:946    .debug_loc:0000000000000000 .LLST0
     /tmp/cca2OYD2.s:1088   .debug_str:0000000000000280 .LASF35
     /tmp/cca2OYD2.s:959    .debug_loc:0000000000000038 .LLST1
     /tmp/cca2OYD2.s:1104   .debug_str:000000000000033d .LASF36
     /tmp/cca2OYD2.s:970    .debug_loc:000000000000006e .LLST2
     /tmp/cca2OYD2.s:1066   .debug_str:00000000000001cf .LASF37
     /tmp/cca2OYD2.s:977    .debug_loc:0000000000000091 .LLST3
     /tmp/cca2OYD2.s:1016   .debug_ranges:0000000000000000 .Ldebug_ranges0
     /tmp/cca2OYD2.s:1078   .debug_str:000000000000021c .LASF38
     /tmp/cca2OYD2.s:984    .debug_loc:00000000000000b4 .LLST4
     /tmp/cca2OYD2.s:117    .text:0000000000000070 .LVL6
     /tmp/cca2OYD2.s:121    .text:000000000000007c .LVL7
     /tmp/cca2OYD2.s:145    .text:0000000000000090 .LVL10
     /tmp/cca2OYD2.s:149    .text:000000000000009c .LVL11
     /tmp/cca2OYD2.s:27     .text:0000000000000004 .LVL0
     /tmp/cca2OYD2.s:48     .text:0000000000000014 .LVL1
     /tmp/cca2OYD2.s:75     .text:0000000000000038 .LVL2
     /tmp/cca2OYD2.s:131    .text:0000000000000084 .LVL8
     /tmp/cca2OYD2.s:140    .text:0000000000000088 .LVL9
     /tmp/cca2OYD2.s:159    .text:00000000000000a4 .LVL12
     /tmp/cca2OYD2.s:112    .text:0000000000000068 .LVL5
     /tmp/cca2OYD2.s:84     .text:0000000000000050 .LVL3
     /tmp/cca2OYD2.s:100    .text:0000000000000064 .LVL4
     /tmp/cca2OYD2.s:168    .text:00000000000000a8 .LVL13
     /tmp/cca2OYD2.s:187    .debug_info:0000000000000000 .Ldebug_info0
     /tmp/cca2OYD2.s:67     .text:0000000000000034 .LBB3
     /tmp/cca2OYD2.s:86     .text:0000000000000050 .LBE3
     /tmp/cca2OYD2.s:104    .text:0000000000000064 .LBB4
     /tmp/cca2OYD2.s:176    .text:00000000000000ac .LBE4

UNDEFINED SYMBOLS
_ZN15MemoryAllocator11getInstanceEv
_ZN15MemoryAllocator8memAllocEm
_ZN15MemoryAllocator4freeEPv
