GAS LISTING /tmp/ccmmKP5W.s 			page 1


   1              		.file	"interruptHandler.cpp"
   2              		.option nopic
   3              		.option norelax
   4              		.attribute arch, "rv64i2p0_m2p0_a2p0"
   5              		.attribute unaligned_access, 0
   6              		.attribute stack_align, 16
   7              		.text
   8              	.Ltext0:
   9              		.align	2
  10              		.globl	interruptHandler
  12              	interruptHandler:
  13              	.LFB0:
  14              		.file 1 "src/interruptHandler.cpp"
   1:src/interruptHandler.cpp **** #include "../lib/hw.h"
   2:src/interruptHandler.cpp **** #include "../h/MemoryAllocator.hpp"
   3:src/interruptHandler.cpp **** 
   4:src/interruptHandler.cpp **** 
   5:src/interruptHandler.cpp **** extern "C" void interruptHandler() {
  15              		.loc 1 5 36
  16              		.cfi_startproc
   6:src/interruptHandler.cpp ****     uint64 scauseValue;
  17              		.loc 1 6 5
   7:src/interruptHandler.cpp ****     void* addr;
  18              		.loc 1 7 5
   8:src/interruptHandler.cpp ****     size_t size;
  19              		.loc 1 8 5
   9:src/interruptHandler.cpp ****     int returnValue;
  20              		.loc 1 9 5
  10:src/interruptHandler.cpp **** 
  11:src/interruptHandler.cpp ****     __asm__ volatile("csrr %[scause], scause": [scause] "=r" (scauseValue));
  21              		.loc 1 11 5
  22              		.loc 1 11 76 is_stmt 0
  23              	 #APP
  24              	# 11 "src/interruptHandler.cpp" 1
  12              	    __asm__ volatile("csrr t0,sepc");
  25              		csrr a5, scause
  26              	# 0 "" 2
  27              	.LVL0:
  28              		.loc 1 12 5 is_stmt 1
  29              		.loc 1 12 37 is_stmt 0
  30              	# 12 "src/interruptHandler.cpp" 1
  13              	    __asm__ volatile("addi t0,t0,4");
  31              		csrr t0,sepc
  32              	# 0 "" 2
  33              		.loc 1 13 5 is_stmt 1
  34              		.loc 1 13 37 is_stmt 0
  35              	# 13 "src/interruptHandler.cpp" 1
  14              	    __asm__ volatile("csrw sepc,t0");
  36              		addi t0,t0,4
  37              	# 0 "" 2
  38              		.loc 1 14 5 is_stmt 1
  39              		.loc 1 14 37 is_stmt 0
  40              	# 14 "src/interruptHandler.cpp" 1
  15              	    if (scauseValue == (0x01<<3 | 0x01) || scauseValue == (0x01<<3)) {
  41              		csrw sepc,t0
  42              	# 0 "" 2
  43              		.loc 1 15 5 is_stmt 1
GAS LISTING /tmp/ccmmKP5W.s 			page 2


  44              	 #NO_APP
  45              	.LBB2:
  46              		.loc 1 15 41 is_stmt 0
  47 0010 938787FF 		addi	a5,a5,-8
  48              	.LVL1:
  49              		.loc 1 15 5
  50 0014 13071000 		li	a4,1
  51 0018 6374F700 		bleu	a5,a4,.L9
  52 001c 67800000 		ret
  53              	.L9:
  54              	.LBE2:
   5:src/interruptHandler.cpp ****     uint64 scauseValue;
  55              		.loc 1 5 36
  56 0020 130101FE 		addi	sp,sp,-32
  57              		.cfi_def_cfa_offset 32
  58 0024 233C1100 		sd	ra,24(sp)
  59 0028 23388100 		sd	s0,16(sp)
  60 002c 23349100 		sd	s1,8(sp)
  61              		.cfi_offset 1, -8
  62              		.cfi_offset 8, -16
  63              		.cfi_offset 9, -24
  64 0030 13040102 		addi	s0,sp,32
  65              		.cfi_def_cfa 8, 0
  66              	.LBB5:
  67              	.LBB3:
  16:src/interruptHandler.cpp ****         //ecall iz korisnickog rezima
  17:src/interruptHandler.cpp ****         uint64 code;
  68              		.loc 1 17 9 is_stmt 1
  18:src/interruptHandler.cpp ****         //big swittch with C API codes
  19:src/interruptHandler.cpp ****         __asm__ volatile("mv %0, a0" : "=r" (code) );
  69              		.loc 1 19 9
  70              		.loc 1 19 53 is_stmt 0
  71              	 #APP
  72              	# 19 "src/interruptHandler.cpp" 1
  20              	        switch (code) {
  73              		mv a5, a0
  74              	# 0 "" 2
  75              	.LVL2:
  76              		.loc 1 20 9 is_stmt 1
  77              	 #NO_APP
  78 0038 6380E702 		beq	a5,a4,.L3
  79 003c 13072000 		li	a4,2
  80 0040 638CE702 		beq	a5,a4,.L4
  81              	.LVL3:
  82              	.L1:
  83              	.LBE3:
  84              	.LBE5:
  21:src/interruptHandler.cpp ****             case 0x01:
  22:src/interruptHandler.cpp ****                 //write from a1 to size
  23:src/interruptHandler.cpp ****                 __asm__ volatile ("mv %0, a1" : "=r" (size) );
  24:src/interruptHandler.cpp ****                 addr=MemoryAllocator::getInstance().memAlloc(size);
  25:src/interruptHandler.cpp ****                 //write to a0 return value
  26:src/interruptHandler.cpp ****                 __asm__ volatile ("mv a0, %0" : : "r" (addr));
  27:src/interruptHandler.cpp ****                 break;
  28:src/interruptHandler.cpp ****             case 0x02:
  29:src/interruptHandler.cpp **** 
  30:src/interruptHandler.cpp ****                 //write from a1 to addr
GAS LISTING /tmp/ccmmKP5W.s 			page 3


  31:src/interruptHandler.cpp ****                 __asm__ volatile ("mv %0, a1" : "=r" (addr));
  32:src/interruptHandler.cpp **** 
  33:src/interruptHandler.cpp ****                 returnValue=MemoryAllocator::getInstance().free(addr);
  34:src/interruptHandler.cpp ****                 //write to a0 return value
  35:src/interruptHandler.cpp ****                 __asm__ volatile ("mv a0, %0" : : "r" (returnValue));
  36:src/interruptHandler.cpp ****                 break;
  37:src/interruptHandler.cpp ****         }
  38:src/interruptHandler.cpp ****     }
  39:src/interruptHandler.cpp ****     else {
  40:src/interruptHandler.cpp ****         //i will need to add other traps
  41:src/interruptHandler.cpp ****     }
  42:src/interruptHandler.cpp **** }
  85              		.loc 1 42 1 is_stmt 0
  86 0044 83308101 		ld	ra,24(sp)
  87              		.cfi_remember_state
  88              		.cfi_restore 1
  89 0048 03340101 		ld	s0,16(sp)
  90              		.cfi_restore 8
  91              		.cfi_def_cfa 2, 32
  92 004c 83348100 		ld	s1,8(sp)
  93              		.cfi_restore 9
  94 0050 13010102 		addi	sp,sp,32
  95              		.cfi_def_cfa_offset 0
  96 0054 67800000 		jr	ra
  97              	.LVL4:
  98              	.L3:
  99              		.cfi_restore_state
 100              	.LBB6:
 101              	.LBB4:
  21:src/interruptHandler.cpp ****             case 0x01:
 102              		.loc 1 21 13 is_stmt 1
  23:src/interruptHandler.cpp ****                 addr=MemoryAllocator::getInstance().memAlloc(size);
 103              		.loc 1 23 17
  23:src/interruptHandler.cpp ****                 addr=MemoryAllocator::getInstance().memAlloc(size);
 104              		.loc 1 23 62 is_stmt 0
 105              	 #APP
 106              	# 23 "src/interruptHandler.cpp" 1
 107              		mv s1, a1
 108              	# 0 "" 2
 109              	.LVL5:
  24:src/interruptHandler.cpp ****                 //write to a0 return value
 110              		.loc 1 24 17 is_stmt 1
  24:src/interruptHandler.cpp ****                 //write to a0 return value
 111              		.loc 1 24 51 is_stmt 0
 112              	 #NO_APP
 113 005c 97000000 		call	_ZN15MemoryAllocator11getInstanceEv
 113      E7800000 
 114              	.LVL6:
  24:src/interruptHandler.cpp ****                 //write to a0 return value
 115              		.loc 1 24 61
 116 0064 93850400 		mv	a1,s1
 117 0068 97000000 		call	_ZN15MemoryAllocator8memAllocEm
 117      E7800000 
 118              	.LVL7:
  26:src/interruptHandler.cpp ****                 break;
 119              		.loc 1 26 17 is_stmt 1
  26:src/interruptHandler.cpp ****                 break;
GAS LISTING /tmp/ccmmKP5W.s 			page 4


 120              		.loc 1 26 62 is_stmt 0
 121              	 #APP
 122              	# 26 "src/interruptHandler.cpp" 1
  27:src/interruptHandler.cpp ****             case 0x02:
 123              		mv a0, a0
 124              	# 0 "" 2
 125              		.loc 1 27 17 is_stmt 1
 126              	 #NO_APP
 127 0074 6FF01FFD 		j	.L1
 128              	.LVL8:
 129              	.L4:
  28:src/interruptHandler.cpp **** 
 130              		.loc 1 28 13
  31:src/interruptHandler.cpp **** 
 131              		.loc 1 31 17
  31:src/interruptHandler.cpp **** 
 132              		.loc 1 31 61 is_stmt 0
 133              	 #APP
 134              	# 31 "src/interruptHandler.cpp" 1
 135              		mv s1, a1
 136              	# 0 "" 2
 137              	.LVL9:
  33:src/interruptHandler.cpp ****                 //write to a0 return value
 138              		.loc 1 33 17 is_stmt 1
  33:src/interruptHandler.cpp ****                 //write to a0 return value
 139              		.loc 1 33 58 is_stmt 0
 140              	 #NO_APP
 141 007c 97000000 		call	_ZN15MemoryAllocator11getInstanceEv
 141      E7800000 
 142              	.LVL10:
  33:src/interruptHandler.cpp ****                 //write to a0 return value
 143              		.loc 1 33 64
 144 0084 93850400 		mv	a1,s1
 145 0088 97000000 		call	_ZN15MemoryAllocator4freeEPv
 145      E7800000 
 146              	.LVL11:
  35:src/interruptHandler.cpp ****                 break;
 147              		.loc 1 35 17 is_stmt 1
  35:src/interruptHandler.cpp ****                 break;
 148              		.loc 1 35 69 is_stmt 0
 149              	 #APP
 150              	# 35 "src/interruptHandler.cpp" 1
  36:src/interruptHandler.cpp ****         }
 151              		mv a0, a0
 152              	# 0 "" 2
 153              		.loc 1 36 17 is_stmt 1
 154              	 #NO_APP
 155              	.LBE4:
 156              	.LBE6:
 157              		.loc 1 42 1 is_stmt 0
 158 0094 6FF01FFB 		j	.L1
 159              		.cfi_endproc
 160              	.LFE0:
 162              	.Letext0:
 163              		.file 2 "src/../lib/hw.h"
 164              		.file 3 "src/../h/MemoryAllocator.hpp"
GAS LISTING /tmp/ccmmKP5W.s 			page 5

