GAS LISTING /tmp/ccKoE37O.s 			page 1


   1              		.file	"main.cpp"
   2              		.option nopic
   3              		.option norelax
   4              		.attribute arch, "rv64i2p0_m2p0_a2p0"
   5              		.attribute unaligned_access, 0
   6              		.attribute stack_align, 16
   7              		.text
   8              	.Ltext0:
   9              		.align	2
  10              		.globl	_Z9fibonaccim
  12              	_Z9fibonaccim:
  13              	.LFB13:
  14              		.file 1 "src/main.cpp"
   1:src/main.cpp  **** #include "../h/TCB.hpp"
   2:src/main.cpp  **** #include "../lib/hw.h"
   3:src/main.cpp  **** #include "../h/printHelper.hpp"
   4:src/main.cpp  **** 
   5:src/main.cpp  **** uint64 fibonacci(uint64 n) {
  15              		.loc 1 5 28
  16              		.cfi_startproc
  17              	.LVL0:
  18 0000 130101FE 		addi	sp,sp,-32
  19              		.cfi_def_cfa_offset 32
  20 0004 233C1100 		sd	ra,24(sp)
  21 0008 23388100 		sd	s0,16(sp)
  22 000c 23349100 		sd	s1,8(sp)
  23 0010 23302101 		sd	s2,0(sp)
  24              		.cfi_offset 1, -8
  25              		.cfi_offset 8, -16
  26              		.cfi_offset 9, -24
  27              		.cfi_offset 18, -32
  28 0014 13040102 		addi	s0,sp,32
  29              		.cfi_def_cfa 8, 0
  30 0018 93040500 		mv	s1,a0
   6:src/main.cpp  ****     if (n == 0 || n == 1) { return n; }
  31              		.loc 1 6 5
  32 001c 93071000 		li	a5,1
  33 0020 63F6A702 		bleu	a0,a5,.L1
   7:src/main.cpp  ****     if (n % 4 == 0) TCB::yield();
  34              		.loc 1 7 5
  35              		.loc 1 7 11 is_stmt 0
  36 0024 93773500 		andi	a5,a0,3
  37              		.loc 1 7 5
  38 0028 638E0702 		beqz	a5,.L6
  39              	.LVL1:
  40              	.L3:
   8:src/main.cpp  ****     return fibonacci(n - 1) + fibonacci(n - 2);
  41              		.loc 1 8 5 is_stmt 1
  42              		.loc 1 8 21 is_stmt 0
  43 002c 1385F4FF 		addi	a0,s1,-1
  44 0030 97000000 		call	_Z9fibonaccim
  44      E7800000 
  45              	.LVL2:
  46 0038 13090500 		mv	s2,a0
  47              		.loc 1 8 40
  48 003c 1385E4FF 		addi	a0,s1,-2
  49 0040 97000000 		call	_Z9fibonaccim
GAS LISTING /tmp/ccKoE37O.s 			page 2


  49      E7800000 
  50              	.LVL3:
  51              		.loc 1 8 46
  52 0048 3305A900 		add	a0,s2,a0
  53              	.L1:
   9:src/main.cpp  **** }
  54              		.loc 1 9 1
  55 004c 83308101 		ld	ra,24(sp)
  56              		.cfi_remember_state
  57              		.cfi_restore 1
  58 0050 03340101 		ld	s0,16(sp)
  59              		.cfi_restore 8
  60              		.cfi_def_cfa 2, 32
  61 0054 83348100 		ld	s1,8(sp)
  62              		.cfi_restore 9
  63              	.LVL4:
  64 0058 03390100 		ld	s2,0(sp)
  65              		.cfi_restore 18
  66 005c 13010102 		addi	sp,sp,32
  67              		.cfi_def_cfa_offset 0
  68 0060 67800000 		jr	ra
  69              	.LVL5:
  70              	.L6:
  71              		.cfi_restore_state
   7:src/main.cpp  ****     if (n % 4 == 0) TCB::yield();
  72              		.loc 1 7 21 is_stmt 1 discriminator 1
   7:src/main.cpp  ****     if (n % 4 == 0) TCB::yield();
  73              		.loc 1 7 31 is_stmt 0 discriminator 1
  74 0064 97000000 		call	_ZN3TCB5yieldEv
  74      E7800000 
  75              	.LVL6:
  76 006c 6FF01FFC 		j	.L3
  77              		.cfi_endproc
  78              	.LFE13:
  80              		.section	.rodata.str1.8,"aMS",@progbits,1
  81              		.align	3
  82              	.LC0:
  83 0000 413A2069 		.string	"A: i="
  83      3D00
  84 0006 0000     		.align	3
  85              	.LC1:
  86 0008 0A00     		.string	"\n"
  87 000a 00000000 		.align	3
  87      0000
  88              	.LC2:
  89 0010 413A2079 		.string	"A: yield\n"
  89      69656C64 
  89      0A00
  90 001a 00000000 		.align	3
  90      0000
  91              	.LC3:
  92 0020 413A2074 		.string	"A: t1="
  92      313D00
  93 0027 00       		.align	3
  94              	.LC4:
  95 0028 413A2066 		.string	"A: fibonaci="
  95      69626F6E 
GAS LISTING /tmp/ccKoE37O.s 			page 3


  95      6163693D 
  95      00
  96              		.text
  97              		.align	2
  98              		.globl	_Z11workerBodyAv
 100              	_Z11workerBodyAv:
 101              	.LFB14:
  10:src/main.cpp  **** 
  11:src/main.cpp  **** void workerBodyA() {
 102              		.loc 1 11 20 is_stmt 1
 103              		.cfi_startproc
 104 0070 130101FE 		addi	sp,sp,-32
 105              		.cfi_def_cfa_offset 32
 106 0074 233C1100 		sd	ra,24(sp)
 107 0078 23388100 		sd	s0,16(sp)
 108 007c 23349100 		sd	s1,8(sp)
 109 0080 23302101 		sd	s2,0(sp)
 110              		.cfi_offset 1, -8
 111              		.cfi_offset 8, -16
 112              		.cfi_offset 9, -24
 113              		.cfi_offset 18, -32
 114 0084 13040102 		addi	s0,sp,32
 115              		.cfi_def_cfa 8, 0
  12:src/main.cpp  ****     uint8 i = 0;
 116              		.loc 1 12 5
 117              	.LVL7:
 118              		.loc 1 12 11 is_stmt 0
 119 0088 93040000 		li	s1,0
 120 008c 6F008003 		j	.L9
 121              	.LVL8:
 122              	.L13:
  13:src/main.cpp  ****     for (; i < 3; i++) { printString("A: i="); printInteger(i); printString("\n"); }
 123              		.loc 1 13 26 is_stmt 1 discriminator 1
 124              		.loc 1 13 37 is_stmt 0 discriminator 1
 125 0090 17050000 		lla	a0,.LC0
 125      13050500 
 126 0098 97000000 		call	_Z11printStringPKc
 126      E7800000 
 127              	.LVL9:
 128              		.loc 1 13 48 is_stmt 1 discriminator 1
 129              		.loc 1 13 60 is_stmt 0 discriminator 1
 130 00a0 13850400 		mv	a0,s1
 131 00a4 97000000 		call	_Z12printIntegerm
 131      E7800000 
 132              	.LVL10:
 133              		.loc 1 13 65 is_stmt 1 discriminator 1
 134              		.loc 1 13 76 is_stmt 0 discriminator 1
 135 00ac 17050000 		lla	a0,.LC1
 135      13050500 
 136 00b4 97000000 		call	_Z11printStringPKc
 136      E7800000 
 137              	.LVL11:
 138              		.loc 1 13 5 is_stmt 1 discriminator 1
 139 00bc 9B841400 		addiw	s1,s1,1
 140              	.LVL12:
 141 00c0 93F4F40F 		andi	s1,s1,0xff
 142              	.LVL13:
GAS LISTING /tmp/ccKoE37O.s 			page 4


 143              	.L9:
 144              		.loc 1 13 5 discriminator 2
 145              		.loc 1 13 14 discriminator 2
 146 00c4 93072000 		li	a5,2
 147 00c8 E3F497FC 		bleu	s1,a5,.L13
  14:src/main.cpp  **** 
  15:src/main.cpp  ****     printString("A: yield\n");
 148              		.loc 1 15 5
 149              		.loc 1 15 16 is_stmt 0
 150 00cc 17050000 		lla	a0,.LC2
 150      13050500 
 151 00d4 97000000 		call	_Z11printStringPKc
 151      E7800000 
 152              	.LVL14:
  16:src/main.cpp  ****     __asm__ ("li t1, 7");
 153              		.loc 1 16 5 is_stmt 1
 154              		.loc 1 16 25 is_stmt 0
 155              	 #APP
 156              	# 16 "src/main.cpp" 1
  17              	    TCB::yield();
 157              		li t1, 7
 158              	# 0 "" 2
 159              		.loc 1 17 5 is_stmt 1
 160              		.loc 1 17 15 is_stmt 0
 161              	 #NO_APP
 162 00e0 97000000 		call	_ZN3TCB5yieldEv
 162      E7800000 
 163              	.LVL15:
  18:src/main.cpp  **** 
  19:src/main.cpp  ****     uint64 t1 = 0;
 164              		.loc 1 19 5 is_stmt 1
  20:src/main.cpp  ****     __asm__ ("mv %[t1], t1" : [t1] "=r"(t1));
 165              		.loc 1 20 5
 166              		.loc 1 20 45 is_stmt 0
 167              	 #APP
 168              	# 20 "src/main.cpp" 1
  21              	    printString("A: t1="); printInteger(t1); printString("\n");
 169              		mv s2, t1
 170              	# 0 "" 2
 171              	.LVL16:
 172              		.loc 1 21 5 is_stmt 1
 173              		.loc 1 21 16 is_stmt 0
 174              	 #NO_APP
 175 00ec 17050000 		lla	a0,.LC3
 175      13050500 
 176 00f4 97000000 		call	_Z11printStringPKc
 176      E7800000 
 177              	.LVL17:
 178              		.loc 1 21 28 is_stmt 1
 179              		.loc 1 21 40 is_stmt 0
 180 00fc 13050900 		mv	a0,s2
 181 0100 97000000 		call	_Z12printIntegerm
 181      E7800000 
 182              	.LVL18:
 183              		.loc 1 21 46 is_stmt 1
 184              		.loc 1 21 57 is_stmt 0
 185 0108 17050000 		lla	a0,.LC1
GAS LISTING /tmp/ccKoE37O.s 			page 5


 185      13050500 
 186 0110 97000000 		call	_Z11printStringPKc
 186      E7800000 
 187              	.LVL19:
  22:src/main.cpp  **** 
  23:src/main.cpp  ****     uint64 result = fibonacci(20);
 188              		.loc 1 23 5 is_stmt 1
 189              		.loc 1 23 30 is_stmt 0
 190 0118 13054001 		li	a0,20
 191 011c 97000000 		call	_Z9fibonaccim
 191      E7800000 
 192              	.LVL20:
 193 0124 13090500 		mv	s2,a0
 194              	.LVL21:
  24:src/main.cpp  ****     printString("A: fibonaci="); printInteger(result); printString("\n");
 195              		.loc 1 24 5 is_stmt 1
 196              		.loc 1 24 16 is_stmt 0
 197 0128 17050000 		lla	a0,.LC4
 197      13050500 
 198              	.LVL22:
 199 0130 97000000 		call	_Z11printStringPKc
 199      E7800000 
 200              	.LVL23:
 201              		.loc 1 24 34 is_stmt 1
 202              		.loc 1 24 46 is_stmt 0
 203 0138 13050900 		mv	a0,s2
 204 013c 97000000 		call	_Z12printIntegerm
 204      E7800000 
 205              	.LVL24:
 206              		.loc 1 24 56 is_stmt 1
 207              		.loc 1 24 67 is_stmt 0
 208 0144 17050000 		lla	a0,.LC1
 208      13050500 
 209 014c 97000000 		call	_Z11printStringPKc
 209      E7800000 
 210              	.LVL25:
 211 0154 6F008003 		j	.L11
 212              	.L14:
  25:src/main.cpp  **** 
  26:src/main.cpp  ****     for (; i < 6; i++) { printString("A: i="); printInteger(i); printString("\n"); }
 213              		.loc 1 26 26 is_stmt 1 discriminator 1
 214              		.loc 1 26 37 is_stmt 0 discriminator 1
 215 0158 17050000 		lla	a0,.LC0
 215      13050500 
 216 0160 97000000 		call	_Z11printStringPKc
 216      E7800000 
 217              	.LVL26:
 218              		.loc 1 26 48 is_stmt 1 discriminator 1
 219              		.loc 1 26 60 is_stmt 0 discriminator 1
 220 0168 13850400 		mv	a0,s1
 221 016c 97000000 		call	_Z12printIntegerm
 221      E7800000 
 222              	.LVL27:
 223              		.loc 1 26 65 is_stmt 1 discriminator 1
 224              		.loc 1 26 76 is_stmt 0 discriminator 1
 225 0174 17050000 		lla	a0,.LC1
 225      13050500 
GAS LISTING /tmp/ccKoE37O.s 			page 6


 226 017c 97000000 		call	_Z11printStringPKc
 226      E7800000 
 227              	.LVL28:
 228              		.loc 1 26 5 is_stmt 1 discriminator 1
 229 0184 9B841400 		addiw	s1,s1,1
 230              	.LVL29:
 231 0188 93F4F40F 		andi	s1,s1,0xff
 232              	.LVL30:
 233              	.L11:
 234              		.loc 1 26 5 discriminator 2
 235              		.loc 1 26 14 discriminator 2
 236 018c 93075000 		li	a5,5
 237 0190 E3F497FC 		bleu	s1,a5,.L14
  27:src/main.cpp  ****     TCB::running->setFinished(true);
 238              		.loc 1 27 5
 239              	.LVL31:
 240              	.LBB14:
 241              	.LBB15:
 242              		.file 2 "src/../h/TCB.hpp"
   1:src/../h/TCB.hpp **** #ifndef TCB_HPP
   2:src/../h/TCB.hpp **** #define TCB_HPP
   3:src/../h/TCB.hpp **** 
   4:src/../h/TCB.hpp **** #include "../lib/hw.h"
   5:src/../h/TCB.hpp **** #include "Scheduler.hpp"
   6:src/../h/TCB.hpp **** 
   7:src/../h/TCB.hpp **** class TCB{
   8:src/../h/TCB.hpp **** public:
   9:src/../h/TCB.hpp ****     ~TCB(){ delete[] stack;}
  10:src/../h/TCB.hpp ****     using Body = void (*)();
  11:src/../h/TCB.hpp ****     static TCB *create_thread(Body body);
  12:src/../h/TCB.hpp ****     //uint64 getTimeSlice() const{ return timeSlice;}
  13:src/../h/TCB.hpp **** 
  14:src/../h/TCB.hpp ****     bool isFinished() const {return finished;}
  15:src/../h/TCB.hpp ****     void setFinished(bool finished){this->finished=finished;}
 243              		.loc 2 15 37
 244              		.loc 2 15 51 is_stmt 0
 245 0194 97070000 		ld	a5,_ZN3TCB7runningE
 245      83B70700 
 246 019c 13071000 		li	a4,1
 247 01a0 2380E702 		sb	a4,32(a5)
 248              	.LVL32:
 249              	.LBE15:
 250              	.LBE14:
  28:src/main.cpp  ****     TCB::yield();
 251              		.loc 1 28 5 is_stmt 1
 252              		.loc 1 28 15 is_stmt 0
 253 01a4 97000000 		call	_ZN3TCB5yieldEv
 253      E7800000 
 254              	.LVL33:
  29:src/main.cpp  **** }
 255              		.loc 1 29 1
 256 01ac 83308101 		ld	ra,24(sp)
 257              		.cfi_restore 1
 258 01b0 03340101 		ld	s0,16(sp)
 259              		.cfi_restore 8
 260              		.cfi_def_cfa 2, 32
 261 01b4 83348100 		ld	s1,8(sp)
GAS LISTING /tmp/ccKoE37O.s 			page 7


 262              		.cfi_restore 9
 263              	.LVL34:
 264 01b8 03390100 		ld	s2,0(sp)
 265              		.cfi_restore 18
 266              	.LVL35:
 267 01bc 13010102 		addi	sp,sp,32
 268              		.cfi_def_cfa_offset 0
 269 01c0 67800000 		jr	ra
 270              		.cfi_endproc
 271              	.LFE14:
 273              		.section	.rodata.str1.8
 274 0035 000000   		.align	3
 275              	.LC5:
 276 0038 423A2069 		.string	"B: i="
 276      3D00
 277 003e 0000     		.align	3
 278              	.LC6:
 279 0040 423A2079 		.string	"B: yield\n"
 279      69656C64 
 279      0A00
 280              		.text
 281              		.align	2
 282              		.globl	_Z11workerBodyBv
 284              	_Z11workerBodyBv:
 285              	.LFB15:
  30:src/main.cpp  **** 
  31:src/main.cpp  **** void workerBodyB() {
 286              		.loc 1 31 20 is_stmt 1
 287              		.cfi_startproc
 288 01c4 130101FE 		addi	sp,sp,-32
 289              		.cfi_def_cfa_offset 32
 290 01c8 233C1100 		sd	ra,24(sp)
 291 01cc 23388100 		sd	s0,16(sp)
 292 01d0 23349100 		sd	s1,8(sp)
 293 01d4 23302101 		sd	s2,0(sp)
 294              		.cfi_offset 1, -8
 295              		.cfi_offset 8, -16
 296              		.cfi_offset 9, -24
 297              		.cfi_offset 18, -32
 298 01d8 13040102 		addi	s0,sp,32
 299              		.cfi_def_cfa 8, 0
  32:src/main.cpp  ****     uint8 i = 10;
 300              		.loc 1 32 5
 301              	.LVL36:
 302              		.loc 1 32 11 is_stmt 0
 303 01dc 9304A000 		li	s1,10
 304 01e0 6F008003 		j	.L17
 305              	.LVL37:
 306              	.L21:
  33:src/main.cpp  ****     for (; i < 13; i++) { printString("B: i="); printInteger(i); printString("\n"); }
 307              		.loc 1 33 27 is_stmt 1 discriminator 1
 308              		.loc 1 33 38 is_stmt 0 discriminator 1
 309 01e4 17050000 		lla	a0,.LC5
 309      13050500 
 310 01ec 97000000 		call	_Z11printStringPKc
 310      E7800000 
 311              	.LVL38:
GAS LISTING /tmp/ccKoE37O.s 			page 8


 312              		.loc 1 33 49 is_stmt 1 discriminator 1
 313              		.loc 1 33 61 is_stmt 0 discriminator 1
 314 01f4 13850400 		mv	a0,s1
 315 01f8 97000000 		call	_Z12printIntegerm
 315      E7800000 
 316              	.LVL39:
 317              		.loc 1 33 66 is_stmt 1 discriminator 1
 318              		.loc 1 33 77 is_stmt 0 discriminator 1
 319 0200 17050000 		lla	a0,.LC1
 319      13050500 
 320 0208 97000000 		call	_Z11printStringPKc
 320      E7800000 
 321              	.LVL40:
 322              		.loc 1 33 5 is_stmt 1 discriminator 1
 323 0210 9B841400 		addiw	s1,s1,1
 324              	.LVL41:
 325 0214 93F4F40F 		andi	s1,s1,0xff
 326              	.LVL42:
 327              	.L17:
 328              		.loc 1 33 5 discriminator 2
 329              		.loc 1 33 14 discriminator 2
 330 0218 9307C000 		li	a5,12
 331 021c E3F497FC 		bleu	s1,a5,.L21
  34:src/main.cpp  **** 
  35:src/main.cpp  ****     printString("B: yield\n");
 332              		.loc 1 35 5
 333              		.loc 1 35 16 is_stmt 0
 334 0220 17050000 		lla	a0,.LC6
 334      13050500 
 335 0228 97000000 		call	_Z11printStringPKc
 335      E7800000 
 336              	.LVL43:
  36:src/main.cpp  ****     __asm__ ("li t1, 5");
 337              		.loc 1 36 5 is_stmt 1
 338              		.loc 1 36 25 is_stmt 0
 339              	 #APP
 340              	# 36 "src/main.cpp" 1
  37              	    TCB::yield();
 341              		li t1, 5
 342              	# 0 "" 2
 343              		.loc 1 37 5 is_stmt 1
 344              		.loc 1 37 15 is_stmt 0
 345              	 #NO_APP
 346 0234 97000000 		call	_ZN3TCB5yieldEv
 346      E7800000 
 347              	.LVL44:
  38:src/main.cpp  **** 
  39:src/main.cpp  ****     uint64 result = fibonacci(23);
 348              		.loc 1 39 5 is_stmt 1
 349              		.loc 1 39 30 is_stmt 0
 350 023c 13057001 		li	a0,23
 351 0240 97000000 		call	_Z9fibonaccim
 351      E7800000 
 352              	.LVL45:
 353 0248 13090500 		mv	s2,a0
 354              	.LVL46:
  40:src/main.cpp  ****     printString("A: fibonaci="); printInteger(result); printString("\n");
GAS LISTING /tmp/ccKoE37O.s 			page 9


 355              		.loc 1 40 5 is_stmt 1
 356              		.loc 1 40 16 is_stmt 0
 357 024c 17050000 		lla	a0,.LC4
 357      13050500 
 358              	.LVL47:
 359 0254 97000000 		call	_Z11printStringPKc
 359      E7800000 
 360              	.LVL48:
 361              		.loc 1 40 34 is_stmt 1
 362              		.loc 1 40 46 is_stmt 0
 363 025c 13050900 		mv	a0,s2
 364 0260 97000000 		call	_Z12printIntegerm
 364      E7800000 
 365              	.LVL49:
 366              		.loc 1 40 56 is_stmt 1
 367              		.loc 1 40 67 is_stmt 0
 368 0268 17050000 		lla	a0,.LC1
 368      13050500 
 369 0270 97000000 		call	_Z11printStringPKc
 369      E7800000 
 370              	.LVL50:
 371 0278 6F008003 		j	.L19
 372              	.L22:
  41:src/main.cpp  **** 
  42:src/main.cpp  ****     for (; i < 16; i++) { printString("B: i="); printInteger(i); printString("\n"); }
 373              		.loc 1 42 27 is_stmt 1 discriminator 1
 374              		.loc 1 42 38 is_stmt 0 discriminator 1
 375 027c 17050000 		lla	a0,.LC5
 375      13050500 
 376 0284 97000000 		call	_Z11printStringPKc
 376      E7800000 
 377              	.LVL51:
 378              		.loc 1 42 49 is_stmt 1 discriminator 1
 379              		.loc 1 42 61 is_stmt 0 discriminator 1
 380 028c 13850400 		mv	a0,s1
 381 0290 97000000 		call	_Z12printIntegerm
 381      E7800000 
 382              	.LVL52:
 383              		.loc 1 42 66 is_stmt 1 discriminator 1
 384              		.loc 1 42 77 is_stmt 0 discriminator 1
 385 0298 17050000 		lla	a0,.LC1
 385      13050500 
 386 02a0 97000000 		call	_Z11printStringPKc
 386      E7800000 
 387              	.LVL53:
 388              		.loc 1 42 5 is_stmt 1 discriminator 1
 389 02a8 9B841400 		addiw	s1,s1,1
 390              	.LVL54:
 391 02ac 93F4F40F 		andi	s1,s1,0xff
 392              	.LVL55:
 393              	.L19:
 394              		.loc 1 42 5 discriminator 2
 395              		.loc 1 42 14 discriminator 2
 396 02b0 9307F000 		li	a5,15
 397 02b4 E3F497FC 		bleu	s1,a5,.L22
  43:src/main.cpp  ****     TCB::running->setFinished(true);
 398              		.loc 1 43 5
GAS LISTING /tmp/ccKoE37O.s 			page 10


 399              	.LVL56:
 400              	.LBB16:
 401              	.LBB17:
 402              		.loc 2 15 37
 403              		.loc 2 15 51 is_stmt 0
 404 02b8 97070000 		ld	a5,_ZN3TCB7runningE
 404      83B70700 
 405 02c0 13071000 		li	a4,1
 406 02c4 2380E702 		sb	a4,32(a5)
 407              	.LVL57:
 408              	.LBE17:
 409              	.LBE16:
  44:src/main.cpp  ****     TCB::yield();
 410              		.loc 1 44 5 is_stmt 1
 411              		.loc 1 44 15 is_stmt 0
 412 02c8 97000000 		call	_ZN3TCB5yieldEv
 412      E7800000 
 413              	.LVL58:
  45:src/main.cpp  **** }
 414              		.loc 1 45 1
 415 02d0 83308101 		ld	ra,24(sp)
 416              		.cfi_restore 1
 417 02d4 03340101 		ld	s0,16(sp)
 418              		.cfi_restore 8
 419              		.cfi_def_cfa 2, 32
 420 02d8 83348100 		ld	s1,8(sp)
 421              		.cfi_restore 9
 422              	.LVL59:
 423 02dc 03390100 		ld	s2,0(sp)
 424              		.cfi_restore 18
 425              	.LVL60:
 426 02e0 13010102 		addi	sp,sp,32
 427              		.cfi_def_cfa_offset 0
 428 02e4 67800000 		jr	ra
 429              		.cfi_endproc
 430              	.LFE15:
 432              		.section	.rodata.str1.8
 433 004a 00000000 		.align	3
 433      0000
 434              	.LC7:
 435 0050 54687265 		.string	"Thread workerA "
 435      61642077 
 435      6F726B65 
 435      72412000 
 436              		.align	3
 437              	.LC8:
 438 0060 54687265 		.string	"Thread workerB "
 438      61642077 
 438      6F726B65 
 438      72422000 
 439              		.align	3
 440              	.LC9:
 441 0070 46696E69 		.string	"Finished"
 441      73686564 
 441      00
 442              		.text
 443              		.align	2
GAS LISTING /tmp/ccKoE37O.s 			page 11


 444              		.globl	main
 446              	main:
 447              	.LFB16:
  46:src/main.cpp  **** 
  47:src/main.cpp  **** 
  48:src/main.cpp  **** 
  49:src/main.cpp  **** 
  50:src/main.cpp  **** 
  51:src/main.cpp  **** 
  52:src/main.cpp  **** int main() {
 448              		.loc 1 52 12 is_stmt 1
 449              		.cfi_startproc
 450 02e8 130101FC 		addi	sp,sp,-64
 451              		.cfi_def_cfa_offset 64
 452 02ec 233C1102 		sd	ra,56(sp)
 453 02f0 23388102 		sd	s0,48(sp)
 454 02f4 23349102 		sd	s1,40(sp)
 455 02f8 23302103 		sd	s2,32(sp)
 456              		.cfi_offset 1, -8
 457              		.cfi_offset 8, -16
 458              		.cfi_offset 9, -24
 459              		.cfi_offset 18, -32
 460 02fc 13040104 		addi	s0,sp,64
 461              		.cfi_def_cfa 8, 0
  53:src/main.cpp  ****     TCB *threads[3];
 462              		.loc 1 53 5
  54:src/main.cpp  **** 
  55:src/main.cpp  ****     threads[0]=TCB::create_thread(nullptr);
 463              		.loc 1 55 5
 464              		.loc 1 55 34 is_stmt 0
 465 0300 13050000 		li	a0,0
 466 0304 97000000 		call	_ZN3TCB13create_threadEPFvvE
 466      E7800000 
 467              	.LVL61:
 468              		.loc 1 55 15
 469 030c 2334A4FC 		sd	a0,-56(s0)
  56:src/main.cpp  ****     TCB::running=threads[0];
 470              		.loc 1 56 5 is_stmt 1
 471              		.loc 1 56 17 is_stmt 0
 472 0310 97070000 		sd	a0,_ZN3TCB7runningE,a5
 472      23B0A700 
  57:src/main.cpp  **** 
  58:src/main.cpp  ****     threads[1]=TCB::create_thread(workerBodyA);
 473              		.loc 1 58 5 is_stmt 1
 474              		.loc 1 58 34 is_stmt 0
 475 0318 17050000 		lla	a0,_Z11workerBodyAv
 475      13050500 
 476 0320 97000000 		call	_ZN3TCB13create_threadEPFvvE
 476      E7800000 
 477              	.LVL62:
 478              		.loc 1 58 15
 479 0328 2338A4FC 		sd	a0,-48(s0)
  59:src/main.cpp  ****     printString("Thread workerA ");
 480              		.loc 1 59 5 is_stmt 1
 481              		.loc 1 59 16 is_stmt 0
 482 032c 17050000 		lla	a0,.LC7
 482      13050500 
GAS LISTING /tmp/ccKoE37O.s 			page 12


 483 0334 97000000 		call	_Z11printStringPKc
 483      E7800000 
 484              	.LVL63:
  60:src/main.cpp  **** 
  61:src/main.cpp  **** 
  62:src/main.cpp  ****     threads[2]=TCB::create_thread(workerBodyB);
 485              		.loc 1 62 5 is_stmt 1
 486              		.loc 1 62 34 is_stmt 0
 487 033c 17050000 		lla	a0,_Z11workerBodyBv
 487      13050500 
 488 0344 97000000 		call	_ZN3TCB13create_threadEPFvvE
 488      E7800000 
 489              	.LVL64:
 490              		.loc 1 62 15
 491 034c 233CA4FC 		sd	a0,-40(s0)
  63:src/main.cpp  ****     printString("Thread workerB ");
 492              		.loc 1 63 5 is_stmt 1
 493              		.loc 1 63 16 is_stmt 0
 494 0350 17050000 		lla	a0,.LC8
 494      13050500 
 495 0358 97000000 		call	_Z11printStringPKc
 495      E7800000 
 496              	.LVL65:
 497 0360 6F00C000 		j	.L26
 498              	.L24:
  64:src/main.cpp  **** 
  65:src/main.cpp  ****     while(!(threads[1]->isFinished() && threads[2]->isFinished())){
  66:src/main.cpp  ****         TCB::yield();
 499              		.loc 1 66 9 is_stmt 1 discriminator 3
 500              		.loc 1 66 19 is_stmt 0 discriminator 3
 501 0364 97000000 		call	_ZN3TCB5yieldEv
 501      E7800000 
 502              	.LVL66:
 503              	.L26:
  65:src/main.cpp  ****         TCB::yield();
 504              		.loc 1 65 5 is_stmt 1
  65:src/main.cpp  ****         TCB::yield();
 505              		.loc 1 65 11
  65:src/main.cpp  ****         TCB::yield();
 506              		.loc 1 65 22 is_stmt 0
 507 036c 833704FD 		ld	a5,-48(s0)
 508              	.LVL67:
 509              	.LBB18:
 510              	.LBB19:
  14:src/../h/TCB.hpp ****     void setFinished(bool finished){this->finished=finished;}
 511              		.loc 2 14 30 is_stmt 1
  14:src/../h/TCB.hpp ****     void setFinished(bool finished){this->finished=finished;}
 512              		.loc 2 14 37 is_stmt 0
 513 0370 83C70702 		lbu	a5,32(a5)
 514              	.LVL68:
 515              	.LBE19:
 516              	.LBE18:
  65:src/main.cpp  ****         TCB::yield();
 517              		.loc 1 65 11
 518 0374 E38807FE 		beqz	a5,.L24
  65:src/main.cpp  ****         TCB::yield();
 519              		.loc 1 65 50 discriminator 2
GAS LISTING /tmp/ccKoE37O.s 			page 13


 520 0378 833784FD 		ld	a5,-40(s0)
 521              	.LVL69:
 522              	.LBB20:
 523              	.LBB21:
  14:src/../h/TCB.hpp ****     void setFinished(bool finished){this->finished=finished;}
 524              		.loc 2 14 30 is_stmt 1 discriminator 2
  14:src/../h/TCB.hpp ****     void setFinished(bool finished){this->finished=finished;}
 525              		.loc 2 14 37 is_stmt 0 discriminator 2
 526 037c 83C70702 		lbu	a5,32(a5)
 527              	.LVL70:
 528              	.LBE21:
 529              	.LBE20:
  65:src/main.cpp  ****         TCB::yield();
 530              		.loc 1 65 11 discriminator 2
 531 0380 E38207FE 		beqz	a5,.L24
 532 0384 930484FC 		addi	s1,s0,-56
 533 0388 6F004001 		j	.L25
 534              	.LVL71:
 535              	.L29:
 536              	.LBB22:
  67:src/main.cpp  ****     }
  68:src/main.cpp  **** 
  69:src/main.cpp  ****     for(auto &thread:threads){
  70:src/main.cpp  ****         delete thread;
 537              		.loc 1 70 16
 538 038c 13050900 		mv	a0,s2
 539 0390 97000000 		call	_ZdlPv
 539      E7800000 
 540              	.LVL72:
 541              	.L28:
  69:src/main.cpp  ****         delete thread;
 542              		.loc 1 69 5 is_stmt 1 discriminator 3
 543 0398 93848400 		addi	s1,s1,8
 544              	.LVL73:
 545              	.L25:
  69:src/main.cpp  ****         delete thread;
 546              		.loc 1 69 22 discriminator 1
 547 039c 930704FE 		addi	a5,s0,-32
 548 03a0 6380F402 		beq	s1,a5,.L27
 549              	.LVL74:
 550              		.loc 1 70 9 discriminator 2
 551              		.loc 1 70 16 is_stmt 0 discriminator 2
 552 03a4 03B90400 		ld	s2,0(s1)
 553              		.loc 1 70 22 discriminator 2
 554 03a8 E30809FE 		beqz	s2,.L28
 555              	.LVL75:
 556              	.LBB23:
 557              	.LBB24:
   9:src/../h/TCB.hpp ****     using Body = void (*)();
 558              		.loc 2 9 13 is_stmt 1
   9:src/../h/TCB.hpp ****     using Body = void (*)();
 559              		.loc 2 9 22 is_stmt 0
 560 03ac 03358900 		ld	a0,8(s2)
   9:src/../h/TCB.hpp ****     using Body = void (*)();
 561              		.loc 2 9 27
 562 03b0 E30E05FC 		beqz	a0,.L29
   9:src/../h/TCB.hpp ****     using Body = void (*)();
GAS LISTING /tmp/ccKoE37O.s 			page 14


 563              		.loc 2 9 22
 564 03b4 97000000 		call	_ZdaPv
 564      E7800000 
 565              	.LVL76:
 566 03bc 6FF01FFD 		j	.L29
 567              	.LVL77:
 568              	.L27:
 569              	.LBE24:
 570              	.LBE23:
 571              	.LBE22:
  71:src/main.cpp  ****     }
  72:src/main.cpp  **** 
  73:src/main.cpp  ****     printString("Finished");
 572              		.loc 1 73 5 is_stmt 1
 573              		.loc 1 73 16 is_stmt 0
 574 03c0 17050000 		lla	a0,.LC9
 574      13050500 
 575 03c8 97000000 		call	_Z11printStringPKc
 575      E7800000 
 576              	.LVL78:
  74:src/main.cpp  **** 
  75:src/main.cpp  ****     return 0;
 577              		.loc 1 75 5 is_stmt 1
  76:src/main.cpp  **** 
  77:src/main.cpp  **** }...
 578              		.loc 1 77 1 is_stmt 0
 579 03d0 13050000 		li	a0,0
 580 03d4 83308103 		ld	ra,56(sp)
 581              		.cfi_restore 1
 582 03d8 03340103 		ld	s0,48(sp)
 583              		.cfi_restore 8
 584              		.cfi_def_cfa 2, 64
 585 03dc 83348102 		ld	s1,40(sp)
 586              		.cfi_restore 9
 587              	.LVL79:
 588 03e0 03390102 		ld	s2,32(sp)
 589              		.cfi_restore 18
 590 03e4 13010104 		addi	sp,sp,64
 591              		.cfi_def_cfa_offset 0
 592 03e8 67800000 		jr	ra
 593              		.cfi_endproc
 594              	.LFE16:
 596              	.Letext0:
 597              		.file 3 "src/../h/../lib/hw.h"
 598              		.file 4 "src/../h/printHelper.hpp"
GAS LISTING /tmp/ccKoE37O.s 			page 15

