GAS LISTING /tmp/ccF9FX9E.s 			page 1


   1              		.file	"main.cpp"
   2              		.option nopic
   3              		.option norelax
   4              		.attribute arch, "rv64i2p0_m2p0_a2p0"
   5              		.attribute unaligned_access, 0
   6              		.attribute stack_align, 16
   7              		.text
   8              	.Ltext0:
   9              		.align	2
  10              		.globl	_Z11userWrapperPv
  12              	_Z11userWrapperPv:
  13              	.LFB65:
  14              		.file 1 "src/main.cpp"
   1:src/main.cpp  **** #include "../lib/hw.h"
   2:src/main.cpp  **** #include "../h/TCB.hpp"
   3:src/main.cpp  **** #include "../h/Console.hpp"
   4:src/main.cpp  **** #include "../h/syscall_c.hpp"
   5:src/main.cpp  **** #include "../h/Riscv.hpp"
   6:src/main.cpp  **** 
   7:src/main.cpp  **** void userMain();
   8:src/main.cpp  **** void outputThread(void* arg);
   9:src/main.cpp  **** 
  10:src/main.cpp  **** void dbg(char c);
  11:src/main.cpp  **** extern "C" void interrupt();
  12:src/main.cpp  **** 
  13:src/main.cpp  **** void userWrapper(void* arg) {
  15              		.loc 1 13 29
  16              		.cfi_startproc
  17              	.LVL0:
  18 0000 130101FF 		addi	sp,sp,-16
  19              		.cfi_def_cfa_offset 16
  20 0004 23341100 		sd	ra,8(sp)
  21 0008 23308100 		sd	s0,0(sp)
  22              		.cfi_offset 1, -8
  23              		.cfi_offset 8, -16
  24 000c 13040101 		addi	s0,sp,16
  25              		.cfi_def_cfa 8, 0
  14:src/main.cpp  ****     userMain();
  26              		.loc 1 14 5
  27              		.loc 1 14 13 is_stmt 0
  28 0010 97000000 		call	_Z8userMainv
  28      E7800000 
  29              	.LVL1:
  15:src/main.cpp  ****     //putc('A');
  16:src/main.cpp  **** }
  30              		.loc 1 16 1
  31 0018 83308100 		ld	ra,8(sp)
  32              		.cfi_restore 1
  33 001c 03340100 		ld	s0,0(sp)
  34              		.cfi_restore 8
  35              		.cfi_def_cfa 2, 16
  36 0020 13010101 		addi	sp,sp,16
  37              		.cfi_def_cfa_offset 0
  38 0024 67800000 		jr	ra
  39              		.cfi_endproc
  40              	.LFE65:
  42              		.align	2
GAS LISTING /tmp/ccF9FX9E.s 			page 2


  43              		.globl	main
  45              	main:
  46              	.LFB66:
  17:src/main.cpp  **** 
  18:src/main.cpp  **** int main(){
  47              		.loc 1 18 11 is_stmt 1
  48              		.cfi_startproc
  49 0028 130101FF 		addi	sp,sp,-16
  50              		.cfi_def_cfa_offset 16
  51 002c 23341100 		sd	ra,8(sp)
  52 0030 23308100 		sd	s0,0(sp)
  53              		.cfi_offset 1, -8
  54              		.cfi_offset 8, -16
  55 0034 13040101 		addi	s0,sp,16
  56              		.cfi_def_cfa 8, 0
  19:src/main.cpp  ****     __asm__ volatile("csrw stvec, %0" : : "r" (&interrupt));
  57              		.loc 1 19 5
  58              		.loc 1 19 60 is_stmt 0
  59 0038 97070000 		lla	a5,interrupt
  59      93870700 
  60              	 #APP
  61              	# 19 "src/main.cpp" 1
  20              	
  21:src/main.cpp  ****     //_Console& console = _Console::getInstance();
  22:src/main.cpp  ****     //Scheduler& scheduler = Scheduler::getInstance();
  23:src/main.cpp  **** 
  24:src/main.cpp  ****     TCB* kernelThread=TCB::create_thread(nullptr,nullptr,1);
  62              		csrw stvec, a5
  63              	# 0 "" 2
  64              		.loc 1 24 5 is_stmt 1
  65              		.loc 1 24 41 is_stmt 0
  66              	 #NO_APP
  67 0044 13061000 		li	a2,1
  68 0048 93050000 		li	a1,0
  69 004c 13050000 		li	a0,0
  70 0050 97000000 		call	_ZN3TCB13create_threadEPFvPvES0_b
  70      E7800000 
  71              	.LVL2:
  25:src/main.cpp  ****     TCB::running=kernelThread;
  72              		.loc 1 25 5 is_stmt 1
  73              		.loc 1 25 17 is_stmt 0
  74 0058 97070000 		sd	a0,_ZN3TCB7runningE,a5
  74      23B0A700 
  26:src/main.cpp  ****     TCB::create_thread(&outputThread,nullptr,1);
  75              		.loc 1 26 5 is_stmt 1
  76              		.loc 1 26 23 is_stmt 0
  77 0060 13061000 		li	a2,1
  78 0064 93050000 		li	a1,0
  79 0068 17050000 		lla	a0,_Z12outputThreadPv
  79      13050500 
  80              	.LVL3:
  81 0070 97000000 		call	_ZN3TCB13create_threadEPFvPvES0_b
  81      E7800000 
  82              	.LVL4:
  27:src/main.cpp  ****     TCB::create_thread(&userWrapper,nullptr,0);
  83              		.loc 1 27 5 is_stmt 1
  84              		.loc 1 27 23 is_stmt 0
GAS LISTING /tmp/ccF9FX9E.s 			page 3


  85 0078 13060000 		li	a2,0
  86 007c 93050000 		li	a1,0
  87 0080 17050000 		lla	a0,_Z11userWrapperPv
  87      13050500 
  88 0088 97000000 		call	_ZN3TCB13create_threadEPFvPvES0_b
  88      E7800000 
  89              	.LVL5:
  90              	.L5:
  28:src/main.cpp  **** 
  29:src/main.cpp  ****     //Riscv::ms_sstatus(Riscv::BitMaskSstatus::SSTATUS_SIE);
  30:src/main.cpp  **** 
  31:src/main.cpp  ****     while (TCB::running->getCounter() > 0) {
  91              		.loc 1 31 5 is_stmt 1
  92              		.loc 1 31 39
  93              	.LBB10:
  94              	.LBB11:
  95              		.file 2 "src/../h/TCB.hpp"
   1:src/../h/TCB.hpp **** #ifndef TCB_HPP
   2:src/../h/TCB.hpp **** #define TCB_HPP
   3:src/../h/TCB.hpp **** 
   4:src/../h/TCB.hpp **** #include "../lib/hw.h"
   5:src/../h/TCB.hpp **** #include "../h/MemoryAllocator.hpp"
   6:src/../h/TCB.hpp **** class Scheduler;
   7:src/../h/TCB.hpp **** 
   8:src/../h/TCB.hpp **** class TCB{
   9:src/../h/TCB.hpp **** public:
  10:src/../h/TCB.hpp ****     ~TCB(){ MemoryAllocator::getInstance().free(stack); }
  11:src/../h/TCB.hpp ****     using Body = void (*)(void *);
  12:src/../h/TCB.hpp ****     static TCB *create_thread(Body body,void* args,bool kernelThread);
  13:src/../h/TCB.hpp ****     uint64 getTimeSlice() const{ return timeSlice;}
  14:src/../h/TCB.hpp **** 
  15:src/../h/TCB.hpp ****     bool isFinished() const {return finished;}
  16:src/../h/TCB.hpp ****     void setFinished(bool finished) {this->finished=finished;}
  17:src/../h/TCB.hpp ****     uint64 getSemWaiting() const {return semWaiting;}
  18:src/../h/TCB.hpp ****     void setSemWaiting(uint64 waiting) {this->semWaiting=waiting;}
  19:src/../h/TCB.hpp **** 	time_t getSleepingTime() const {return sleepingTime;}
  20:src/../h/TCB.hpp ****     void setSleepingTime(uint64 sleepingTime) {this->sleepingTime=sleepingTime;}
  21:src/../h/TCB.hpp ****     uint64 getCounter()const {return counter;}
  96              		.loc 2 21 31
  97              		.loc 2 21 38 is_stmt 0
  98 0090 97070000 		ld	a5,_ZN3TCB7counterE
  98      83B70700 
  99              	.LVL6:
 100              	.LBE11:
 101              	.LBE10:
 102              		.loc 1 31 39
 103 0098 63880700 		beqz	a5,.L4
  32:src/main.cpp  ****         TCB::yield();
 104              		.loc 1 32 9 is_stmt 1
 105              		.loc 1 32 19 is_stmt 0
 106 009c 97000000 		call	_ZN3TCB5yieldEv
 106      E7800000 
 107              	.LVL7:
  31:src/main.cpp  ****         TCB::yield();
 108              		.loc 1 31 5
 109 00a4 6FF0DFFE 		j	.L5
 110              	.L4:
GAS LISTING /tmp/ccF9FX9E.s 			page 4


  33:src/main.cpp  ****     }
  34:src/main.cpp  ****     while (!_Console::getInstance().isOutputEmpty()) {
 111              		.loc 1 34 5 is_stmt 1
 112              		.loc 1 34 12
 113              		.loc 1 34 35 is_stmt 0
 114 00a8 97000000 		call	_ZN8_Console11getInstanceEv
 114      E7800000 
 115              	.LVL8:
 116              		.file 3 "src/../h/Console.hpp"
   1:src/../h/Console.hpp **** #ifndef CONSOLE_HPP
   2:src/../h/Console.hpp **** #define CONSOLE_HPP
   3:src/../h/Console.hpp **** 
   4:src/../h/Console.hpp **** #include "../lib/hw.h"
   5:src/../h/Console.hpp **** #include "../h/BoundedBuffer.hpp"
   6:src/../h/Console.hpp **** #include "../h/Semaphore.hpp"
   7:src/../h/Console.hpp **** #include "../h/MemoryAllocator.hpp"
   8:src/../h/Console.hpp **** 
   9:src/../h/Console.hpp **** // outputThread needs to be blocked if the outputBuffer is empty
  10:src/../h/Console.hpp **** // you can always add charachters to the input buffer
  11:src/../h/Console.hpp **** 
  12:src/../h/Console.hpp **** class _Console{
  13:src/../h/Console.hpp **** public:
  14:src/../h/Console.hpp ****     static _Console& getInstance();
  15:src/../h/Console.hpp ****     void putc(char c);
  16:src/../h/Console.hpp ****     char getc();
  17:src/../h/Console.hpp ****     friend void outputThread(void*);
  18:src/../h/Console.hpp ****     bool isOutputEmpty() { return outputBuffer.isEmpty(); }
 117              		.loc 3 18 28 is_stmt 1
 118              	.LBB12:
 119              	.LBB13:
 120              	.LBB14:
 121              		.file 4 "src/../h/../h/BoundedBuffer.hpp"
   1:src/../h/../h/BoundedBuffer.hpp **** #ifndef BOUNDEDBUFFER_HPP
   2:src/../h/../h/BoundedBuffer.hpp **** #define BOUNDEDBUFFER_HPP
   3:src/../h/../h/BoundedBuffer.hpp **** 
   4:src/../h/../h/BoundedBuffer.hpp **** #include "../lib/hw.h"
   5:src/../h/../h/BoundedBuffer.hpp **** 
   6:src/../h/../h/BoundedBuffer.hpp **** class BoundedBuffer{
   7:src/../h/../h/BoundedBuffer.hpp **** public:
   8:src/../h/../h/BoundedBuffer.hpp ****     BoundedBuffer():head(0),tail(0) {
   9:src/../h/../h/BoundedBuffer.hpp ****         this->count=0;
  10:src/../h/../h/BoundedBuffer.hpp ****     }
  11:src/../h/../h/BoundedBuffer.hpp ****     void append(char);
  12:src/../h/../h/BoundedBuffer.hpp ****     char take();
  13:src/../h/../h/BoundedBuffer.hpp ****     bool isEmpty() const { return count==0; }
 122              		.loc 4 13 28
 123              		.loc 4 13 35 is_stmt 0
 124 00b0 83378521 		ld	a5,536(a0)
 125              	.LVL9:
 126              	.LBE14:
 127              	.LBE13:
 128              	.LBE12:
 129              		.loc 1 34 12
 130 00b4 63880700 		beqz	a5,.L6
  35:src/main.cpp  ****         TCB::yield();
 131              		.loc 1 35 9 is_stmt 1
 132              		.loc 1 35 19 is_stmt 0
GAS LISTING /tmp/ccF9FX9E.s 			page 5


 133 00b8 97000000 		call	_ZN3TCB5yieldEv
 133      E7800000 
 134              	.LVL10:
  34:src/main.cpp  ****         TCB::yield();
 135              		.loc 1 34 5
 136 00c0 6FF09FFE 		j	.L4
 137              	.L6:
  36:src/main.cpp  ****     }
  37:src/main.cpp  ****     *(volatile uint32*)0x100000 = 0x5555;
 138              		.loc 1 37 5 is_stmt 1
 139              		.loc 1 37 33 is_stmt 0
 140 00c4 37071000 		li	a4,1048576
 141 00c8 B7570000 		li	a5,20480
 142 00cc 9B875755 		addiw	a5,a5,1365
 143 00d0 2320F700 		sw	a5,0(a4)
  38:src/main.cpp  ****     return 0;
 144              		.loc 1 38 5 is_stmt 1
  39:src/main.cpp  **** }...
 145              		.loc 1 39 1 is_stmt 0
 146 00d4 13050000 		li	a0,0
 147 00d8 83308100 		ld	ra,8(sp)
 148              		.cfi_restore 1
 149 00dc 03340100 		ld	s0,0(sp)
 150              		.cfi_restore 8
 151              		.cfi_def_cfa 2, 16
 152 00e0 13010101 		addi	sp,sp,16
 153              		.cfi_def_cfa_offset 0
 154 00e4 67800000 		jr	ra
 155              		.cfi_endproc
 156              	.LFE66:
 158              	.Letext0:
 159              		.file 5 "src/../lib/hw.h"
 160              		.file 6 "src/../h/../h/List.hpp"
 161              		.file 7 "src/../h/../h/Semaphore.hpp"
 162              		.file 8 "src/../h/syscall_c.hpp"
GAS LISTING /tmp/ccF9FX9E.s 			page 6


DEFINED SYMBOLS
                            *ABS*:0000000000000000 main.cpp
     /tmp/ccF9FX9E.s:12     .text:0000000000000000 _Z11userWrapperPv
     /tmp/ccF9FX9E.s:16     .text:0000000000000000 .L0 
     /tmp/ccF9FX9E.s:18     .text:0000000000000000 .L0 
     /tmp/ccF9FX9E.s:19     .text:0000000000000004 .L0 
     /tmp/ccF9FX9E.s:22     .text:000000000000000c .L0 
     /tmp/ccF9FX9E.s:23     .text:000000000000000c .L0 
     /tmp/ccF9FX9E.s:25     .text:0000000000000010 .L0 
     /tmp/ccF9FX9E.s:27     .text:0000000000000010 .L0 
     /tmp/ccF9FX9E.s:28     .text:0000000000000010 .L0 
     /tmp/ccF9FX9E.s:31     .text:0000000000000018 .L0 
     /tmp/ccF9FX9E.s:32     .text:000000000000001c .L0 
     /tmp/ccF9FX9E.s:34     .text:0000000000000020 .L0 
     /tmp/ccF9FX9E.s:35     .text:0000000000000020 .L0 
     /tmp/ccF9FX9E.s:37     .text:0000000000000024 .L0 
     /tmp/ccF9FX9E.s:39     .text:0000000000000028 .L0 
     /tmp/ccF9FX9E.s:45     .text:0000000000000028 main
     /tmp/ccF9FX9E.s:48     .text:0000000000000028 .L0 
     /tmp/ccF9FX9E.s:49     .text:0000000000000028 .L0 
     /tmp/ccF9FX9E.s:50     .text:000000000000002c .L0 
     /tmp/ccF9FX9E.s:53     .text:0000000000000034 .L0 
     /tmp/ccF9FX9E.s:54     .text:0000000000000034 .L0 
     /tmp/ccF9FX9E.s:56     .text:0000000000000038 .L0 
     /tmp/ccF9FX9E.s:58     .text:0000000000000038 .L0 
     /tmp/ccF9FX9E.s:59     .text:0000000000000038 .L0 
     /tmp/ccF9FX9E.s:65     .text:0000000000000044 .L0 
     /tmp/ccF9FX9E.s:67     .text:0000000000000044 .L0 
     /tmp/ccF9FX9E.s:73     .text:0000000000000058 .L0 
     /tmp/ccF9FX9E.s:74     .text:0000000000000058 .L0 
     /tmp/ccF9FX9E.s:76     .text:0000000000000060 .L0 
     /tmp/ccF9FX9E.s:77     .text:0000000000000060 .L0 
     /tmp/ccF9FX9E.s:84     .text:0000000000000078 .L0 
     /tmp/ccF9FX9E.s:85     .text:0000000000000078 .L0 
     /tmp/ccF9FX9E.s:92     .text:0000000000000090 .L0 
     /tmp/ccF9FX9E.s:96     .text:0000000000000090 .L0 
     /tmp/ccF9FX9E.s:97     .text:0000000000000090 .L0 
     /tmp/ccF9FX9E.s:98     .text:0000000000000090 .L0 
     /tmp/ccF9FX9E.s:103    .text:0000000000000098 .L0 
     /tmp/ccF9FX9E.s:105    .text:000000000000009c .L0 
     /tmp/ccF9FX9E.s:106    .text:000000000000009c .L0 
     /tmp/ccF9FX9E.s:109    .text:00000000000000a4 .L0 
     /tmp/ccF9FX9E.s:112    .text:00000000000000a8 .L0 
     /tmp/ccF9FX9E.s:113    .text:00000000000000a8 .L0 
     /tmp/ccF9FX9E.s:114    .text:00000000000000a8 .L0 
     /tmp/ccF9FX9E.s:122    .text:00000000000000b0 .L0 
     /tmp/ccF9FX9E.s:123    .text:00000000000000b0 .L0 
     /tmp/ccF9FX9E.s:124    .text:00000000000000b0 .L0 
     /tmp/ccF9FX9E.s:130    .text:00000000000000b4 .L0 
     /tmp/ccF9FX9E.s:132    .text:00000000000000b8 .L0 
     /tmp/ccF9FX9E.s:133    .text:00000000000000b8 .L0 
     /tmp/ccF9FX9E.s:136    .text:00000000000000c0 .L0 
     /tmp/ccF9FX9E.s:139    .text:00000000000000c4 .L0 
     /tmp/ccF9FX9E.s:140    .text:00000000000000c4 .L0 
     /tmp/ccF9FX9E.s:145    .text:00000000000000d4 .L0 
     /tmp/ccF9FX9E.s:146    .text:00000000000000d4 .L0 
     /tmp/ccF9FX9E.s:148    .text:00000000000000dc .L0 
GAS LISTING /tmp/ccF9FX9E.s 			page 7


     /tmp/ccF9FX9E.s:150    .text:00000000000000e0 .L0 
     /tmp/ccF9FX9E.s:151    .text:00000000000000e0 .L0 
     /tmp/ccF9FX9E.s:153    .text:00000000000000e4 .L0 
     /tmp/ccF9FX9E.s:155    .text:00000000000000e8 .L0 
     /tmp/ccF9FX9E.s:163    .text:00000000000000e8 .L0 
     /tmp/ccF9FX9E.s:59     .text:0000000000000038 .L0 
     /tmp/ccF9FX9E.s:74     .text:0000000000000058 .L0 
     /tmp/ccF9FX9E.s:79     .text:0000000000000068 .L0 
     /tmp/ccF9FX9E.s:87     .text:0000000000000080 .L0 
     /tmp/ccF9FX9E.s:98     .text:0000000000000090 .L0 
     /tmp/ccF9FX9E.s:110    .text:00000000000000a8 .L4
     /tmp/ccF9FX9E.s:90     .text:0000000000000090 .L5
     /tmp/ccF9FX9E.s:137    .text:00000000000000c4 .L6
     /tmp/ccF9FX9E.s:1556   .debug_abbrev:0000000000000000 .Ldebug_abbrev0
     /tmp/ccF9FX9E.s:2835   .debug_str:0000000000000848 .LASF156
     /tmp/ccF9FX9E.s:2673   .debug_str:00000000000002e0 .LASF157
     /tmp/ccF9FX9E.s:2797   .debug_str:000000000000070b .LASF158
     /tmp/ccF9FX9E.s:8      .text:0000000000000000 .Ltext0
     /tmp/ccF9FX9E.s:158    .text:00000000000000e8 .Letext0
     /tmp/ccF9FX9E.s:2579   .debug_line:0000000000000000 .Ldebug_line0
     /tmp/ccF9FX9E.s:2703   .debug_str:00000000000003e5 .LASF0
     /tmp/ccF9FX9E.s:2721   .debug_str:0000000000000474 .LASF1
     /tmp/ccF9FX9E.s:2805   .debug_str:0000000000000754 .LASF2
     /tmp/ccF9FX9E.s:2811   .debug_str:0000000000000786 .LASF4
     /tmp/ccF9FX9E.s:2709   .debug_str:0000000000000402 .LASF3
     /tmp/ccF9FX9E.s:2603   .debug_str:00000000000000ab .LASF5
     /tmp/ccF9FX9E.s:2795   .debug_str:0000000000000704 .LASF6
     /tmp/ccF9FX9E.s:2787   .debug_str:00000000000006c3 .LASF7
     /tmp/ccF9FX9E.s:2715   .debug_str:000000000000043e .LASF8
     /tmp/ccF9FX9E.s:2683   .debug_str:0000000000000330 .LASF9
     /tmp/ccF9FX9E.s:2689   .debug_str:0000000000000371 .LASF10
     /tmp/ccF9FX9E.s:2625   .debug_str:000000000000015e .LASF11
     /tmp/ccF9FX9E.s:2671   .debug_str:00000000000002d1 .LASF12
     /tmp/ccF9FX9E.s:2631   .debug_str:000000000000018e .LASF13
     /tmp/ccF9FX9E.s:2623   .debug_str:000000000000014e .LASF14
     /tmp/ccF9FX9E.s:2839   .debug_str:0000000000000918 .LASF15
     /tmp/ccF9FX9E.s:2659   .debug_str:0000000000000253 .LASF16
     /tmp/ccF9FX9E.s:2829   .debug_str:0000000000000818 .LASF17
     /tmp/ccF9FX9E.s:2845   .debug_str:0000000000000941 .LASF159
     /tmp/ccF9FX9E.s:2813   .debug_str:000000000000078d .LASF18
     /tmp/ccF9FX9E.s:2599   .debug_str:0000000000000093 .LASF20
     /tmp/ccF9FX9E.s:2881   .debug_str:0000000000000a36 .LASF19
     /tmp/ccF9FX9E.s:2727   .debug_str:000000000000049a .LASF21
     /tmp/ccF9FX9E.s:2779   .debug_str:000000000000068e .LASF160
     /tmp/ccF9FX9E.s:2725   .debug_str:000000000000048d .LASF22
     /tmp/ccF9FX9E.s:2879   .debug_str:0000000000000a1d .LASF24
     /tmp/ccF9FX9E.s:2847   .debug_str:0000000000000949 .LASF23
     /tmp/ccF9FX9E.s:2763   .debug_str:00000000000005d7 .LASF25
     /tmp/ccF9FX9E.s:2611   .debug_str:00000000000000e2 .LASF26
     /tmp/ccF9FX9E.s:2869   .debug_str:00000000000009c9 .LASF27
     /tmp/ccF9FX9E.s:2799   .debug_str:0000000000000724 .LASF28
     /tmp/ccF9FX9E.s:2817   .debug_str:00000000000007a8 .LASF29
     /tmp/ccF9FX9E.s:2865   .debug_str:00000000000009b3 .LASF30
     /tmp/ccF9FX9E.s:2807   .debug_str:0000000000000762 .LASF31
     /tmp/ccF9FX9E.s:2617   .debug_str:0000000000000107 .LASF32
     /tmp/ccF9FX9E.s:2913   .debug_str:0000000000000b21 .LASF33
     /tmp/ccF9FX9E.s:2791   .debug_str:00000000000006eb .LASF34
GAS LISTING /tmp/ccF9FX9E.s 			page 8


     /tmp/ccF9FX9E.s:2697   .debug_str:00000000000003a4 .LASF35
     /tmp/ccF9FX9E.s:2635   .debug_str:00000000000001b9 .LASF36
     /tmp/ccF9FX9E.s:2785   .debug_str:00000000000006ac .LASF37
     /tmp/ccF9FX9E.s:2917   .debug_str:0000000000000b4a .LASF38
     /tmp/ccF9FX9E.s:2905   .debug_str:0000000000000aec .LASF39
     /tmp/ccF9FX9E.s:2723   .debug_str:0000000000000487 .LASF40
     /tmp/ccF9FX9E.s:2857   .debug_str:000000000000097e .LASF42
     /tmp/ccF9FX9E.s:2645   .debug_str:00000000000001f8 .LASF41
     /tmp/ccF9FX9E.s:2627   .debug_str:000000000000016d .LASF43
     /tmp/ccF9FX9E.s:2743   .debug_str:0000000000000536 .LASF120
     /tmp/ccF9FX9E.s:2667   .debug_str:00000000000002b5 .LASF122
     /tmp/ccF9FX9E.s:2803   .debug_str:0000000000000749 .LASF44
     /tmp/ccF9FX9E.s:2815   .debug_str:0000000000000792 .LASF45
     /tmp/ccF9FX9E.s:2853   .debug_str:0000000000000971 .LASF46
     /tmp/ccF9FX9E.s:2819   .debug_str:00000000000007c2 .LASF47
     /tmp/ccF9FX9E.s:2789   .debug_str:00000000000006d6 .LASF161
     /tmp/ccF9FX9E.s:2589   .debug_str:0000000000000034 .LASF48
     /tmp/ccF9FX9E.s:2909   .debug_str:0000000000000b16 .LASF49
     /tmp/ccF9FX9E.s:2867   .debug_str:00000000000009c1 .LASF50
     /tmp/ccF9FX9E.s:2827   .debug_str:000000000000080f .LASF51
     /tmp/ccF9FX9E.s:2875   .debug_str:0000000000000a0c .LASF52
     /tmp/ccF9FX9E.s:2859   .debug_str:000000000000098e .LASF53
     /tmp/ccF9FX9E.s:2707   .debug_str:00000000000003f7 .LASF54
     /tmp/ccF9FX9E.s:2607   .debug_str:00000000000000bf .LASF55
     /tmp/ccF9FX9E.s:2711   .debug_str:0000000000000414 .LASF56
     /tmp/ccF9FX9E.s:2863   .debug_str:00000000000009ab .LASF57
     /tmp/ccF9FX9E.s:2653   .debug_str:000000000000022c .LASF58
     /tmp/ccF9FX9E.s:2895   .debug_str:0000000000000ab7 .LASF59
     /tmp/ccF9FX9E.s:2615   .debug_str:00000000000000f9 .LASF162
     /tmp/ccF9FX9E.s:2897   .debug_str:0000000000000abc .LASF163
     /tmp/ccF9FX9E.s:2639   .debug_str:00000000000001c9 .LASF164
     /tmp/ccF9FX9E.s:2597   .debug_str:000000000000006b .LASF165
     /tmp/ccF9FX9E.s:2809   .debug_str:000000000000077b .LASF60
     /tmp/ccF9FX9E.s:2901   .debug_str:0000000000000ada .LASF61
     /tmp/ccF9FX9E.s:2737   .debug_str:0000000000000505 .LASF62
     /tmp/ccF9FX9E.s:2629   .debug_str:0000000000000180 .LASF63
     /tmp/ccF9FX9E.s:2921   .debug_str:0000000000000b66 .LASF64
     /tmp/ccF9FX9E.s:2753   .debug_str:0000000000000576 .LASF65
     /tmp/ccF9FX9E.s:2729   .debug_str:00000000000004bc .LASF66
     /tmp/ccF9FX9E.s:2899   .debug_str:0000000000000ad5 .LASF67
     /tmp/ccF9FX9E.s:2619   .debug_str:0000000000000117 .LASF68
     /tmp/ccF9FX9E.s:2651   .debug_str:0000000000000224 .LASF69
     /tmp/ccF9FX9E.s:2871   .debug_str:00000000000009e0 .LASF70
     /tmp/ccF9FX9E.s:2833   .debug_str:0000000000000841 .LASF71
     /tmp/ccF9FX9E.s:2649   .debug_str:0000000000000207 .LASF72
     /tmp/ccF9FX9E.s:2601   .debug_str:000000000000009f .LASF142
     /tmp/ccF9FX9E.s:2675   .debug_str:00000000000002ed .LASF73
     /tmp/ccF9FX9E.s:2583   .debug_str:0000000000000015 .LASF74
     /tmp/ccF9FX9E.s:2669   .debug_str:00000000000002cc .LASF75
     /tmp/ccF9FX9E.s:2767   .debug_str:0000000000000606 .LASF76
     /tmp/ccF9FX9E.s:2849   .debug_str:0000000000000954 .LASF77
     /tmp/ccF9FX9E.s:2883   .debug_str:0000000000000a44 .LASF78
     /tmp/ccF9FX9E.s:2761   .debug_str:00000000000005d2 .LASF79
     /tmp/ccF9FX9E.s:2831   .debug_str:000000000000082e .LASF80
     /tmp/ccF9FX9E.s:2665   .debug_str:000000000000029e .LASF81
     /tmp/ccF9FX9E.s:2641   .debug_str:00000000000001d7 .LASF166
     /tmp/ccF9FX9E.s:2801   .debug_str:0000000000000732 .LASF167
GAS LISTING /tmp/ccF9FX9E.s 			page 9


     /tmp/ccF9FX9E.s:2719   .debug_str:000000000000046b .LASF82
     /tmp/ccF9FX9E.s:2621   .debug_str:0000000000000131 .LASF83
     /tmp/ccF9FX9E.s:2731   .debug_str:00000000000004d8 .LASF84
     /tmp/ccF9FX9E.s:2661   .debug_str:0000000000000269 .LASF85
     /tmp/ccF9FX9E.s:2783   .debug_str:00000000000006a0 .LASF86
     /tmp/ccF9FX9E.s:2885   .debug_str:0000000000000a4e .LASF87
     /tmp/ccF9FX9E.s:2693   .debug_str:0000000000000388 .LASF88
     /tmp/ccF9FX9E.s:2633   .debug_str:000000000000019e .LASF89
     /tmp/ccF9FX9E.s:2821   .debug_str:00000000000007d3 .LASF90
     /tmp/ccF9FX9E.s:2713   .debug_str:0000000000000421 .LASF91
     /tmp/ccF9FX9E.s:2793   .debug_str:00000000000006fb .LASF92
     /tmp/ccF9FX9E.s:2595   .debug_str:0000000000000051 .LASF93
     /tmp/ccF9FX9E.s:2647   .debug_str:0000000000000201 .LASF94
     /tmp/ccF9FX9E.s:2907   .debug_str:0000000000000aff .LASF95
     /tmp/ccF9FX9E.s:2637   .debug_str:00000000000001c4 .LASF168
     /tmp/ccF9FX9E.s:2613   .debug_str:00000000000000ee .LASF96
     /tmp/ccF9FX9E.s:2915   .debug_str:0000000000000b3d .LASF97
     /tmp/ccF9FX9E.s:2919   .debug_str:0000000000000b52 .LASF98
     /tmp/ccF9FX9E.s:2591   .debug_str:0000000000000039 .LASF143
     /tmp/ccF9FX9E.s:2581   .debug_str:0000000000000000 .LASF144
     /tmp/ccF9FX9E.s:2585   .debug_str:000000000000001b .LASF99
     /tmp/ccF9FX9E.s:2745   .debug_str:0000000000000542 .LASF100
     /tmp/ccF9FX9E.s:2891   .debug_str:0000000000000a88 .LASF101
     /tmp/ccF9FX9E.s:2733   .debug_str:00000000000004e0 .LASF102
     /tmp/ccF9FX9E.s:2681   .debug_str:000000000000030c .LASF103
     /tmp/ccF9FX9E.s:2749   .debug_str:0000000000000562 .LASF104
     /tmp/ccF9FX9E.s:2717   .debug_str:0000000000000451 .LASF105
     /tmp/ccF9FX9E.s:2843   .debug_str:000000000000093a .LASF106
     /tmp/ccF9FX9E.s:2663   .debug_str:0000000000000285 .LASF107
     /tmp/ccF9FX9E.s:2855   .debug_str:0000000000000979 .LASF108
     /tmp/ccF9FX9E.s:2887   .debug_str:0000000000000a6c .LASF109
     /tmp/ccF9FX9E.s:2679   .debug_str:0000000000000303 .LASF110
     /tmp/ccF9FX9E.s:2893   .debug_str:0000000000000a9c .LASF111
     /tmp/ccF9FX9E.s:2903   .debug_str:0000000000000ae5 .LASF112
     /tmp/ccF9FX9E.s:2609   .debug_str:00000000000000c9 .LASF113
     /tmp/ccF9FX9E.s:2701   .debug_str:00000000000003df .LASF114
     /tmp/ccF9FX9E.s:2765   .debug_str:00000000000005ee .LASF115
     /tmp/ccF9FX9E.s:2593   .debug_str:0000000000000049 .LASF116
     /tmp/ccF9FX9E.s:2741   .debug_str:000000000000051c .LASF117
     /tmp/ccF9FX9E.s:2777   .debug_str:0000000000000686 .LASF118
     /tmp/ccF9FX9E.s:2691   .debug_str:000000000000037f .LASF119
     /tmp/ccF9FX9E.s:2657   .debug_str:0000000000000247 .LASF121
     /tmp/ccF9FX9E.s:2685   .debug_str:0000000000000340 .LASF123
     /tmp/ccF9FX9E.s:2889   .debug_str:0000000000000a83 .LASF124
     /tmp/ccF9FX9E.s:2747   .debug_str:000000000000054e .LASF125
     /tmp/ccF9FX9E.s:2705   .debug_str:00000000000003f2 .LASF126
     /tmp/ccF9FX9E.s:2735   .debug_str:00000000000004f1 .LASF127
     /tmp/ccF9FX9E.s:2873   .debug_str:00000000000009fe .LASF128
     /tmp/ccF9FX9E.s:2773   .debug_str:0000000000000654 .LASF129
     /tmp/ccF9FX9E.s:2739   .debug_str:000000000000050a .LASF130
     /tmp/ccF9FX9E.s:2769   .debug_str:000000000000060b .LASF131
     /tmp/ccF9FX9E.s:2677   .debug_str:00000000000002f4 .LASF132
     /tmp/ccF9FX9E.s:2757   .debug_str:000000000000058d .LASF133
     /tmp/ccF9FX9E.s:2755   .debug_str:000000000000057d .LASF134
     /tmp/ccF9FX9E.s:2699   .debug_str:00000000000003bf .LASF135
     /tmp/ccF9FX9E.s:2643   .debug_str:00000000000001e1 .LASF136
     /tmp/ccF9FX9E.s:2771   .debug_str:000000000000062d .LASF137
GAS LISTING /tmp/ccF9FX9E.s 			page 10


     /tmp/ccF9FX9E.s:2841   .debug_str:0000000000000924 .LASF138
     /tmp/ccF9FX9E.s:2759   .debug_str:00000000000005ac .LASF139
     /tmp/ccF9FX9E.s:2851   .debug_str:0000000000000959 .LASF140
     /tmp/ccF9FX9E.s:2825   .debug_str:00000000000007e7 .LASF141
     /tmp/ccF9FX9E.s:2655   .debug_str:0000000000000236 .LASF145
     /tmp/ccF9FX9E.s:2877   .debug_str:0000000000000a11 .LASF146
     /tmp/ccF9FX9E.s:2605   .debug_str:00000000000000b2 .LASF147
     /tmp/ccF9FX9E.s:2775   .debug_str:0000000000000672 .LASF148
     /tmp/ccF9FX9E.s:2861   .debug_str:0000000000000998 .LASF149
     /tmp/ccF9FX9E.s:2687   .debug_str:000000000000035c .LASF150
     /tmp/ccF9FX9E.s:2911   .debug_str:0000000000000b1c .LASF151
     /tmp/ccF9FX9E.s:46     .text:0000000000000028 .LFB66
     /tmp/ccF9FX9E.s:156    .text:00000000000000e8 .LFE66
     /tmp/ccF9FX9E.s:2781   .debug_str:0000000000000693 .LASF152
     /tmp/ccF9FX9E.s:2529   .debug_loc:0000000000000000 .LLST1
     /tmp/ccF9FX9E.s:93     .text:0000000000000090 .LBB10
     /tmp/ccF9FX9E.s:101    .text:0000000000000098 .LBE10
     /tmp/ccF9FX9E.s:118    .text:00000000000000b0 .LBB12
     /tmp/ccF9FX9E.s:128    .text:00000000000000b4 .LBE12
     /tmp/ccF9FX9E.s:2536   .debug_loc:0000000000000023 .LLST2
     /tmp/ccF9FX9E.s:119    .text:00000000000000b0 .LBB13
     /tmp/ccF9FX9E.s:127    .text:00000000000000b4 .LBE13
     /tmp/ccF9FX9E.s:2543   .debug_loc:0000000000000046 .LLST3
     /tmp/ccF9FX9E.s:71     .text:0000000000000058 .LVL2
     /tmp/ccF9FX9E.s:82     .text:0000000000000078 .LVL4
     /tmp/ccF9FX9E.s:89     .text:0000000000000090 .LVL5
     /tmp/ccF9FX9E.s:107    .text:00000000000000a4 .LVL7
     /tmp/ccF9FX9E.s:115    .text:00000000000000b0 .LVL8
     /tmp/ccF9FX9E.s:134    .text:00000000000000c0 .LVL10
     /tmp/ccF9FX9E.s:2837   .debug_str:000000000000090c .LASF153
     /tmp/ccF9FX9E.s:2695   .debug_str:0000000000000392 .LASF154
     /tmp/ccF9FX9E.s:13     .text:0000000000000000 .LFB65
     /tmp/ccF9FX9E.s:40     .text:0000000000000028 .LFE65
     /tmp/ccF9FX9E.s:2552   .debug_loc:000000000000006c .LLST0
     /tmp/ccF9FX9E.s:29     .text:0000000000000018 .LVL1
     /tmp/ccF9FX9E.s:2587   .debug_str:000000000000002f .LASF155
     /tmp/ccF9FX9E.s:2751   .debug_str:0000000000000569 .LASF169
     /tmp/ccF9FX9E.s:2823   .debug_str:00000000000007de .LASF170
     /tmp/ccF9FX9E.s:80     .text:0000000000000070 .LVL3
     /tmp/ccF9FX9E.s:125    .text:00000000000000b4 .LVL9
     /tmp/ccF9FX9E.s:17     .text:0000000000000000 .LVL0
     /tmp/ccF9FX9E.s:164    .debug_info:0000000000000000 .Ldebug_info0

UNDEFINED SYMBOLS
_Z8userMainv
interrupt
_ZN3TCB13create_threadEPFvPvES0_b
_ZN3TCB7runningE
_Z12outputThreadPv
_ZN3TCB7counterE
_ZN3TCB5yieldEv
_ZN8_Console11getInstanceEv
