GAS LISTING /tmp/ccKoE37O.s 			page 1


   1              		.file	"main.cpp"
   2              		.option nopic
   3              		.option norelax
   4              		.attribute arch, "rv64i2p0_m2p0_a2p0"
   5              		.attribute unaligned_access, 0
   6              		.attribute stack_align, 16
   7              		.text
   8              	.Ltext0:
   9              		.align	2
  10              		.globl	_Z9fibonaccim
  12              	_Z9fibonaccim:
  13              	.LFB13:
  14              		.file 1 "src/main.cpp"
   1:src/main.cpp  **** #include "../h/TCB.hpp"
   2:src/main.cpp  **** #include "../lib/hw.h"
   3:src/main.cpp  **** #include "../h/printHelper.hpp"
   4:src/main.cpp  **** 
   5:src/main.cpp  **** uint64 fibonacci(uint64 n) {
  15              		.loc 1 5 28
  16              		.cfi_startproc
  17              	.LVL0:
  18 0000 130101FE 		addi	sp,sp,-32
  19              		.cfi_def_cfa_offset 32
  20 0004 233C1100 		sd	ra,24(sp)
  21 0008 23388100 		sd	s0,16(sp)
  22 000c 23349100 		sd	s1,8(sp)
  23 0010 23302101 		sd	s2,0(sp)
  24              		.cfi_offset 1, -8
  25              		.cfi_offset 8, -16
  26              		.cfi_offset 9, -24
  27              		.cfi_offset 18, -32
  28 0014 13040102 		addi	s0,sp,32
  29              		.cfi_def_cfa 8, 0
  30 0018 93040500 		mv	s1,a0
   6:src/main.cpp  ****     if (n == 0 || n == 1) { return n; }
  31              		.loc 1 6 5
  32 001c 93071000 		li	a5,1
  33 0020 63F6A702 		bleu	a0,a5,.L1
   7:src/main.cpp  ****     if (n % 4 == 0) TCB::yield();
  34              		.loc 1 7 5
  35              		.loc 1 7 11 is_stmt 0
  36 0024 93773500 		andi	a5,a0,3
  37              		.loc 1 7 5
  38 0028 638E0702 		beqz	a5,.L6
  39              	.LVL1:
  40              	.L3:
   8:src/main.cpp  ****     return fibonacci(n - 1) + fibonacci(n - 2);
  41              		.loc 1 8 5 is_stmt 1
  42              		.loc 1 8 21 is_stmt 0
  43 002c 1385F4FF 		addi	a0,s1,-1
  44 0030 97000000 		call	_Z9fibonaccim
  44      E7800000 
  45              	.LVL2:
  46 0038 13090500 		mv	s2,a0
  47              		.loc 1 8 40
  48 003c 1385E4FF 		addi	a0,s1,-2
  49 0040 97000000 		call	_Z9fibonaccim
GAS LISTING /tmp/ccKoE37O.s 			page 2


  49      E7800000 
  50              	.LVL3:
  51              		.loc 1 8 46
  52 0048 3305A900 		add	a0,s2,a0
  53              	.L1:
   9:src/main.cpp  **** }
  54              		.loc 1 9 1
  55 004c 83308101 		ld	ra,24(sp)
  56              		.cfi_remember_state
  57              		.cfi_restore 1
  58 0050 03340101 		ld	s0,16(sp)
  59              		.cfi_restore 8
  60              		.cfi_def_cfa 2, 32
  61 0054 83348100 		ld	s1,8(sp)
  62              		.cfi_restore 9
  63              	.LVL4:
  64 0058 03390100 		ld	s2,0(sp)
  65              		.cfi_restore 18
  66 005c 13010102 		addi	sp,sp,32
  67              		.cfi_def_cfa_offset 0
  68 0060 67800000 		jr	ra
  69              	.LVL5:
  70              	.L6:
  71              		.cfi_restore_state
   7:src/main.cpp  ****     if (n % 4 == 0) TCB::yield();
  72              		.loc 1 7 21 is_stmt 1 discriminator 1
   7:src/main.cpp  ****     if (n % 4 == 0) TCB::yield();
  73              		.loc 1 7 31 is_stmt 0 discriminator 1
  74 0064 97000000 		call	_ZN3TCB5yieldEv
  74      E7800000 
  75              	.LVL6:
  76 006c 6FF01FFC 		j	.L3
  77              		.cfi_endproc
  78              	.LFE13:
  80              		.section	.rodata.str1.8,"aMS",@progbits,1
  81              		.align	3
  82              	.LC0:
  83 0000 413A2069 		.string	"A: i="
  83      3D00
  84 0006 0000     		.align	3
  85              	.LC1:
  86 0008 0A00     		.string	"\n"
  87 000a 00000000 		.align	3
  87      0000
  88              	.LC2:
  89 0010 413A2079 		.string	"A: yield\n"
  89      69656C64 
  89      0A00
  90 001a 00000000 		.align	3
  90      0000
  91              	.LC3:
  92 0020 413A2074 		.string	"A: t1="
  92      313D00
  93 0027 00       		.align	3
  94              	.LC4:
  95 0028 413A2066 		.string	"A: fibonaci="
  95      69626F6E 
GAS LISTING /tmp/ccKoE37O.s 			page 3


  95      6163693D 
  95      00
  96              		.text
  97              		.align	2
  98              		.globl	_Z11workerBodyAv
 100              	_Z11workerBodyAv:
 101              	.LFB14:
  10:src/main.cpp  **** 
  11:src/main.cpp  **** void workerBodyA() {
 102              		.loc 1 11 20 is_stmt 1
 103              		.cfi_startproc
 104 0070 130101FE 		addi	sp,sp,-32
 105              		.cfi_def_cfa_offset 32
 106 0074 233C1100 		sd	ra,24(sp)
 107 0078 23388100 		sd	s0,16(sp)
 108 007c 23349100 		sd	s1,8(sp)
 109 0080 23302101 		sd	s2,0(sp)
 110              		.cfi_offset 1, -8
 111              		.cfi_offset 8, -16
 112              		.cfi_offset 9, -24
 113              		.cfi_offset 18, -32
 114 0084 13040102 		addi	s0,sp,32
 115              		.cfi_def_cfa 8, 0
  12:src/main.cpp  ****     uint8 i = 0;
 116              		.loc 1 12 5
 117              	.LVL7:
 118              		.loc 1 12 11 is_stmt 0
 119 0088 93040000 		li	s1,0
 120 008c 6F008003 		j	.L9
 121              	.LVL8:
 122              	.L13:
  13:src/main.cpp  ****     for (; i < 3; i++) { printString("A: i="); printInteger(i); printString("\n"); }
 123              		.loc 1 13 26 is_stmt 1 discriminator 1
 124              		.loc 1 13 37 is_stmt 0 discriminator 1
 125 0090 17050000 		lla	a0,.LC0
 125      13050500 
 126 0098 97000000 		call	_Z11printStringPKc
 126      E7800000 
 127              	.LVL9:
 128              		.loc 1 13 48 is_stmt 1 discriminator 1
 129              		.loc 1 13 60 is_stmt 0 discriminator 1
 130 00a0 13850400 		mv	a0,s1
 131 00a4 97000000 		call	_Z12printIntegerm
 131      E7800000 
 132              	.LVL10:
 133              		.loc 1 13 65 is_stmt 1 discriminator 1
 134              		.loc 1 13 76 is_stmt 0 discriminator 1
 135 00ac 17050000 		lla	a0,.LC1
 135      13050500 
 136 00b4 97000000 		call	_Z11printStringPKc
 136      E7800000 
 137              	.LVL11:
 138              		.loc 1 13 5 is_stmt 1 discriminator 1
 139 00bc 9B841400 		addiw	s1,s1,1
 140              	.LVL12:
 141 00c0 93F4F40F 		andi	s1,s1,0xff
 142              	.LVL13:
GAS LISTING /tmp/ccKoE37O.s 			page 4


 143              	.L9:
 144              		.loc 1 13 5 discriminator 2
 145              		.loc 1 13 14 discriminator 2
 146 00c4 93072000 		li	a5,2
 147 00c8 E3F497FC 		bleu	s1,a5,.L13
  14:src/main.cpp  **** 
  15:src/main.cpp  ****     printString("A: yield\n");
 148              		.loc 1 15 5
 149              		.loc 1 15 16 is_stmt 0
 150 00cc 17050000 		lla	a0,.LC2
 150      13050500 
 151 00d4 97000000 		call	_Z11printStringPKc
 151      E7800000 
 152              	.LVL14:
  16:src/main.cpp  ****     __asm__ ("li t1, 7");
 153              		.loc 1 16 5 is_stmt 1
 154              		.loc 1 16 25 is_stmt 0
 155              	 #APP
 156              	# 16 "src/main.cpp" 1
  17              	    TCB::yield();
 157              		li t1, 7
 158              	# 0 "" 2
 159              		.loc 1 17 5 is_stmt 1
 160              		.loc 1 17 15 is_stmt 0
 161              	 #NO_APP
 162 00e0 97000000 		call	_ZN3TCB5yieldEv
 162      E7800000 
 163              	.LVL15:
  18:src/main.cpp  **** 
  19:src/main.cpp  ****     uint64 t1 = 0;
 164              		.loc 1 19 5 is_stmt 1
  20:src/main.cpp  ****     __asm__ ("mv %[t1], t1" : [t1] "=r"(t1));
 165              		.loc 1 20 5
 166              		.loc 1 20 45 is_stmt 0
 167              	 #APP
 168              	# 20 "src/main.cpp" 1
  21              	    printString("A: t1="); printInteger(t1); printString("\n");
 169              		mv s2, t1
 170              	# 0 "" 2
 171              	.LVL16:
 172              		.loc 1 21 5 is_stmt 1
 173              		.loc 1 21 16 is_stmt 0
 174              	 #NO_APP
 175 00ec 17050000 		lla	a0,.LC3
 175      13050500 
 176 00f4 97000000 		call	_Z11printStringPKc
 176      E7800000 
 177              	.LVL17:
 178              		.loc 1 21 28 is_stmt 1
 179              		.loc 1 21 40 is_stmt 0
 180 00fc 13050900 		mv	a0,s2
 181 0100 97000000 		call	_Z12printIntegerm
 181      E7800000 
 182              	.LVL18:
 183              		.loc 1 21 46 is_stmt 1
 184              		.loc 1 21 57 is_stmt 0
 185 0108 17050000 		lla	a0,.LC1
GAS LISTING /tmp/ccKoE37O.s 			page 5


 185      13050500 
 186 0110 97000000 		call	_Z11printStringPKc
 186      E7800000 
 187              	.LVL19:
  22:src/main.cpp  **** 
  23:src/main.cpp  ****     uint64 result = fibonacci(20);
 188              		.loc 1 23 5 is_stmt 1
 189              		.loc 1 23 30 is_stmt 0
 190 0118 13054001 		li	a0,20
 191 011c 97000000 		call	_Z9fibonaccim
 191      E7800000 
 192              	.LVL20:
 193 0124 13090500 		mv	s2,a0
 194              	.LVL21:
  24:src/main.cpp  ****     printString("A: fibonaci="); printInteger(result); printString("\n");
 195              		.loc 1 24 5 is_stmt 1
 196              		.loc 1 24 16 is_stmt 0
 197 0128 17050000 		lla	a0,.LC4
 197      13050500 
 198              	.LVL22:
 199 0130 97000000 		call	_Z11printStringPKc
 199      E7800000 
 200              	.LVL23:
 201              		.loc 1 24 34 is_stmt 1
 202              		.loc 1 24 46 is_stmt 0
 203 0138 13050900 		mv	a0,s2
 204 013c 97000000 		call	_Z12printIntegerm
 204      E7800000 
 205              	.LVL24:
 206              		.loc 1 24 56 is_stmt 1
 207              		.loc 1 24 67 is_stmt 0
 208 0144 17050000 		lla	a0,.LC1
 208      13050500 
 209 014c 97000000 		call	_Z11printStringPKc
 209      E7800000 
 210              	.LVL25:
 211 0154 6F008003 		j	.L11
 212              	.L14:
  25:src/main.cpp  **** 
  26:src/main.cpp  ****     for (; i < 6; i++) { printString("A: i="); printInteger(i); printString("\n"); }
 213              		.loc 1 26 26 is_stmt 1 discriminator 1
 214              		.loc 1 26 37 is_stmt 0 discriminator 1
 215 0158 17050000 		lla	a0,.LC0
 215      13050500 
 216 0160 97000000 		call	_Z11printStringPKc
 216      E7800000 
 217              	.LVL26:
 218              		.loc 1 26 48 is_stmt 1 discriminator 1
 219              		.loc 1 26 60 is_stmt 0 discriminator 1
 220 0168 13850400 		mv	a0,s1
 221 016c 97000000 		call	_Z12printIntegerm
 221      E7800000 
 222              	.LVL27:
 223              		.loc 1 26 65 is_stmt 1 discriminator 1
 224              		.loc 1 26 76 is_stmt 0 discriminator 1
 225 0174 17050000 		lla	a0,.LC1
 225      13050500 
GAS LISTING /tmp/ccKoE37O.s 			page 6


 226 017c 97000000 		call	_Z11printStringPKc
 226      E7800000 
 227              	.LVL28:
 228              		.loc 1 26 5 is_stmt 1 discriminator 1
 229 0184 9B841400 		addiw	s1,s1,1
 230              	.LVL29:
 231 0188 93F4F40F 		andi	s1,s1,0xff
 232              	.LVL30:
 233              	.L11:
 234              		.loc 1 26 5 discriminator 2
 235              		.loc 1 26 14 discriminator 2
 236 018c 93075000 		li	a5,5
 237 0190 E3F497FC 		bleu	s1,a5,.L14
  27:src/main.cpp  ****     TCB::running->setFinished(true);
 238              		.loc 1 27 5
 239              	.LVL31:
 240              	.LBB14:
 241              	.LBB15:
 242              		.file 2 "src/../h/TCB.hpp"
   1:src/../h/TCB.hpp **** #ifndef TCB_HPP
   2:src/../h/TCB.hpp **** #define TCB_HPP
   3:src/../h/TCB.hpp **** 
   4:src/../h/TCB.hpp **** #include "../lib/hw.h"
   5:src/../h/TCB.hpp **** #include "Scheduler.hpp"
   6:src/../h/TCB.hpp **** 
   7:src/../h/TCB.hpp **** class TCB{
   8:src/../h/TCB.hpp **** public:
   9:src/../h/TCB.hpp ****     ~TCB(){ delete[] stack;}
  10:src/../h/TCB.hpp ****     using Body = void (*)();
  11:src/../h/TCB.hpp ****     static TCB *create_thread(Body body);
  12:src/../h/TCB.hpp ****     //uint64 getTimeSlice() const{ return timeSlice;}
  13:src/../h/TCB.hpp **** 
  14:src/../h/TCB.hpp ****     bool isFinished() const {return finished;}
  15:src/../h/TCB.hpp ****     void setFinished(bool finished){this->finished=finished;}
 243              		.loc 2 15 37
 244              		.loc 2 15 51 is_stmt 0
 245 0194 97070000 		ld	a5,_ZN3TCB7runningE
 245      83B70700 
 246 019c 13071000 		li	a4,1
 247 01a0 2380E702 		sb	a4,32(a5)
 248              	.LVL32:
 249              	.LBE15:
 250              	.LBE14:
  28:src/main.cpp  ****     TCB::yield();
 251              		.loc 1 28 5 is_stmt 1
 252              		.loc 1 28 15 is_stmt 0
 253 01a4 97000000 		call	_ZN3TCB5yieldEv
 253      E7800000 
 254              	.LVL33:
  29:src/main.cpp  **** }
 255              		.loc 1 29 1
 256 01ac 83308101 		ld	ra,24(sp)
 257              		.cfi_restore 1
 258 01b0 03340101 		ld	s0,16(sp)
 259              		.cfi_restore 8
 260              		.cfi_def_cfa 2, 32
 261 01b4 83348100 		ld	s1,8(sp)
GAS LISTING /tmp/ccKoE37O.s 			page 7


 262              		.cfi_restore 9
 263              	.LVL34:
 264 01b8 03390100 		ld	s2,0(sp)
 265              		.cfi_restore 18
 266              	.LVL35:
 267 01bc 13010102 		addi	sp,sp,32
 268              		.cfi_def_cfa_offset 0
 269 01c0 67800000 		jr	ra
 270              		.cfi_endproc
 271              	.LFE14:
 273              		.section	.rodata.str1.8
 274 0035 000000   		.align	3
 275              	.LC5:
 276 0038 423A2069 		.string	"B: i="
 276      3D00
 277 003e 0000     		.align	3
 278              	.LC6:
 279 0040 423A2079 		.string	"B: yield\n"
 279      69656C64 
 279      0A00
 280              		.text
 281              		.align	2
 282              		.globl	_Z11workerBodyBv
 284              	_Z11workerBodyBv:
 285              	.LFB15:
  30:src/main.cpp  **** 
  31:src/main.cpp  **** void workerBodyB() {
 286              		.loc 1 31 20 is_stmt 1
 287              		.cfi_startproc
 288 01c4 130101FE 		addi	sp,sp,-32
 289              		.cfi_def_cfa_offset 32
 290 01c8 233C1100 		sd	ra,24(sp)
 291 01cc 23388100 		sd	s0,16(sp)
 292 01d0 23349100 		sd	s1,8(sp)
 293 01d4 23302101 		sd	s2,0(sp)
 294              		.cfi_offset 1, -8
 295              		.cfi_offset 8, -16
 296              		.cfi_offset 9, -24
 297              		.cfi_offset 18, -32
 298 01d8 13040102 		addi	s0,sp,32
 299              		.cfi_def_cfa 8, 0
  32:src/main.cpp  ****     uint8 i = 10;
 300              		.loc 1 32 5
 301              	.LVL36:
 302              		.loc 1 32 11 is_stmt 0
 303 01dc 9304A000 		li	s1,10
 304 01e0 6F008003 		j	.L17
 305              	.LVL37:
 306              	.L21:
  33:src/main.cpp  ****     for (; i < 13; i++) { printString("B: i="); printInteger(i); printString("\n"); }
 307              		.loc 1 33 27 is_stmt 1 discriminator 1
 308              		.loc 1 33 38 is_stmt 0 discriminator 1
 309 01e4 17050000 		lla	a0,.LC5
 309      13050500 
 310 01ec 97000000 		call	_Z11printStringPKc
 310      E7800000 
 311              	.LVL38:
GAS LISTING /tmp/ccKoE37O.s 			page 8


 312              		.loc 1 33 49 is_stmt 1 discriminator 1
 313              		.loc 1 33 61 is_stmt 0 discriminator 1
 314 01f4 13850400 		mv	a0,s1
 315 01f8 97000000 		call	_Z12printIntegerm
 315      E7800000 
 316              	.LVL39:
 317              		.loc 1 33 66 is_stmt 1 discriminator 1
 318              		.loc 1 33 77 is_stmt 0 discriminator 1
 319 0200 17050000 		lla	a0,.LC1
 319      13050500 
 320 0208 97000000 		call	_Z11printStringPKc
 320      E7800000 
 321              	.LVL40:
 322              		.loc 1 33 5 is_stmt 1 discriminator 1
 323 0210 9B841400 		addiw	s1,s1,1
 324              	.LVL41:
 325 0214 93F4F40F 		andi	s1,s1,0xff
 326              	.LVL42:
 327              	.L17:
 328              		.loc 1 33 5 discriminator 2
 329              		.loc 1 33 14 discriminator 2
 330 0218 9307C000 		li	a5,12
 331 021c E3F497FC 		bleu	s1,a5,.L21
  34:src/main.cpp  **** 
  35:src/main.cpp  ****     printString("B: yield\n");
 332              		.loc 1 35 5
 333              		.loc 1 35 16 is_stmt 0
 334 0220 17050000 		lla	a0,.LC6
 334      13050500 
 335 0228 97000000 		call	_Z11printStringPKc
 335      E7800000 
 336              	.LVL43:
  36:src/main.cpp  ****     __asm__ ("li t1, 5");
 337              		.loc 1 36 5 is_stmt 1
 338              		.loc 1 36 25 is_stmt 0
 339              	 #APP
 340              	# 36 "src/main.cpp" 1
  37              	    TCB::yield();
 341              		li t1, 5
 342              	# 0 "" 2
 343              		.loc 1 37 5 is_stmt 1
 344              		.loc 1 37 15 is_stmt 0
 345              	 #NO_APP
 346 0234 97000000 		call	_ZN3TCB5yieldEv
 346      E7800000 
 347              	.LVL44:
  38:src/main.cpp  **** 
  39:src/main.cpp  ****     uint64 result = fibonacci(23);
 348              		.loc 1 39 5 is_stmt 1
 349              		.loc 1 39 30 is_stmt 0
 350 023c 13057001 		li	a0,23
 351 0240 97000000 		call	_Z9fibonaccim
 351      E7800000 
 352              	.LVL45:
 353 0248 13090500 		mv	s2,a0
 354              	.LVL46:
  40:src/main.cpp  ****     printString("A: fibonaci="); printInteger(result); printString("\n");
GAS LISTING /tmp/ccKoE37O.s 			page 9


 355              		.loc 1 40 5 is_stmt 1
 356              		.loc 1 40 16 is_stmt 0
 357 024c 17050000 		lla	a0,.LC4
 357      13050500 
 358              	.LVL47:
 359 0254 97000000 		call	_Z11printStringPKc
 359      E7800000 
 360              	.LVL48:
 361              		.loc 1 40 34 is_stmt 1
 362              		.loc 1 40 46 is_stmt 0
 363 025c 13050900 		mv	a0,s2
 364 0260 97000000 		call	_Z12printIntegerm
 364      E7800000 
 365              	.LVL49:
 366              		.loc 1 40 56 is_stmt 1
 367              		.loc 1 40 67 is_stmt 0
 368 0268 17050000 		lla	a0,.LC1
 368      13050500 
 369 0270 97000000 		call	_Z11printStringPKc
 369      E7800000 
 370              	.LVL50:
 371 0278 6F008003 		j	.L19
 372              	.L22:
  41:src/main.cpp  **** 
  42:src/main.cpp  ****     for (; i < 16; i++) { printString("B: i="); printInteger(i); printString("\n"); }
 373              		.loc 1 42 27 is_stmt 1 discriminator 1
 374              		.loc 1 42 38 is_stmt 0 discriminator 1
 375 027c 17050000 		lla	a0,.LC5
 375      13050500 
 376 0284 97000000 		call	_Z11printStringPKc
 376      E7800000 
 377              	.LVL51:
 378              		.loc 1 42 49 is_stmt 1 discriminator 1
 379              		.loc 1 42 61 is_stmt 0 discriminator 1
 380 028c 13850400 		mv	a0,s1
 381 0290 97000000 		call	_Z12printIntegerm
 381      E7800000 
 382              	.LVL52:
 383              		.loc 1 42 66 is_stmt 1 discriminator 1
 384              		.loc 1 42 77 is_stmt 0 discriminator 1
 385 0298 17050000 		lla	a0,.LC1
 385      13050500 
 386 02a0 97000000 		call	_Z11printStringPKc
 386      E7800000 
 387              	.LVL53:
 388              		.loc 1 42 5 is_stmt 1 discriminator 1
 389 02a8 9B841400 		addiw	s1,s1,1
 390              	.LVL54:
 391 02ac 93F4F40F 		andi	s1,s1,0xff
 392              	.LVL55:
 393              	.L19:
 394              		.loc 1 42 5 discriminator 2
 395              		.loc 1 42 14 discriminator 2
 396 02b0 9307F000 		li	a5,15
 397 02b4 E3F497FC 		bleu	s1,a5,.L22
  43:src/main.cpp  ****     TCB::running->setFinished(true);
 398              		.loc 1 43 5
GAS LISTING /tmp/ccKoE37O.s 			page 10


 399              	.LVL56:
 400              	.LBB16:
 401              	.LBB17:
 402              		.loc 2 15 37
 403              		.loc 2 15 51 is_stmt 0
 404 02b8 97070000 		ld	a5,_ZN3TCB7runningE
 404      83B70700 
 405 02c0 13071000 		li	a4,1
 406 02c4 2380E702 		sb	a4,32(a5)
 407              	.LVL57:
 408              	.LBE17:
 409              	.LBE16:
  44:src/main.cpp  ****     TCB::yield();
 410              		.loc 1 44 5 is_stmt 1
 411              		.loc 1 44 15 is_stmt 0
 412 02c8 97000000 		call	_ZN3TCB5yieldEv
 412      E7800000 
 413              	.LVL58:
  45:src/main.cpp  **** }
 414              		.loc 1 45 1
 415 02d0 83308101 		ld	ra,24(sp)
 416              		.cfi_restore 1
 417 02d4 03340101 		ld	s0,16(sp)
 418              		.cfi_restore 8
 419              		.cfi_def_cfa 2, 32
 420 02d8 83348100 		ld	s1,8(sp)
 421              		.cfi_restore 9
 422              	.LVL59:
 423 02dc 03390100 		ld	s2,0(sp)
 424              		.cfi_restore 18
 425              	.LVL60:
 426 02e0 13010102 		addi	sp,sp,32
 427              		.cfi_def_cfa_offset 0
 428 02e4 67800000 		jr	ra
 429              		.cfi_endproc
 430              	.LFE15:
 432              		.section	.rodata.str1.8
 433 004a 00000000 		.align	3
 433      0000
 434              	.LC7:
 435 0050 54687265 		.string	"Thread workerA "
 435      61642077 
 435      6F726B65 
 435      72412000 
 436              		.align	3
 437              	.LC8:
 438 0060 54687265 		.string	"Thread workerB "
 438      61642077 
 438      6F726B65 
 438      72422000 
 439              		.align	3
 440              	.LC9:
 441 0070 46696E69 		.string	"Finished"
 441      73686564 
 441      00
 442              		.text
 443              		.align	2
GAS LISTING /tmp/ccKoE37O.s 			page 11


 444              		.globl	main
 446              	main:
 447              	.LFB16:
  46:src/main.cpp  **** 
  47:src/main.cpp  **** 
  48:src/main.cpp  **** 
  49:src/main.cpp  **** 
  50:src/main.cpp  **** 
  51:src/main.cpp  **** 
  52:src/main.cpp  **** int main() {
 448              		.loc 1 52 12 is_stmt 1
 449              		.cfi_startproc
 450 02e8 130101FC 		addi	sp,sp,-64
 451              		.cfi_def_cfa_offset 64
 452 02ec 233C1102 		sd	ra,56(sp)
 453 02f0 23388102 		sd	s0,48(sp)
 454 02f4 23349102 		sd	s1,40(sp)
 455 02f8 23302103 		sd	s2,32(sp)
 456              		.cfi_offset 1, -8
 457              		.cfi_offset 8, -16
 458              		.cfi_offset 9, -24
 459              		.cfi_offset 18, -32
 460 02fc 13040104 		addi	s0,sp,64
 461              		.cfi_def_cfa 8, 0
  53:src/main.cpp  ****     TCB *threads[3];
 462              		.loc 1 53 5
  54:src/main.cpp  **** 
  55:src/main.cpp  ****     threads[0]=TCB::create_thread(nullptr);
 463              		.loc 1 55 5
 464              		.loc 1 55 34 is_stmt 0
 465 0300 13050000 		li	a0,0
 466 0304 97000000 		call	_ZN3TCB13create_threadEPFvvE
 466      E7800000 
 467              	.LVL61:
 468              		.loc 1 55 15
 469 030c 2334A4FC 		sd	a0,-56(s0)
  56:src/main.cpp  ****     TCB::running=threads[0];
 470              		.loc 1 56 5 is_stmt 1
 471              		.loc 1 56 17 is_stmt 0
 472 0310 97070000 		sd	a0,_ZN3TCB7runningE,a5
 472      23B0A700 
  57:src/main.cpp  **** 
  58:src/main.cpp  ****     threads[1]=TCB::create_thread(workerBodyA);
 473              		.loc 1 58 5 is_stmt 1
 474              		.loc 1 58 34 is_stmt 0
 475 0318 17050000 		lla	a0,_Z11workerBodyAv
 475      13050500 
 476 0320 97000000 		call	_ZN3TCB13create_threadEPFvvE
 476      E7800000 
 477              	.LVL62:
 478              		.loc 1 58 15
 479 0328 2338A4FC 		sd	a0,-48(s0)
  59:src/main.cpp  ****     printString("Thread workerA ");
 480              		.loc 1 59 5 is_stmt 1
 481              		.loc 1 59 16 is_stmt 0
 482 032c 17050000 		lla	a0,.LC7
 482      13050500 
GAS LISTING /tmp/ccKoE37O.s 			page 12


 483 0334 97000000 		call	_Z11printStringPKc
 483      E7800000 
 484              	.LVL63:
  60:src/main.cpp  **** 
  61:src/main.cpp  **** 
  62:src/main.cpp  ****     threads[2]=TCB::create_thread(workerBodyB);
 485              		.loc 1 62 5 is_stmt 1
 486              		.loc 1 62 34 is_stmt 0
 487 033c 17050000 		lla	a0,_Z11workerBodyBv
 487      13050500 
 488 0344 97000000 		call	_ZN3TCB13create_threadEPFvvE
 488      E7800000 
 489              	.LVL64:
 490              		.loc 1 62 15
 491 034c 233CA4FC 		sd	a0,-40(s0)
  63:src/main.cpp  ****     printString("Thread workerB ");
 492              		.loc 1 63 5 is_stmt 1
 493              		.loc 1 63 16 is_stmt 0
 494 0350 17050000 		lla	a0,.LC8
 494      13050500 
 495 0358 97000000 		call	_Z11printStringPKc
 495      E7800000 
 496              	.LVL65:
 497 0360 6F00C000 		j	.L26
 498              	.L24:
  64:src/main.cpp  **** 
  65:src/main.cpp  ****     while(!(threads[1]->isFinished() && threads[2]->isFinished())){
  66:src/main.cpp  ****         TCB::yield();
 499              		.loc 1 66 9 is_stmt 1 discriminator 3
 500              		.loc 1 66 19 is_stmt 0 discriminator 3
 501 0364 97000000 		call	_ZN3TCB5yieldEv
 501      E7800000 
 502              	.LVL66:
 503              	.L26:
  65:src/main.cpp  ****         TCB::yield();
 504              		.loc 1 65 5 is_stmt 1
  65:src/main.cpp  ****         TCB::yield();
 505              		.loc 1 65 11
  65:src/main.cpp  ****         TCB::yield();
 506              		.loc 1 65 22 is_stmt 0
 507 036c 833704FD 		ld	a5,-48(s0)
 508              	.LVL67:
 509              	.LBB18:
 510              	.LBB19:
  14:src/../h/TCB.hpp ****     void setFinished(bool finished){this->finished=finished;}
 511              		.loc 2 14 30 is_stmt 1
  14:src/../h/TCB.hpp ****     void setFinished(bool finished){this->finished=finished;}
 512              		.loc 2 14 37 is_stmt 0
 513 0370 83C70702 		lbu	a5,32(a5)
 514              	.LVL68:
 515              	.LBE19:
 516              	.LBE18:
  65:src/main.cpp  ****         TCB::yield();
 517              		.loc 1 65 11
 518 0374 E38807FE 		beqz	a5,.L24
  65:src/main.cpp  ****         TCB::yield();
 519              		.loc 1 65 50 discriminator 2
GAS LISTING /tmp/ccKoE37O.s 			page 13


 520 0378 833784FD 		ld	a5,-40(s0)
 521              	.LVL69:
 522              	.LBB20:
 523              	.LBB21:
  14:src/../h/TCB.hpp ****     void setFinished(bool finished){this->finished=finished;}
 524              		.loc 2 14 30 is_stmt 1 discriminator 2
  14:src/../h/TCB.hpp ****     void setFinished(bool finished){this->finished=finished;}
 525              		.loc 2 14 37 is_stmt 0 discriminator 2
 526 037c 83C70702 		lbu	a5,32(a5)
 527              	.LVL70:
 528              	.LBE21:
 529              	.LBE20:
  65:src/main.cpp  ****         TCB::yield();
 530              		.loc 1 65 11 discriminator 2
 531 0380 E38207FE 		beqz	a5,.L24
 532 0384 930484FC 		addi	s1,s0,-56
 533 0388 6F004001 		j	.L25
 534              	.LVL71:
 535              	.L29:
 536              	.LBB22:
  67:src/main.cpp  ****     }
  68:src/main.cpp  **** 
  69:src/main.cpp  ****     for(auto &thread:threads){
  70:src/main.cpp  ****         delete thread;
 537              		.loc 1 70 16
 538 038c 13050900 		mv	a0,s2
 539 0390 97000000 		call	_ZdlPv
 539      E7800000 
 540              	.LVL72:
 541              	.L28:
  69:src/main.cpp  ****         delete thread;
 542              		.loc 1 69 5 is_stmt 1 discriminator 3
 543 0398 93848400 		addi	s1,s1,8
 544              	.LVL73:
 545              	.L25:
  69:src/main.cpp  ****         delete thread;
 546              		.loc 1 69 22 discriminator 1
 547 039c 930704FE 		addi	a5,s0,-32
 548 03a0 6380F402 		beq	s1,a5,.L27
 549              	.LVL74:
 550              		.loc 1 70 9 discriminator 2
 551              		.loc 1 70 16 is_stmt 0 discriminator 2
 552 03a4 03B90400 		ld	s2,0(s1)
 553              		.loc 1 70 22 discriminator 2
 554 03a8 E30809FE 		beqz	s2,.L28
 555              	.LVL75:
 556              	.LBB23:
 557              	.LBB24:
   9:src/../h/TCB.hpp ****     using Body = void (*)();
 558              		.loc 2 9 13 is_stmt 1
   9:src/../h/TCB.hpp ****     using Body = void (*)();
 559              		.loc 2 9 22 is_stmt 0
 560 03ac 03358900 		ld	a0,8(s2)
   9:src/../h/TCB.hpp ****     using Body = void (*)();
 561              		.loc 2 9 27
 562 03b0 E30E05FC 		beqz	a0,.L29
   9:src/../h/TCB.hpp ****     using Body = void (*)();
GAS LISTING /tmp/ccKoE37O.s 			page 14


 563              		.loc 2 9 22
 564 03b4 97000000 		call	_ZdaPv
 564      E7800000 
 565              	.LVL76:
 566 03bc 6FF01FFD 		j	.L29
 567              	.LVL77:
 568              	.L27:
 569              	.LBE24:
 570              	.LBE23:
 571              	.LBE22:
  71:src/main.cpp  ****     }
  72:src/main.cpp  **** 
  73:src/main.cpp  ****     printString("Finished");
 572              		.loc 1 73 5 is_stmt 1
 573              		.loc 1 73 16 is_stmt 0
 574 03c0 17050000 		lla	a0,.LC9
 574      13050500 
 575 03c8 97000000 		call	_Z11printStringPKc
 575      E7800000 
 576              	.LVL78:
  74:src/main.cpp  **** 
  75:src/main.cpp  ****     return 0;
 577              		.loc 1 75 5 is_stmt 1
  76:src/main.cpp  **** 
  77:src/main.cpp  **** }...
 578              		.loc 1 77 1 is_stmt 0
 579 03d0 13050000 		li	a0,0
 580 03d4 83308103 		ld	ra,56(sp)
 581              		.cfi_restore 1
 582 03d8 03340103 		ld	s0,48(sp)
 583              		.cfi_restore 8
 584              		.cfi_def_cfa 2, 64
 585 03dc 83348102 		ld	s1,40(sp)
 586              		.cfi_restore 9
 587              	.LVL79:
 588 03e0 03390102 		ld	s2,32(sp)
 589              		.cfi_restore 18
 590 03e4 13010104 		addi	sp,sp,64
 591              		.cfi_def_cfa_offset 0
 592 03e8 67800000 		jr	ra
 593              		.cfi_endproc
 594              	.LFE16:
 596              	.Letext0:
 597              		.file 3 "src/../h/../lib/hw.h"
 598              		.file 4 "src/../h/printHelper.hpp"
GAS LISTING /tmp/ccKoE37O.s 			page 15


DEFINED SYMBOLS
                            *ABS*:0000000000000000 main.cpp
     /tmp/ccKoE37O.s:12     .text:0000000000000000 _Z9fibonaccim
     /tmp/ccKoE37O.s:16     .text:0000000000000000 .L0 
     /tmp/ccKoE37O.s:18     .text:0000000000000000 .L0 
     /tmp/ccKoE37O.s:19     .text:0000000000000004 .L0 
     /tmp/ccKoE37O.s:24     .text:0000000000000014 .L0 
     /tmp/ccKoE37O.s:25     .text:0000000000000014 .L0 
     /tmp/ccKoE37O.s:26     .text:0000000000000014 .L0 
     /tmp/ccKoE37O.s:27     .text:0000000000000014 .L0 
     /tmp/ccKoE37O.s:29     .text:0000000000000018 .L0 
     /tmp/ccKoE37O.s:32     .text:000000000000001c .L0 
     /tmp/ccKoE37O.s:35     .text:0000000000000024 .L0 
     /tmp/ccKoE37O.s:36     .text:0000000000000024 .L0 
     /tmp/ccKoE37O.s:38     .text:0000000000000028 .L0 
     /tmp/ccKoE37O.s:42     .text:000000000000002c .L0 
     /tmp/ccKoE37O.s:43     .text:000000000000002c .L0 
     /tmp/ccKoE37O.s:48     .text:000000000000003c .L0 
     /tmp/ccKoE37O.s:52     .text:0000000000000048 .L0 
     /tmp/ccKoE37O.s:55     .text:000000000000004c .L0 
     /tmp/ccKoE37O.s:56     .text:0000000000000050 .L0 
     /tmp/ccKoE37O.s:57     .text:0000000000000050 .L0 
     /tmp/ccKoE37O.s:59     .text:0000000000000054 .L0 
     /tmp/ccKoE37O.s:60     .text:0000000000000054 .L0 
     /tmp/ccKoE37O.s:62     .text:0000000000000058 .L0 
     /tmp/ccKoE37O.s:65     .text:000000000000005c .L0 
     /tmp/ccKoE37O.s:67     .text:0000000000000060 .L0 
     /tmp/ccKoE37O.s:71     .text:0000000000000064 .L0 
     /tmp/ccKoE37O.s:73     .text:0000000000000064 .L0 
     /tmp/ccKoE37O.s:74     .text:0000000000000064 .L0 
     /tmp/ccKoE37O.s:77     .text:0000000000000070 .L0 
     /tmp/ccKoE37O.s:100    .text:0000000000000070 _Z11workerBodyAv
     /tmp/ccKoE37O.s:103    .text:0000000000000070 .L0 
     /tmp/ccKoE37O.s:104    .text:0000000000000070 .L0 
     /tmp/ccKoE37O.s:105    .text:0000000000000074 .L0 
     /tmp/ccKoE37O.s:110    .text:0000000000000084 .L0 
     /tmp/ccKoE37O.s:111    .text:0000000000000084 .L0 
     /tmp/ccKoE37O.s:112    .text:0000000000000084 .L0 
     /tmp/ccKoE37O.s:113    .text:0000000000000084 .L0 
     /tmp/ccKoE37O.s:115    .text:0000000000000088 .L0 
     /tmp/ccKoE37O.s:118    .text:0000000000000088 .L0 
     /tmp/ccKoE37O.s:119    .text:0000000000000088 .L0 
     /tmp/ccKoE37O.s:124    .text:0000000000000090 .L0 
     /tmp/ccKoE37O.s:125    .text:0000000000000090 .L0 
     /tmp/ccKoE37O.s:129    .text:00000000000000a0 .L0 
     /tmp/ccKoE37O.s:130    .text:00000000000000a0 .L0 
     /tmp/ccKoE37O.s:134    .text:00000000000000ac .L0 
     /tmp/ccKoE37O.s:135    .text:00000000000000ac .L0 
     /tmp/ccKoE37O.s:139    .text:00000000000000bc .L0 
     /tmp/ccKoE37O.s:145    .text:00000000000000c4 .L0 
     /tmp/ccKoE37O.s:146    .text:00000000000000c4 .L0 
     /tmp/ccKoE37O.s:149    .text:00000000000000cc .L0 
     /tmp/ccKoE37O.s:150    .text:00000000000000cc .L0 
     /tmp/ccKoE37O.s:154    .text:00000000000000dc .L0 
        src/main.cpp:16     .text:00000000000000dc .L0 
     /tmp/ccKoE37O.s:160    .text:00000000000000e0 .L0 
     /tmp/ccKoE37O.s:162    .text:00000000000000e0 .L0 
GAS LISTING /tmp/ccKoE37O.s 			page 16


     /tmp/ccKoE37O.s:165    .text:00000000000000e8 .L0 
     /tmp/ccKoE37O.s:166    .text:00000000000000e8 .L0 
        src/main.cpp:20     .text:00000000000000e8 .L0 
     /tmp/ccKoE37O.s:173    .text:00000000000000ec .L0 
     /tmp/ccKoE37O.s:175    .text:00000000000000ec .L0 
     /tmp/ccKoE37O.s:179    .text:00000000000000fc .L0 
     /tmp/ccKoE37O.s:180    .text:00000000000000fc .L0 
     /tmp/ccKoE37O.s:184    .text:0000000000000108 .L0 
     /tmp/ccKoE37O.s:185    .text:0000000000000108 .L0 
     /tmp/ccKoE37O.s:189    .text:0000000000000118 .L0 
     /tmp/ccKoE37O.s:190    .text:0000000000000118 .L0 
     /tmp/ccKoE37O.s:196    .text:0000000000000128 .L0 
     /tmp/ccKoE37O.s:197    .text:0000000000000128 .L0 
     /tmp/ccKoE37O.s:202    .text:0000000000000138 .L0 
     /tmp/ccKoE37O.s:203    .text:0000000000000138 .L0 
     /tmp/ccKoE37O.s:207    .text:0000000000000144 .L0 
     /tmp/ccKoE37O.s:208    .text:0000000000000144 .L0 
     /tmp/ccKoE37O.s:214    .text:0000000000000158 .L0 
     /tmp/ccKoE37O.s:215    .text:0000000000000158 .L0 
     /tmp/ccKoE37O.s:219    .text:0000000000000168 .L0 
     /tmp/ccKoE37O.s:220    .text:0000000000000168 .L0 
     /tmp/ccKoE37O.s:224    .text:0000000000000174 .L0 
     /tmp/ccKoE37O.s:225    .text:0000000000000174 .L0 
     /tmp/ccKoE37O.s:229    .text:0000000000000184 .L0 
     /tmp/ccKoE37O.s:235    .text:000000000000018c .L0 
     /tmp/ccKoE37O.s:236    .text:000000000000018c .L0 
     /tmp/ccKoE37O.s:243    .text:0000000000000194 .L0 
     /tmp/ccKoE37O.s:244    .text:0000000000000194 .L0 
     /tmp/ccKoE37O.s:245    .text:0000000000000194 .L0 
     /tmp/ccKoE37O.s:252    .text:00000000000001a4 .L0 
     /tmp/ccKoE37O.s:253    .text:00000000000001a4 .L0 
     /tmp/ccKoE37O.s:256    .text:00000000000001ac .L0 
     /tmp/ccKoE37O.s:257    .text:00000000000001b0 .L0 
     /tmp/ccKoE37O.s:259    .text:00000000000001b4 .L0 
     /tmp/ccKoE37O.s:260    .text:00000000000001b4 .L0 
     /tmp/ccKoE37O.s:262    .text:00000000000001b8 .L0 
     /tmp/ccKoE37O.s:265    .text:00000000000001bc .L0 
     /tmp/ccKoE37O.s:268    .text:00000000000001c0 .L0 
     /tmp/ccKoE37O.s:270    .text:00000000000001c4 .L0 
     /tmp/ccKoE37O.s:284    .text:00000000000001c4 _Z11workerBodyBv
     /tmp/ccKoE37O.s:287    .text:00000000000001c4 .L0 
     /tmp/ccKoE37O.s:288    .text:00000000000001c4 .L0 
     /tmp/ccKoE37O.s:289    .text:00000000000001c8 .L0 
     /tmp/ccKoE37O.s:294    .text:00000000000001d8 .L0 
     /tmp/ccKoE37O.s:295    .text:00000000000001d8 .L0 
     /tmp/ccKoE37O.s:296    .text:00000000000001d8 .L0 
     /tmp/ccKoE37O.s:297    .text:00000000000001d8 .L0 
     /tmp/ccKoE37O.s:299    .text:00000000000001dc .L0 
     /tmp/ccKoE37O.s:302    .text:00000000000001dc .L0 
     /tmp/ccKoE37O.s:303    .text:00000000000001dc .L0 
     /tmp/ccKoE37O.s:308    .text:00000000000001e4 .L0 
     /tmp/ccKoE37O.s:309    .text:00000000000001e4 .L0 
     /tmp/ccKoE37O.s:313    .text:00000000000001f4 .L0 
     /tmp/ccKoE37O.s:314    .text:00000000000001f4 .L0 
     /tmp/ccKoE37O.s:318    .text:0000000000000200 .L0 
     /tmp/ccKoE37O.s:319    .text:0000000000000200 .L0 
     /tmp/ccKoE37O.s:323    .text:0000000000000210 .L0 
GAS LISTING /tmp/ccKoE37O.s 			page 17


     /tmp/ccKoE37O.s:329    .text:0000000000000218 .L0 
     /tmp/ccKoE37O.s:330    .text:0000000000000218 .L0 
     /tmp/ccKoE37O.s:333    .text:0000000000000220 .L0 
     /tmp/ccKoE37O.s:334    .text:0000000000000220 .L0 
     /tmp/ccKoE37O.s:338    .text:0000000000000230 .L0 
        src/main.cpp:36     .text:0000000000000230 .L0 
     /tmp/ccKoE37O.s:344    .text:0000000000000234 .L0 
     /tmp/ccKoE37O.s:346    .text:0000000000000234 .L0 
     /tmp/ccKoE37O.s:349    .text:000000000000023c .L0 
     /tmp/ccKoE37O.s:350    .text:000000000000023c .L0 
     /tmp/ccKoE37O.s:356    .text:000000000000024c .L0 
     /tmp/ccKoE37O.s:357    .text:000000000000024c .L0 
     /tmp/ccKoE37O.s:362    .text:000000000000025c .L0 
     /tmp/ccKoE37O.s:363    .text:000000000000025c .L0 
     /tmp/ccKoE37O.s:367    .text:0000000000000268 .L0 
     /tmp/ccKoE37O.s:368    .text:0000000000000268 .L0 
     /tmp/ccKoE37O.s:374    .text:000000000000027c .L0 
     /tmp/ccKoE37O.s:375    .text:000000000000027c .L0 
     /tmp/ccKoE37O.s:379    .text:000000000000028c .L0 
     /tmp/ccKoE37O.s:380    .text:000000000000028c .L0 
     /tmp/ccKoE37O.s:384    .text:0000000000000298 .L0 
     /tmp/ccKoE37O.s:385    .text:0000000000000298 .L0 
     /tmp/ccKoE37O.s:389    .text:00000000000002a8 .L0 
     /tmp/ccKoE37O.s:395    .text:00000000000002b0 .L0 
     /tmp/ccKoE37O.s:396    .text:00000000000002b0 .L0 
     /tmp/ccKoE37O.s:402    .text:00000000000002b8 .L0 
     /tmp/ccKoE37O.s:403    .text:00000000000002b8 .L0 
     /tmp/ccKoE37O.s:404    .text:00000000000002b8 .L0 
     /tmp/ccKoE37O.s:411    .text:00000000000002c8 .L0 
     /tmp/ccKoE37O.s:412    .text:00000000000002c8 .L0 
     /tmp/ccKoE37O.s:415    .text:00000000000002d0 .L0 
     /tmp/ccKoE37O.s:416    .text:00000000000002d4 .L0 
     /tmp/ccKoE37O.s:418    .text:00000000000002d8 .L0 
     /tmp/ccKoE37O.s:419    .text:00000000000002d8 .L0 
     /tmp/ccKoE37O.s:421    .text:00000000000002dc .L0 
     /tmp/ccKoE37O.s:424    .text:00000000000002e0 .L0 
     /tmp/ccKoE37O.s:427    .text:00000000000002e4 .L0 
     /tmp/ccKoE37O.s:429    .text:00000000000002e8 .L0 
     /tmp/ccKoE37O.s:446    .text:00000000000002e8 main
     /tmp/ccKoE37O.s:449    .text:00000000000002e8 .L0 
     /tmp/ccKoE37O.s:450    .text:00000000000002e8 .L0 
     /tmp/ccKoE37O.s:451    .text:00000000000002ec .L0 
     /tmp/ccKoE37O.s:456    .text:00000000000002fc .L0 
     /tmp/ccKoE37O.s:457    .text:00000000000002fc .L0 
     /tmp/ccKoE37O.s:458    .text:00000000000002fc .L0 
     /tmp/ccKoE37O.s:459    .text:00000000000002fc .L0 
     /tmp/ccKoE37O.s:461    .text:0000000000000300 .L0 
     /tmp/ccKoE37O.s:463    .text:0000000000000300 .L0 
     /tmp/ccKoE37O.s:464    .text:0000000000000300 .L0 
     /tmp/ccKoE37O.s:465    .text:0000000000000300 .L0 
     /tmp/ccKoE37O.s:469    .text:000000000000030c .L0 
     /tmp/ccKoE37O.s:471    .text:0000000000000310 .L0 
     /tmp/ccKoE37O.s:472    .text:0000000000000310 .L0 
     /tmp/ccKoE37O.s:474    .text:0000000000000318 .L0 
     /tmp/ccKoE37O.s:475    .text:0000000000000318 .L0 
     /tmp/ccKoE37O.s:479    .text:0000000000000328 .L0 
     /tmp/ccKoE37O.s:481    .text:000000000000032c .L0 
GAS LISTING /tmp/ccKoE37O.s 			page 18


     /tmp/ccKoE37O.s:482    .text:000000000000032c .L0 
     /tmp/ccKoE37O.s:486    .text:000000000000033c .L0 
     /tmp/ccKoE37O.s:487    .text:000000000000033c .L0 
     /tmp/ccKoE37O.s:491    .text:000000000000034c .L0 
     /tmp/ccKoE37O.s:493    .text:0000000000000350 .L0 
     /tmp/ccKoE37O.s:494    .text:0000000000000350 .L0 
     /tmp/ccKoE37O.s:500    .text:0000000000000364 .L0 
     /tmp/ccKoE37O.s:501    .text:0000000000000364 .L0 
     /tmp/ccKoE37O.s:505    .text:000000000000036c .L0 
     /tmp/ccKoE37O.s:506    .text:000000000000036c .L0 
     /tmp/ccKoE37O.s:507    .text:000000000000036c .L0 
     /tmp/ccKoE37O.s:512    .text:0000000000000370 .L0 
     /tmp/ccKoE37O.s:513    .text:0000000000000370 .L0 
     /tmp/ccKoE37O.s:518    .text:0000000000000374 .L0 
     /tmp/ccKoE37O.s:520    .text:0000000000000378 .L0 
     /tmp/ccKoE37O.s:525    .text:000000000000037c .L0 
     /tmp/ccKoE37O.s:526    .text:000000000000037c .L0 
     /tmp/ccKoE37O.s:531    .text:0000000000000380 .L0 
     /tmp/ccKoE37O.s:538    .text:000000000000038c .L0 
     /tmp/ccKoE37O.s:543    .text:0000000000000398 .L0 
     /tmp/ccKoE37O.s:547    .text:000000000000039c .L0 
     /tmp/ccKoE37O.s:551    .text:00000000000003a4 .L0 
     /tmp/ccKoE37O.s:552    .text:00000000000003a4 .L0 
     /tmp/ccKoE37O.s:554    .text:00000000000003a8 .L0 
     /tmp/ccKoE37O.s:559    .text:00000000000003ac .L0 
     /tmp/ccKoE37O.s:560    .text:00000000000003ac .L0 
     /tmp/ccKoE37O.s:562    .text:00000000000003b0 .L0 
     /tmp/ccKoE37O.s:564    .text:00000000000003b4 .L0 
     /tmp/ccKoE37O.s:573    .text:00000000000003c0 .L0 
     /tmp/ccKoE37O.s:574    .text:00000000000003c0 .L0 
     /tmp/ccKoE37O.s:578    .text:00000000000003d0 .L0 
     /tmp/ccKoE37O.s:579    .text:00000000000003d0 .L0 
     /tmp/ccKoE37O.s:581    .text:00000000000003d8 .L0 
     /tmp/ccKoE37O.s:583    .text:00000000000003dc .L0 
     /tmp/ccKoE37O.s:584    .text:00000000000003dc .L0 
     /tmp/ccKoE37O.s:586    .text:00000000000003e0 .L0 
     /tmp/ccKoE37O.s:589    .text:00000000000003e4 .L0 
     /tmp/ccKoE37O.s:591    .text:00000000000003e8 .L0 
     /tmp/ccKoE37O.s:593    .text:00000000000003ec .L0 
     /tmp/ccKoE37O.s:599    .text:00000000000003ec .L0 
     /tmp/ccKoE37O.s:82     .rodata.str1.8:0000000000000000 .LC0
     /tmp/ccKoE37O.s:125    .text:0000000000000090 .L0 
     /tmp/ccKoE37O.s:85     .rodata.str1.8:0000000000000008 .LC1
     /tmp/ccKoE37O.s:135    .text:00000000000000ac .L0 
     /tmp/ccKoE37O.s:88     .rodata.str1.8:0000000000000010 .LC2
     /tmp/ccKoE37O.s:150    .text:00000000000000cc .L0 
     /tmp/ccKoE37O.s:91     .rodata.str1.8:0000000000000020 .LC3
     /tmp/ccKoE37O.s:175    .text:00000000000000ec .L0 
     /tmp/ccKoE37O.s:185    .text:0000000000000108 .L0 
     /tmp/ccKoE37O.s:94     .rodata.str1.8:0000000000000028 .LC4
     /tmp/ccKoE37O.s:197    .text:0000000000000128 .L0 
     /tmp/ccKoE37O.s:208    .text:0000000000000144 .L0 
     /tmp/ccKoE37O.s:215    .text:0000000000000158 .L0 
     /tmp/ccKoE37O.s:225    .text:0000000000000174 .L0 
     /tmp/ccKoE37O.s:245    .text:0000000000000194 .L0 
     /tmp/ccKoE37O.s:275    .rodata.str1.8:0000000000000038 .LC5
     /tmp/ccKoE37O.s:309    .text:00000000000001e4 .L0 
GAS LISTING /tmp/ccKoE37O.s 			page 19


     /tmp/ccKoE37O.s:319    .text:0000000000000200 .L0 
     /tmp/ccKoE37O.s:278    .rodata.str1.8:0000000000000040 .LC6
     /tmp/ccKoE37O.s:334    .text:0000000000000220 .L0 
     /tmp/ccKoE37O.s:357    .text:000000000000024c .L0 
     /tmp/ccKoE37O.s:368    .text:0000000000000268 .L0 
     /tmp/ccKoE37O.s:375    .text:000000000000027c .L0 
     /tmp/ccKoE37O.s:385    .text:0000000000000298 .L0 
     /tmp/ccKoE37O.s:404    .text:00000000000002b8 .L0 
     /tmp/ccKoE37O.s:472    .text:0000000000000310 .L0 
     /tmp/ccKoE37O.s:475    .text:0000000000000318 .L0 
     /tmp/ccKoE37O.s:434    .rodata.str1.8:0000000000000050 .LC7
     /tmp/ccKoE37O.s:482    .text:000000000000032c .L0 
     /tmp/ccKoE37O.s:487    .text:000000000000033c .L0 
     /tmp/ccKoE37O.s:437    .rodata.str1.8:0000000000000060 .LC8
     /tmp/ccKoE37O.s:494    .text:0000000000000350 .L0 
     /tmp/ccKoE37O.s:440    .rodata.str1.8:0000000000000070 .LC9
     /tmp/ccKoE37O.s:574    .text:00000000000003c0 .L0 
     /tmp/ccKoE37O.s:53     .text:000000000000004c .L1
     /tmp/ccKoE37O.s:70     .text:0000000000000064 .L6
     /tmp/ccKoE37O.s:40     .text:000000000000002c .L3
     /tmp/ccKoE37O.s:143    .text:00000000000000c4 .L9
     /tmp/ccKoE37O.s:122    .text:0000000000000090 .L13
     /tmp/ccKoE37O.s:233    .text:000000000000018c .L11
     /tmp/ccKoE37O.s:212    .text:0000000000000158 .L14
     /tmp/ccKoE37O.s:327    .text:0000000000000218 .L17
     /tmp/ccKoE37O.s:306    .text:00000000000001e4 .L21
     /tmp/ccKoE37O.s:393    .text:00000000000002b0 .L19
     /tmp/ccKoE37O.s:372    .text:000000000000027c .L22
     /tmp/ccKoE37O.s:503    .text:000000000000036c .L26
     /tmp/ccKoE37O.s:498    .text:0000000000000364 .L24
     /tmp/ccKoE37O.s:545    .text:000000000000039c .L25
     /tmp/ccKoE37O.s:568    .text:00000000000003c0 .L27
     /tmp/ccKoE37O.s:541    .text:0000000000000398 .L28
     /tmp/ccKoE37O.s:535    .text:000000000000038c .L29
     /tmp/ccKoE37O.s:1585   .debug_abbrev:0000000000000000 .Ldebug_abbrev0
     /tmp/ccKoE37O.s:2578   .debug_str:0000000000000052 .LASF51
     /tmp/ccKoE37O.s:2622   .debug_str:0000000000000235 .LASF52
     /tmp/ccKoE37O.s:2590   .debug_str:000000000000015b .LASF53
     /tmp/ccKoE37O.s:8      .text:0000000000000000 .Ltext0
     /tmp/ccKoE37O.s:596    .text:00000000000003ec .Letext0
     /tmp/ccKoE37O.s:2562   .debug_line:0000000000000000 .Ldebug_line0
     /tmp/ccKoE37O.s:2640   .debug_str:00000000000002bd .LASF0
     /tmp/ccKoE37O.s:2646   .debug_str:00000000000002d9 .LASF1
     /tmp/ccKoE37O.s:2628   .debug_str:0000000000000257 .LASF2
     /tmp/ccKoE37O.s:2592   .debug_str:0000000000000174 .LASF3
     /tmp/ccKoE37O.s:2614   .debug_str:0000000000000218 .LASF4
     /tmp/ccKoE37O.s:2674   .debug_str:000000000000037a .LASF5
     /tmp/ccKoE37O.s:2580   .debug_str:0000000000000116 .LASF6
     /tmp/ccKoE37O.s:2648   .debug_str:00000000000002ec .LASF7
     /tmp/ccKoE37O.s:2638   .debug_str:00000000000002aa .LASF8
     /tmp/ccKoE37O.s:2688   .debug_str:00000000000003ef .LASF9
     /tmp/ccKoE37O.s:2606   .debug_str:00000000000001c6 .LASF10
     /tmp/ccKoE37O.s:2656   .debug_str:0000000000000316 .LASF11
     /tmp/ccKoE37O.s:2682   .debug_str:00000000000003c0 .LASF12
     /tmp/ccKoE37O.s:2582   .debug_str:000000000000011d .LASF13
     /tmp/ccKoE37O.s:2568   .debug_str:0000000000000013 .LASF14
     /tmp/ccKoE37O.s:2584   .debug_str:000000000000012d .LASF15
GAS LISTING /tmp/ccKoE37O.s 			page 20


     /tmp/ccKoE37O.s:2666   .debug_str:0000000000000347 .LASF16
     /tmp/ccKoE37O.s:2586   .debug_str:0000000000000139 .LASF17
     /tmp/ccKoE37O.s:2572   .debug_str:000000000000002f .LASF54
     /tmp/ccKoE37O.s:2608   .debug_str:00000000000001d4 .LASF18
     /tmp/ccKoE37O.s:2662   .debug_str:0000000000000336 .LASF20
     /tmp/ccKoE37O.s:2692   .debug_str:0000000000000409 .LASF19
     /tmp/ccKoE37O.s:2634   .debug_str:0000000000000281 .LASF21
     /tmp/ccKoE37O.s:2664   .debug_str:0000000000000342 .LASF55
     /tmp/ccKoE37O.s:2650   .debug_str:00000000000002ff .LASF29
     /tmp/ccKoE37O.s:2604   .debug_str:00000000000001af .LASF36
     /tmp/ccKoE37O.s:2630   .debug_str:0000000000000265 .LASF22
     /tmp/ccKoE37O.s:2610   .debug_str:00000000000001d9 .LASF23
     /tmp/ccKoE37O.s:2668   .debug_str:000000000000035d .LASF56
     /tmp/ccKoE37O.s:2632   .debug_str:0000000000000271 .LASF57
     /tmp/ccKoE37O.s:2594   .debug_str:000000000000017a .LASF58
     /tmp/ccKoE37O.s:2670   .debug_str:0000000000000363 .LASF59
     /tmp/ccKoE37O.s:2618   .debug_str:0000000000000228 .LASF24
     /tmp/ccKoE37O.s:2644   .debug_str:00000000000002d3 .LASF25
     /tmp/ccKoE37O.s:2620   .debug_str:000000000000022d .LASF26
     /tmp/ccKoE37O.s:2616   .debug_str:000000000000021f .LASF27
     /tmp/ccKoE37O.s:2694   .debug_str:0000000000000417 .LASF60
     /tmp/ccKoE37O.s:2612   .debug_str:00000000000001f0 .LASF61
     /tmp/ccKoE37O.s:2642   .debug_str:00000000000002ca .LASF62
     /tmp/ccKoE37O.s:2596   .debug_str:0000000000000182 .LASF63
     /tmp/ccKoE37O.s:2626   .debug_str:000000000000024c .LASF64
     /tmp/ccKoE37O.s:2598   .debug_str:0000000000000195 .LASF28
     /tmp/ccKoE37O.s:2654   .debug_str:0000000000000311 .LASF30
     /tmp/ccKoE37O.s:447    .text:00000000000002e8 .LFB16
     /tmp/ccKoE37O.s:594    .text:00000000000003ec .LFE16
     /tmp/ccKoE37O.s:2602   .debug_str:00000000000001a7 .LASF31
     /tmp/ccKoE37O.s:536    .text:000000000000038c .LBB22
     /tmp/ccKoE37O.s:571    .text:00000000000003c0 .LBE22
     /tmp/ccKoE37O.s:2652   .debug_str:000000000000030a .LASF32
     /tmp/ccKoE37O.s:2402   .debug_loc:0000000000000000 .LLST10
     /tmp/ccKoE37O.s:2696   .debug_str:0000000000000425 .LASF33
     /tmp/ccKoE37O.s:2658   .debug_str:0000000000000325 .LASF65
     /tmp/ccKoE37O.s:2413   .debug_loc:0000000000000036 .LLST11
     /tmp/ccKoE37O.s:2624   .debug_str:0000000000000242 .LASF34
     /tmp/ccKoE37O.s:556    .text:00000000000003ac .LBB23
     /tmp/ccKoE37O.s:570    .text:00000000000003c0 .LBE23
     /tmp/ccKoE37O.s:2420   .debug_loc:0000000000000059 .LLST12
     /tmp/ccKoE37O.s:565    .text:00000000000003bc .LVL76
     /tmp/ccKoE37O.s:540    .text:0000000000000398 .LVL72
     /tmp/ccKoE37O.s:509    .text:0000000000000370 .LBB18
     /tmp/ccKoE37O.s:516    .text:0000000000000374 .LBE18
     /tmp/ccKoE37O.s:2427   .debug_loc:000000000000007c .LLST8
     /tmp/ccKoE37O.s:522    .text:000000000000037c .LBB20
     /tmp/ccKoE37O.s:529    .text:0000000000000380 .LBE20
     /tmp/ccKoE37O.s:2434   .debug_loc:000000000000009f .LLST9
     /tmp/ccKoE37O.s:467    .text:000000000000030c .LVL61
     /tmp/ccKoE37O.s:477    .text:0000000000000328 .LVL62
     /tmp/ccKoE37O.s:484    .text:000000000000033c .LVL63
     /tmp/ccKoE37O.s:489    .text:000000000000034c .LVL64
     /tmp/ccKoE37O.s:496    .text:0000000000000360 .LVL65
     /tmp/ccKoE37O.s:502    .text:000000000000036c .LVL66
     /tmp/ccKoE37O.s:576    .text:00000000000003d0 .LVL78
     /tmp/ccKoE37O.s:2566   .debug_str:0000000000000007 .LASF35
GAS LISTING /tmp/ccKoE37O.s 			page 21


     /tmp/ccKoE37O.s:2574   .debug_str:0000000000000037 .LASF37
     /tmp/ccKoE37O.s:285    .text:00000000000001c4 .LFB15
     /tmp/ccKoE37O.s:430    .text:00000000000002e8 .LFE15
     /tmp/ccKoE37O.s:2441   .debug_loc:00000000000000c2 .LLST5
     /tmp/ccKoE37O.s:2564   .debug_str:0000000000000000 .LASF38
     /tmp/ccKoE37O.s:2461   .debug_loc:000000000000011f .LLST6
     /tmp/ccKoE37O.s:400    .text:00000000000002b8 .LBB16
     /tmp/ccKoE37O.s:409    .text:00000000000002c8 .LBE16
     /tmp/ccKoE37O.s:2472   .debug_loc:0000000000000155 .LLST7
     /tmp/ccKoE37O.s:311    .text:00000000000001f4 .LVL38
     /tmp/ccKoE37O.s:316    .text:0000000000000200 .LVL39
     /tmp/ccKoE37O.s:321    .text:0000000000000210 .LVL40
     /tmp/ccKoE37O.s:336    .text:0000000000000230 .LVL43
     /tmp/ccKoE37O.s:347    .text:000000000000023c .LVL44
     /tmp/ccKoE37O.s:352    .text:0000000000000248 .LVL45
     /tmp/ccKoE37O.s:360    .text:000000000000025c .LVL48
     /tmp/ccKoE37O.s:365    .text:0000000000000268 .LVL49
     /tmp/ccKoE37O.s:370    .text:0000000000000278 .LVL50
     /tmp/ccKoE37O.s:377    .text:000000000000028c .LVL51
     /tmp/ccKoE37O.s:382    .text:0000000000000298 .LVL52
     /tmp/ccKoE37O.s:387    .text:00000000000002a8 .LVL53
     /tmp/ccKoE37O.s:413    .text:00000000000002d0 .LVL58
     /tmp/ccKoE37O.s:2636   .debug_str:000000000000029e .LASF39
     /tmp/ccKoE37O.s:2680   .debug_str:00000000000003af .LASF40
     /tmp/ccKoE37O.s:101    .text:0000000000000070 .LFB14
     /tmp/ccKoE37O.s:271    .text:00000000000001c4 .LFE14
     /tmp/ccKoE37O.s:2480   .debug_loc:0000000000000179 .LLST1
     /tmp/ccKoE37O.s:2500   .debug_loc:00000000000001d6 .LLST2
     /tmp/ccKoE37O.s:2508   .debug_loc:00000000000001fa .LLST3
     /tmp/ccKoE37O.s:240    .text:0000000000000194 .LBB14
     /tmp/ccKoE37O.s:250    .text:00000000000001a4 .LBE14
     /tmp/ccKoE37O.s:2519   .debug_loc:0000000000000230 .LLST4
     /tmp/ccKoE37O.s:127    .text:00000000000000a0 .LVL9
     /tmp/ccKoE37O.s:132    .text:00000000000000ac .LVL10
     /tmp/ccKoE37O.s:137    .text:00000000000000bc .LVL11
     /tmp/ccKoE37O.s:152    .text:00000000000000dc .LVL14
     /tmp/ccKoE37O.s:163    .text:00000000000000e8 .LVL15
     /tmp/ccKoE37O.s:177    .text:00000000000000fc .LVL17
     /tmp/ccKoE37O.s:182    .text:0000000000000108 .LVL18
     /tmp/ccKoE37O.s:187    .text:0000000000000118 .LVL19
     /tmp/ccKoE37O.s:192    .text:0000000000000124 .LVL20
     /tmp/ccKoE37O.s:200    .text:0000000000000138 .LVL23
     /tmp/ccKoE37O.s:205    .text:0000000000000144 .LVL24
     /tmp/ccKoE37O.s:210    .text:0000000000000154 .LVL25
     /tmp/ccKoE37O.s:217    .text:0000000000000168 .LVL26
     /tmp/ccKoE37O.s:222    .text:0000000000000174 .LVL27
     /tmp/ccKoE37O.s:227    .text:0000000000000184 .LVL28
     /tmp/ccKoE37O.s:254    .text:00000000000001ac .LVL33
     /tmp/ccKoE37O.s:2690   .debug_str:00000000000003ff .LASF66
     /tmp/ccKoE37O.s:2686   .debug_str:00000000000003e1 .LASF67
     /tmp/ccKoE37O.s:13     .text:0000000000000000 .LFB13
     /tmp/ccKoE37O.s:78     .text:0000000000000070 .LFE13
     /tmp/ccKoE37O.s:2527   .debug_loc:0000000000000254 .LLST0
     /tmp/ccKoE37O.s:45     .text:0000000000000038 .LVL2
     /tmp/ccKoE37O.s:50     .text:0000000000000048 .LVL3
     /tmp/ccKoE37O.s:75     .text:000000000000006c .LVL6
     /tmp/ccKoE37O.s:2660   .debug_str:0000000000000331 .LASF41
GAS LISTING /tmp/ccKoE37O.s 			page 22


     /tmp/ccKoE37O.s:2576   .debug_str:0000000000000048 .LASF42
     /tmp/ccKoE37O.s:2588   .debug_str:000000000000014f .LASF68
     /tmp/ccKoE37O.s:2672   .debug_str:0000000000000373 .LASF43
     /tmp/ccKoE37O.s:2678   .debug_str:000000000000039c .LASF45
     /tmp/ccKoE37O.s:2700   .debug_str:0000000000000444 .LASF44
     /tmp/ccKoE37O.s:2676   .debug_str:000000000000038c .LASF46
     /tmp/ccKoE37O.s:2698   .debug_str:0000000000000431 .LASF47
     /tmp/ccKoE37O.s:2570   .debug_str:0000000000000023 .LASF49
     /tmp/ccKoE37O.s:2684   .debug_str:00000000000003cf .LASF48
     /tmp/ccKoE37O.s:2600   .debug_str:000000000000019a .LASF50
     /tmp/ccKoE37O.s:534    .text:000000000000038c .LVL71
     /tmp/ccKoE37O.s:544    .text:000000000000039c .LVL73
     /tmp/ccKoE37O.s:549    .text:00000000000003a4 .LVL74
     /tmp/ccKoE37O.s:567    .text:00000000000003c0 .LVL77
     /tmp/ccKoE37O.s:587    .text:00000000000003e0 .LVL79
     /tmp/ccKoE37O.s:555    .text:00000000000003ac .LVL75
     /tmp/ccKoE37O.s:508    .text:0000000000000370 .LVL67
     /tmp/ccKoE37O.s:514    .text:0000000000000374 .LVL68
     /tmp/ccKoE37O.s:521    .text:000000000000037c .LVL69
     /tmp/ccKoE37O.s:527    .text:0000000000000380 .LVL70
     /tmp/ccKoE37O.s:301    .text:00000000000001dc .LVL36
     /tmp/ccKoE37O.s:305    .text:00000000000001e4 .LVL37
     /tmp/ccKoE37O.s:324    .text:0000000000000214 .LVL41
     /tmp/ccKoE37O.s:326    .text:0000000000000218 .LVL42
     /tmp/ccKoE37O.s:390    .text:00000000000002ac .LVL54
     /tmp/ccKoE37O.s:392    .text:00000000000002b0 .LVL55
     /tmp/ccKoE37O.s:422    .text:00000000000002dc .LVL59
     /tmp/ccKoE37O.s:354    .text:000000000000024c .LVL46
     /tmp/ccKoE37O.s:358    .text:0000000000000254 .LVL47
     /tmp/ccKoE37O.s:425    .text:00000000000002e0 .LVL60
     /tmp/ccKoE37O.s:399    .text:00000000000002b8 .LVL56
     /tmp/ccKoE37O.s:407    .text:00000000000002c8 .LVL57
     /tmp/ccKoE37O.s:117    .text:0000000000000088 .LVL7
     /tmp/ccKoE37O.s:121    .text:0000000000000090 .LVL8
     /tmp/ccKoE37O.s:140    .text:00000000000000c0 .LVL12
     /tmp/ccKoE37O.s:142    .text:00000000000000c4 .LVL13
     /tmp/ccKoE37O.s:230    .text:0000000000000188 .LVL29
     /tmp/ccKoE37O.s:232    .text:000000000000018c .LVL30
     /tmp/ccKoE37O.s:263    .text:00000000000001b8 .LVL34
     /tmp/ccKoE37O.s:171    .text:00000000000000ec .LVL16
     /tmp/ccKoE37O.s:194    .text:0000000000000128 .LVL21
     /tmp/ccKoE37O.s:198    .text:0000000000000130 .LVL22
     /tmp/ccKoE37O.s:266    .text:00000000000001bc .LVL35
     /tmp/ccKoE37O.s:239    .text:0000000000000194 .LVL31
     /tmp/ccKoE37O.s:248    .text:00000000000001a4 .LVL32
     /tmp/ccKoE37O.s:17     .text:0000000000000000 .LVL0
     /tmp/ccKoE37O.s:39     .text:000000000000002c .LVL1
     /tmp/ccKoE37O.s:63     .text:0000000000000058 .LVL4
     /tmp/ccKoE37O.s:69     .text:0000000000000064 .LVL5
     /tmp/ccKoE37O.s:600    .debug_info:0000000000000000 .Ldebug_info0

UNDEFINED SYMBOLS
_ZN3TCB5yieldEv
_Z11printStringPKc
_Z12printIntegerm
_ZN3TCB7runningE
_ZN3TCB13create_threadEPFvvE
GAS LISTING /tmp/ccKoE37O.s 			page 23


_ZdlPv
_ZdaPv
