GAS LISTING /tmp/ccM6Y3AI.s 			page 1


   1              		.file	"main.cpp"
   2              		.option nopic
   3              		.option norelax
   4              		.attribute arch, "rv64i2p0_m2p0_a2p0"
   5              		.attribute unaligned_access, 0
   6              		.attribute stack_align, 16
   7              		.text
   8              	.Ltext0:
   9              		.align	2
  10              		.globl	_Znwm
  12              	_Znwm:
  13              	.LFB17:
  14              		.file 1 "src/../h/TCB.hpp"
   1:src/../h/TCB.hpp **** #ifndef TCB_HPP
   2:src/../h/TCB.hpp **** #define TCB_HPP
   3:src/../h/TCB.hpp **** 
   4:src/../h/TCB.hpp **** #include "../lib/hw.h"
   5:src/../h/TCB.hpp **** #include "MemoryAllocator.hpp"
   6:src/../h/TCB.hpp **** #include "Scheduler.hpp"
   7:src/../h/TCB.hpp **** 
   8:src/../h/TCB.hpp **** 
   9:src/../h/TCB.hpp **** class TCB{
  10:src/../h/TCB.hpp **** public:
  11:src/../h/TCB.hpp ****     ~TCB(){ delete[] stack;}
  12:src/../h/TCB.hpp ****     using Body = void (*)();
  13:src/../h/TCB.hpp ****     static TCB *create_thread(Body body);
  14:src/../h/TCB.hpp ****     uint64 getTimeSlice() const{ return timeSlice;}
  15:src/../h/TCB.hpp **** 
  16:src/../h/TCB.hpp ****     bool isFinished() const {return finished;}
  17:src/../h/TCB.hpp ****     void setFinished(bool finished){this->finished=finished;}
  18:src/../h/TCB.hpp **** 
  19:src/../h/TCB.hpp ****     static void yield();
  20:src/../h/TCB.hpp ****     static TCB *running;
  21:src/../h/TCB.hpp **** 
  22:src/../h/TCB.hpp **** private:
  23:src/../h/TCB.hpp ****     TCB(Body body):
  24:src/../h/TCB.hpp ****     body(body),
  25:src/../h/TCB.hpp ****     stack(body!=nullptr ? new uint64[STACK_SIZE] : nullptr),
  26:src/../h/TCB.hpp ****     context({
  27:src/../h/TCB.hpp ****         body!=nullptr ? (uint64) body : 0,
  28:src/../h/TCB.hpp ****         stack!=nullptr ? (uint64) &stack[STACK_SIZE] : 0
  29:src/../h/TCB.hpp ****     }),
  30:src/../h/TCB.hpp ****     finished(false)
  31:src/../h/TCB.hpp ****     {
  32:src/../h/TCB.hpp ****         if(body!=nullptr) Scheduler::getInstance().put(this);
  33:src/../h/TCB.hpp ****     }
  34:src/../h/TCB.hpp **** 
  35:src/../h/TCB.hpp ****     struct Context{
  36:src/../h/TCB.hpp ****         uint64 ra;
  37:src/../h/TCB.hpp ****         uint64 sp;
  38:src/../h/TCB.hpp ****     };
  39:src/../h/TCB.hpp ****     Body body;
  40:src/../h/TCB.hpp ****     uint64 *stack;
  41:src/../h/TCB.hpp ****     Context context;
  42:src/../h/TCB.hpp ****     bool finished;
  43:src/../h/TCB.hpp ****     uint64 timeSlice;
  44:src/../h/TCB.hpp **** 
GAS LISTING /tmp/ccM6Y3AI.s 			page 2


  45:src/../h/TCB.hpp ****     friend class Riscv;
  46:src/../h/TCB.hpp **** 
  47:src/../h/TCB.hpp ****     static void threadWrapper();
  48:src/../h/TCB.hpp ****     static void contextSwitch(Context *oldContext,Context *newContext);
  49:src/../h/TCB.hpp ****     static void dispatch();
  50:src/../h/TCB.hpp **** 
  51:src/../h/TCB.hpp ****     static uint64 timeSliceCounter;
  52:src/../h/TCB.hpp **** 
  53:src/../h/TCB.hpp ****     static uint64 constexpr STACK_SIZE=1024;
  54:src/../h/TCB.hpp ****     static uint64 constexpr TIME_SLICE=2;
  55:src/../h/TCB.hpp **** };
  56:src/../h/TCB.hpp **** 
  57:src/../h/TCB.hpp **** void *operator new(uint64 n){
  15              		.loc 1 57 29
  16              		.cfi_startproc
  17              	.LVL0:
  18 0000 130101FE 		addi	sp,sp,-32
  19              		.cfi_def_cfa_offset 32
  20 0004 233C1100 		sd	ra,24(sp)
  21 0008 23388100 		sd	s0,16(sp)
  22 000c 23349100 		sd	s1,8(sp)
  23              		.cfi_offset 1, -8
  24              		.cfi_offset 8, -16
  25              		.cfi_offset 9, -24
  26 0010 13040102 		addi	s0,sp,32
  27              		.cfi_def_cfa 8, 0
  28 0014 93040500 		mv	s1,a0
  58:src/../h/TCB.hpp ****     return MemoryAllocator::getInstance().memAlloc(n);
  29              		.loc 1 58 5
  30              		.loc 1 58 41 is_stmt 0
  31 0018 97000000 		call	_ZN15MemoryAllocator11getInstanceEv
  31      E7800000 
  32              	.LVL1:
  33              		.loc 1 58 51
  34 0020 93850400 		mv	a1,s1
  35 0024 97000000 		call	_ZN15MemoryAllocator8memAllocEm
  35      E7800000 
  36              	.LVL2:
  59:src/../h/TCB.hpp **** }
  37              		.loc 1 59 1
  38 002c 83308101 		ld	ra,24(sp)
  39              		.cfi_restore 1
  40 0030 03340101 		ld	s0,16(sp)
  41              		.cfi_restore 8
  42              		.cfi_def_cfa 2, 32
  43 0034 83348100 		ld	s1,8(sp)
  44              		.cfi_restore 9
  45              	.LVL3:
  46 0038 13010102 		addi	sp,sp,32
  47              		.cfi_def_cfa_offset 0
  48 003c 67800000 		jr	ra
  49              		.cfi_endproc
  50              	.LFE17:
  52              		.align	2
  53              		.globl	_Znam
  55              	_Znam:
  56              	.LFB18:
GAS LISTING /tmp/ccM6Y3AI.s 			page 3


  60:src/../h/TCB.hpp **** 
  61:src/../h/TCB.hpp **** 
  62:src/../h/TCB.hpp **** void *operator new[](uint64 n){
  57              		.loc 1 62 31 is_stmt 1
  58              		.cfi_startproc
  59              	.LVL4:
  60 0040 130101FE 		addi	sp,sp,-32
  61              		.cfi_def_cfa_offset 32
  62 0044 233C1100 		sd	ra,24(sp)
  63 0048 23388100 		sd	s0,16(sp)
  64 004c 23349100 		sd	s1,8(sp)
  65              		.cfi_offset 1, -8
  66              		.cfi_offset 8, -16
  67              		.cfi_offset 9, -24
  68 0050 13040102 		addi	s0,sp,32
  69              		.cfi_def_cfa 8, 0
  70 0054 93040500 		mv	s1,a0
  63:src/../h/TCB.hpp ****     return MemoryAllocator::getInstance().memAlloc(n);
  71              		.loc 1 63 5
  72              		.loc 1 63 41 is_stmt 0
  73 0058 97000000 		call	_ZN15MemoryAllocator11getInstanceEv
  73      E7800000 
  74              	.LVL5:
  75              		.loc 1 63 51
  76 0060 93850400 		mv	a1,s1
  77 0064 97000000 		call	_ZN15MemoryAllocator8memAllocEm
  77      E7800000 
  78              	.LVL6:
  64:src/../h/TCB.hpp **** }
  79              		.loc 1 64 1
  80 006c 83308101 		ld	ra,24(sp)
  81              		.cfi_restore 1
  82 0070 03340101 		ld	s0,16(sp)
  83              		.cfi_restore 8
  84              		.cfi_def_cfa 2, 32
  85 0074 83348100 		ld	s1,8(sp)
  86              		.cfi_restore 9
  87              	.LVL7:
  88 0078 13010102 		addi	sp,sp,32
  89              		.cfi_def_cfa_offset 0
  90 007c 67800000 		jr	ra
  91              		.cfi_endproc
  92              	.LFE18:
  94              		.align	2
  95              		.globl	_ZdlPv
  97              	_ZdlPv:
  98              	.LFB19:
  65:src/../h/TCB.hpp **** 
  66:src/../h/TCB.hpp **** void operator delete(void *p) noexcept{
  99              		.loc 1 66 39 is_stmt 1
 100              		.cfi_startproc
 101              		.cfi_personality 0x9b,DW.ref.__gxx_personality_v0
 102              		.cfi_lsda 0x1b,.LLSDA19
 103              	.LVL8:
 104 0080 130101FE 		addi	sp,sp,-32
 105              		.cfi_def_cfa_offset 32
 106 0084 233C1100 		sd	ra,24(sp)
GAS LISTING /tmp/ccM6Y3AI.s 			page 4


 107 0088 23388100 		sd	s0,16(sp)
 108 008c 23349100 		sd	s1,8(sp)
 109              		.cfi_offset 1, -8
 110              		.cfi_offset 8, -16
 111              		.cfi_offset 9, -24
 112 0090 13040102 		addi	s0,sp,32
 113              		.cfi_def_cfa 8, 0
 114 0094 93040500 		mv	s1,a0
  67:src/../h/TCB.hpp ****     MemoryAllocator::getInstance().free(p);
 115              		.loc 1 67 5
 116              		.loc 1 67 34 is_stmt 0
 117 0098 97000000 		call	_ZN15MemoryAllocator11getInstanceEv
 117      E7800000 
 118              	.LVL9:
 119              		.loc 1 67 40
 120 00a0 93850400 		mv	a1,s1
 121 00a4 97000000 		call	_ZN15MemoryAllocator4freeEPv
 121      E7800000 
 122              	.LVL10:
  68:src/../h/TCB.hpp **** }
 123              		.loc 1 68 1
 124 00ac 83308101 		ld	ra,24(sp)
 125              		.cfi_restore 1
 126 00b0 03340101 		ld	s0,16(sp)
 127              		.cfi_restore 8
 128              		.cfi_def_cfa 2, 32
 129 00b4 83348100 		ld	s1,8(sp)
 130              		.cfi_restore 9
 131              	.LVL11:
 132 00b8 13010102 		addi	sp,sp,32
 133              		.cfi_def_cfa_offset 0
 134 00bc 67800000 		jr	ra
 135              		.cfi_endproc
 136              	.LFE19:
 137              		.globl	__gxx_personality_v0
 138              		.section	.gcc_except_table,"aw",@progbits
 139              	.LLSDA19:
 140 0000 FF       		.byte	0xff
 141 0001 FF       		.byte	0xff
 142 0002 03       		.byte	0x3
 143 0003 00       		.byte	0
 144              		.text
 146              		.align	2
 147              		.globl	_ZdaPv
 149              	_ZdaPv:
 150              	.LFB20:
  69:src/../h/TCB.hpp **** 
  70:src/../h/TCB.hpp **** void operator delete[](void *p) noexcept{
 151              		.loc 1 70 41 is_stmt 1
 152              		.cfi_startproc
 153              		.cfi_personality 0x9b,DW.ref.__gxx_personality_v0
 154              		.cfi_lsda 0x1b,.LLSDA20
 155              	.LVL12:
 156 00c0 130101FE 		addi	sp,sp,-32
 157              		.cfi_def_cfa_offset 32
 158 00c4 233C1100 		sd	ra,24(sp)
 159 00c8 23388100 		sd	s0,16(sp)
GAS LISTING /tmp/ccM6Y3AI.s 			page 5


 160 00cc 23349100 		sd	s1,8(sp)
 161              		.cfi_offset 1, -8
 162              		.cfi_offset 8, -16
 163              		.cfi_offset 9, -24
 164 00d0 13040102 		addi	s0,sp,32
 165              		.cfi_def_cfa 8, 0
 166 00d4 93040500 		mv	s1,a0
  71:src/../h/TCB.hpp ****     MemoryAllocator::getInstance().free(p);
 167              		.loc 1 71 5
 168              		.loc 1 71 34 is_stmt 0
 169 00d8 97000000 		call	_ZN15MemoryAllocator11getInstanceEv
 169      E7800000 
 170              	.LVL13:
 171              		.loc 1 71 40
 172 00e0 93850400 		mv	a1,s1
 173 00e4 97000000 		call	_ZN15MemoryAllocator4freeEPv
 173      E7800000 
 174              	.LVL14:
  72:src/../h/TCB.hpp **** }
 175              		.loc 1 72 1
 176 00ec 83308101 		ld	ra,24(sp)
 177              		.cfi_restore 1
 178 00f0 03340101 		ld	s0,16(sp)
 179              		.cfi_restore 8
 180              		.cfi_def_cfa 2, 32
 181 00f4 83348100 		ld	s1,8(sp)
 182              		.cfi_restore 9
 183              	.LVL15:
 184 00f8 13010102 		addi	sp,sp,32
 185              		.cfi_def_cfa_offset 0
 186 00fc 67800000 		jr	ra
 187              		.cfi_endproc
 188              	.LFE20:
 189              		.section	.gcc_except_table
 190              	.LLSDA20:
 191 0004 FF       		.byte	0xff
 192 0005 FF       		.byte	0xff
 193 0006 03       		.byte	0x3
 194 0007 00       		.byte	0
 195              		.text
 197              		.align	2
 198              		.globl	_Z9fibonaccim
 200              	_Z9fibonaccim:
 201              	.LFB21:
 202              		.file 2 "src/main.cpp"
   1:src/main.cpp  **** #include "../h/TCB.hpp"
   2:src/main.cpp  **** #include "../lib/hw.h"
   3:src/main.cpp  **** #include "../h/printHelper.hpp"
   4:src/main.cpp  **** 
   5:src/main.cpp  **** uint64 fibonacci(uint64 n) {
 203              		.loc 2 5 28 is_stmt 1
 204              		.cfi_startproc
 205              	.LVL16:
 206 0100 130101FE 		addi	sp,sp,-32
 207              		.cfi_def_cfa_offset 32
 208 0104 233C1100 		sd	ra,24(sp)
 209 0108 23388100 		sd	s0,16(sp)
GAS LISTING /tmp/ccM6Y3AI.s 			page 6


 210 010c 23349100 		sd	s1,8(sp)
 211 0110 23302101 		sd	s2,0(sp)
 212              		.cfi_offset 1, -8
 213              		.cfi_offset 8, -16
 214              		.cfi_offset 9, -24
 215              		.cfi_offset 18, -32
 216 0114 13040102 		addi	s0,sp,32
 217              		.cfi_def_cfa 8, 0
 218 0118 93040500 		mv	s1,a0
   6:src/main.cpp  ****     if (n == 0 || n == 1) { return n; }
 219              		.loc 2 6 5
 220 011c 93071000 		li	a5,1
 221 0120 63F6A702 		bleu	a0,a5,.L9
   7:src/main.cpp  ****     if (n % 4 == 0) TCB::yield();
 222              		.loc 2 7 5
 223              		.loc 2 7 11 is_stmt 0
 224 0124 93773500 		andi	a5,a0,3
 225              		.loc 2 7 5
 226 0128 638E0702 		beqz	a5,.L14
 227              	.LVL17:
 228              	.L11:
   8:src/main.cpp  ****     return fibonacci(n - 1) + fibonacci(n - 2);
 229              		.loc 2 8 5 is_stmt 1
 230              		.loc 2 8 21 is_stmt 0
 231 012c 1385F4FF 		addi	a0,s1,-1
 232 0130 97000000 		call	_Z9fibonaccim
 232      E7800000 
 233              	.LVL18:
 234 0138 13090500 		mv	s2,a0
 235              		.loc 2 8 40
 236 013c 1385E4FF 		addi	a0,s1,-2
 237 0140 97000000 		call	_Z9fibonaccim
 237      E7800000 
 238              	.LVL19:
 239              		.loc 2 8 46
 240 0148 3305A900 		add	a0,s2,a0
 241              	.L9:
   9:src/main.cpp  **** }
 242              		.loc 2 9 1
 243 014c 83308101 		ld	ra,24(sp)
 244              		.cfi_remember_state
 245              		.cfi_restore 1
 246 0150 03340101 		ld	s0,16(sp)
 247              		.cfi_restore 8
 248              		.cfi_def_cfa 2, 32
 249 0154 83348100 		ld	s1,8(sp)
 250              		.cfi_restore 9
 251              	.LVL20:
 252 0158 03390100 		ld	s2,0(sp)
 253              		.cfi_restore 18
 254 015c 13010102 		addi	sp,sp,32
 255              		.cfi_def_cfa_offset 0
 256 0160 67800000 		jr	ra
 257              	.LVL21:
 258              	.L14:
 259              		.cfi_restore_state
   7:src/main.cpp  ****     if (n % 4 == 0) TCB::yield();
GAS LISTING /tmp/ccM6Y3AI.s 			page 7


 260              		.loc 2 7 21 is_stmt 1 discriminator 1
   7:src/main.cpp  ****     if (n % 4 == 0) TCB::yield();
 261              		.loc 2 7 31 is_stmt 0 discriminator 1
 262 0164 97000000 		call	_ZN3TCB5yieldEv
 262      E7800000 
 263              	.LVL22:
 264 016c 6FF01FFC 		j	.L11
 265              		.cfi_endproc
 266              	.LFE21:
 268              		.section	.rodata.str1.8,"aMS",@progbits,1
 269              		.align	3
 270              	.LC0:
 271 0000 413A2069 		.string	"A: i="
 271      3D00
 272 0006 0000     		.align	3
 273              	.LC1:
 274 0008 0A00     		.string	"\n"
 275 000a 00000000 		.align	3
 275      0000
 276              	.LC2:
 277 0010 413A2079 		.string	"A: yield\n"
 277      69656C64 
 277      0A00
 278 001a 00000000 		.align	3
 278      0000
 279              	.LC3:
 280 0020 413A2074 		.string	"A: t1="
 280      313D00
 281 0027 00       		.align	3
 282              	.LC4:
 283 0028 413A2066 		.string	"A: fibonaci="
 283      69626F6E 
 283      6163693D 
 283      00
 284              		.text
 285              		.align	2
 286              		.globl	_Z11workerBodyAv
 288              	_Z11workerBodyAv:
 289              	.LFB22:
  10:src/main.cpp  **** 
  11:src/main.cpp  **** void workerBodyA() {
 290              		.loc 2 11 20 is_stmt 1
 291              		.cfi_startproc
 292 0170 130101FE 		addi	sp,sp,-32
 293              		.cfi_def_cfa_offset 32
 294 0174 233C1100 		sd	ra,24(sp)
 295 0178 23388100 		sd	s0,16(sp)
 296 017c 23349100 		sd	s1,8(sp)
 297 0180 23302101 		sd	s2,0(sp)
 298              		.cfi_offset 1, -8
 299              		.cfi_offset 8, -16
 300              		.cfi_offset 9, -24
 301              		.cfi_offset 18, -32
 302 0184 13040102 		addi	s0,sp,32
 303              		.cfi_def_cfa 8, 0
  12:src/main.cpp  ****     uint8 i = 0;
 304              		.loc 2 12 5
GAS LISTING /tmp/ccM6Y3AI.s 			page 8


 305              	.LVL23:
 306              		.loc 2 12 11 is_stmt 0
 307 0188 93040000 		li	s1,0
 308 018c 6F008003 		j	.L17
 309              	.LVL24:
 310              	.L21:
  13:src/main.cpp  ****     for (; i < 3; i++) { printString("A: i="); printInteger(i); printString("\n"); }
 311              		.loc 2 13 26 is_stmt 1 discriminator 1
 312              		.loc 2 13 37 is_stmt 0 discriminator 1
 313 0190 17050000 		lla	a0,.LC0
 313      13050500 
 314 0198 97000000 		call	_Z11printStringPKc
 314      E7800000 
 315              	.LVL25:
 316              		.loc 2 13 48 is_stmt 1 discriminator 1
 317              		.loc 2 13 60 is_stmt 0 discriminator 1
 318 01a0 13850400 		mv	a0,s1
 319 01a4 97000000 		call	_Z12printIntegerm
 319      E7800000 
 320              	.LVL26:
 321              		.loc 2 13 65 is_stmt 1 discriminator 1
 322              		.loc 2 13 76 is_stmt 0 discriminator 1
 323 01ac 17050000 		lla	a0,.LC1
 323      13050500 
 324 01b4 97000000 		call	_Z11printStringPKc
 324      E7800000 
 325              	.LVL27:
 326              		.loc 2 13 5 is_stmt 1 discriminator 1
 327 01bc 9B841400 		addiw	s1,s1,1
 328              	.LVL28:
 329 01c0 93F4F40F 		andi	s1,s1,0xff
 330              	.LVL29:
 331              	.L17:
 332              		.loc 2 13 5 discriminator 2
 333              		.loc 2 13 14 discriminator 2
 334 01c4 93072000 		li	a5,2
 335 01c8 E3F497FC 		bleu	s1,a5,.L21
  14:src/main.cpp  **** 
  15:src/main.cpp  ****     printString("A: yield\n");
 336              		.loc 2 15 5
 337              		.loc 2 15 16 is_stmt 0
 338 01cc 17050000 		lla	a0,.LC2
 338      13050500 
 339 01d4 97000000 		call	_Z11printStringPKc
 339      E7800000 
 340              	.LVL30:
  16:src/main.cpp  ****     __asm__ ("li t1, 7");
 341              		.loc 2 16 5 is_stmt 1
 342              		.loc 2 16 25 is_stmt 0
 343              	 #APP
 344              	# 16 "src/main.cpp" 1
  17              	    TCB::yield();
 345              		li t1, 7
 346              	# 0 "" 2
 347              		.loc 2 17 5 is_stmt 1
 348              		.loc 2 17 15 is_stmt 0
 349              	 #NO_APP
GAS LISTING /tmp/ccM6Y3AI.s 			page 9


 350 01e0 97000000 		call	_ZN3TCB5yieldEv
 350      E7800000 
 351              	.LVL31:
  18:src/main.cpp  **** 
  19:src/main.cpp  ****     uint64 t1 = 0;
 352              		.loc 2 19 5 is_stmt 1
  20:src/main.cpp  ****     __asm__ ("mv %[t1], t1" : [t1] "=r"(t1));
 353              		.loc 2 20 5
 354              		.loc 2 20 45 is_stmt 0
 355              	 #APP
 356              	# 20 "src/main.cpp" 1
  21              	    printString("A: t1="); printInteger(t1); printString("\n");
 357              		mv s2, t1
 358              	# 0 "" 2
 359              	.LVL32:
 360              		.loc 2 21 5 is_stmt 1
 361              		.loc 2 21 16 is_stmt 0
 362              	 #NO_APP
 363 01ec 17050000 		lla	a0,.LC3
 363      13050500 
 364 01f4 97000000 		call	_Z11printStringPKc
 364      E7800000 
 365              	.LVL33:
 366              		.loc 2 21 28 is_stmt 1
 367              		.loc 2 21 40 is_stmt 0
 368 01fc 13050900 		mv	a0,s2
 369 0200 97000000 		call	_Z12printIntegerm
 369      E7800000 
 370              	.LVL34:
 371              		.loc 2 21 46 is_stmt 1
 372              		.loc 2 21 57 is_stmt 0
 373 0208 17050000 		lla	a0,.LC1
 373      13050500 
 374 0210 97000000 		call	_Z11printStringPKc
 374      E7800000 
 375              	.LVL35:
  22:src/main.cpp  **** 
  23:src/main.cpp  ****     uint64 result = fibonacci(20);
 376              		.loc 2 23 5 is_stmt 1
 377              		.loc 2 23 30 is_stmt 0
 378 0218 13054001 		li	a0,20
 379 021c 97000000 		call	_Z9fibonaccim
 379      E7800000 
 380              	.LVL36:
 381 0224 13090500 		mv	s2,a0
 382              	.LVL37:
  24:src/main.cpp  ****     printString("A: fibonaci="); printInteger(result); printString("\n");
 383              		.loc 2 24 5 is_stmt 1
 384              		.loc 2 24 16 is_stmt 0
 385 0228 17050000 		lla	a0,.LC4
 385      13050500 
 386              	.LVL38:
 387 0230 97000000 		call	_Z11printStringPKc
 387      E7800000 
 388              	.LVL39:
 389              		.loc 2 24 34 is_stmt 1
 390              		.loc 2 24 46 is_stmt 0
GAS LISTING /tmp/ccM6Y3AI.s 			page 10


 391 0238 13050900 		mv	a0,s2
 392 023c 97000000 		call	_Z12printIntegerm
 392      E7800000 
 393              	.LVL40:
 394              		.loc 2 24 56 is_stmt 1
 395              		.loc 2 24 67 is_stmt 0
 396 0244 17050000 		lla	a0,.LC1
 396      13050500 
 397 024c 97000000 		call	_Z11printStringPKc
 397      E7800000 
 398              	.LVL41:
 399 0254 6F008003 		j	.L19
 400              	.L22:
  25:src/main.cpp  **** 
  26:src/main.cpp  ****     for (; i < 6; i++) { printString("A: i="); printInteger(i); printString("\n"); }
 401              		.loc 2 26 26 is_stmt 1 discriminator 1
 402              		.loc 2 26 37 is_stmt 0 discriminator 1
 403 0258 17050000 		lla	a0,.LC0
 403      13050500 
 404 0260 97000000 		call	_Z11printStringPKc
 404      E7800000 
 405              	.LVL42:
 406              		.loc 2 26 48 is_stmt 1 discriminator 1
 407              		.loc 2 26 60 is_stmt 0 discriminator 1
 408 0268 13850400 		mv	a0,s1
 409 026c 97000000 		call	_Z12printIntegerm
 409      E7800000 
 410              	.LVL43:
 411              		.loc 2 26 65 is_stmt 1 discriminator 1
 412              		.loc 2 26 76 is_stmt 0 discriminator 1
 413 0274 17050000 		lla	a0,.LC1
 413      13050500 
 414 027c 97000000 		call	_Z11printStringPKc
 414      E7800000 
 415              	.LVL44:
 416              		.loc 2 26 5 is_stmt 1 discriminator 1
 417 0284 9B841400 		addiw	s1,s1,1
 418              	.LVL45:
 419 0288 93F4F40F 		andi	s1,s1,0xff
 420              	.LVL46:
 421              	.L19:
 422              		.loc 2 26 5 discriminator 2
 423              		.loc 2 26 14 discriminator 2
 424 028c 93075000 		li	a5,5
 425 0290 E3F497FC 		bleu	s1,a5,.L22
  27:src/main.cpp  ****     TCB::running->setFinished(true);
 426              		.loc 2 27 5
 427              	.LVL47:
 428              	.LBB14:
 429              	.LBB15:
  17:src/../h/TCB.hpp **** 
 430              		.loc 1 17 37
  17:src/../h/TCB.hpp **** 
 431              		.loc 1 17 51 is_stmt 0
 432 0294 97070000 		ld	a5,_ZN3TCB7runningE
 432      83B70700 
 433 029c 13071000 		li	a4,1
GAS LISTING /tmp/ccM6Y3AI.s 			page 11


 434 02a0 2380E702 		sb	a4,32(a5)
 435              	.LVL48:
 436              	.LBE15:
 437              	.LBE14:
  28:src/main.cpp  ****     TCB::yield();
 438              		.loc 2 28 5 is_stmt 1
 439              		.loc 2 28 15 is_stmt 0
 440 02a4 97000000 		call	_ZN3TCB5yieldEv
 440      E7800000 
 441              	.LVL49:
  29:src/main.cpp  **** }
 442              		.loc 2 29 1
 443 02ac 83308101 		ld	ra,24(sp)
 444              		.cfi_restore 1
 445 02b0 03340101 		ld	s0,16(sp)
 446              		.cfi_restore 8
 447              		.cfi_def_cfa 2, 32
 448 02b4 83348100 		ld	s1,8(sp)
 449              		.cfi_restore 9
 450              	.LVL50:
 451 02b8 03390100 		ld	s2,0(sp)
 452              		.cfi_restore 18
 453              	.LVL51:
 454 02bc 13010102 		addi	sp,sp,32
 455              		.cfi_def_cfa_offset 0
 456 02c0 67800000 		jr	ra
 457              		.cfi_endproc
 458              	.LFE22:
 460              		.section	.rodata.str1.8
 461 0035 000000   		.align	3
 462              	.LC5:
 463 0038 423A2069 		.string	"B: i="
 463      3D00
 464 003e 0000     		.align	3
 465              	.LC6:
 466 0040 423A2079 		.string	"B: yield\n"
 466      69656C64 
 466      0A00
 467              		.text
 468              		.align	2
 469              		.globl	_Z11workerBodyBv
 471              	_Z11workerBodyBv:
 472              	.LFB23:
  30:src/main.cpp  **** 
  31:src/main.cpp  **** void workerBodyB() {
 473              		.loc 2 31 20 is_stmt 1
 474              		.cfi_startproc
 475 02c4 130101FE 		addi	sp,sp,-32
 476              		.cfi_def_cfa_offset 32
 477 02c8 233C1100 		sd	ra,24(sp)
 478 02cc 23388100 		sd	s0,16(sp)
 479 02d0 23349100 		sd	s1,8(sp)
 480 02d4 23302101 		sd	s2,0(sp)
 481              		.cfi_offset 1, -8
 482              		.cfi_offset 8, -16
 483              		.cfi_offset 9, -24
 484              		.cfi_offset 18, -32
GAS LISTING /tmp/ccM6Y3AI.s 			page 12


 485 02d8 13040102 		addi	s0,sp,32
 486              		.cfi_def_cfa 8, 0
  32:src/main.cpp  ****     uint8 i = 10;
 487              		.loc 2 32 5
 488              	.LVL52:
 489              		.loc 2 32 11 is_stmt 0
 490 02dc 9304A000 		li	s1,10
 491 02e0 6F008003 		j	.L25
 492              	.LVL53:
 493              	.L29:
  33:src/main.cpp  ****     for (; i < 13; i++) { printString("B: i="); printInteger(i); printString("\n"); }
 494              		.loc 2 33 27 is_stmt 1 discriminator 1
 495              		.loc 2 33 38 is_stmt 0 discriminator 1
 496 02e4 17050000 		lla	a0,.LC5
 496      13050500 
 497 02ec 97000000 		call	_Z11printStringPKc
 497      E7800000 
 498              	.LVL54:
 499              		.loc 2 33 49 is_stmt 1 discriminator 1
 500              		.loc 2 33 61 is_stmt 0 discriminator 1
 501 02f4 13850400 		mv	a0,s1
 502 02f8 97000000 		call	_Z12printIntegerm
 502      E7800000 
 503              	.LVL55:
 504              		.loc 2 33 66 is_stmt 1 discriminator 1
 505              		.loc 2 33 77 is_stmt 0 discriminator 1
 506 0300 17050000 		lla	a0,.LC1
 506      13050500 
 507 0308 97000000 		call	_Z11printStringPKc
 507      E7800000 
 508              	.LVL56:
 509              		.loc 2 33 5 is_stmt 1 discriminator 1
 510 0310 9B841400 		addiw	s1,s1,1
 511              	.LVL57:
 512 0314 93F4F40F 		andi	s1,s1,0xff
 513              	.LVL58:
 514              	.L25:
 515              		.loc 2 33 5 discriminator 2
 516              		.loc 2 33 14 discriminator 2
 517 0318 9307C000 		li	a5,12
 518 031c E3F497FC 		bleu	s1,a5,.L29
  34:src/main.cpp  **** 
  35:src/main.cpp  ****     printString("B: yield\n");
 519              		.loc 2 35 5
 520              		.loc 2 35 16 is_stmt 0
 521 0320 17050000 		lla	a0,.LC6
 521      13050500 
 522 0328 97000000 		call	_Z11printStringPKc
 522      E7800000 
 523              	.LVL59:
  36:src/main.cpp  ****     __asm__ ("li t1, 5");
 524              		.loc 2 36 5 is_stmt 1
 525              		.loc 2 36 25 is_stmt 0
 526              	 #APP
 527              	# 36 "src/main.cpp" 1
  37              	    TCB::yield();
 528              		li t1, 5
GAS LISTING /tmp/ccM6Y3AI.s 			page 13


 529              	# 0 "" 2
 530              		.loc 2 37 5 is_stmt 1
 531              		.loc 2 37 15 is_stmt 0
 532              	 #NO_APP
 533 0334 97000000 		call	_ZN3TCB5yieldEv
 533      E7800000 
 534              	.LVL60:
  38:src/main.cpp  **** 
  39:src/main.cpp  ****     uint64 result = fibonacci(23);
 535              		.loc 2 39 5 is_stmt 1
 536              		.loc 2 39 30 is_stmt 0
 537 033c 13057001 		li	a0,23
 538 0340 97000000 		call	_Z9fibonaccim
 538      E7800000 
 539              	.LVL61:
 540 0348 13090500 		mv	s2,a0
 541              	.LVL62:
  40:src/main.cpp  ****     printString("A: fibonaci="); printInteger(result); printString("\n");
 542              		.loc 2 40 5 is_stmt 1
 543              		.loc 2 40 16 is_stmt 0
 544 034c 17050000 		lla	a0,.LC4
 544      13050500 
 545              	.LVL63:
 546 0354 97000000 		call	_Z11printStringPKc
 546      E7800000 
 547              	.LVL64:
 548              		.loc 2 40 34 is_stmt 1
 549              		.loc 2 40 46 is_stmt 0
 550 035c 13050900 		mv	a0,s2
 551 0360 97000000 		call	_Z12printIntegerm
 551      E7800000 
 552              	.LVL65:
 553              		.loc 2 40 56 is_stmt 1
 554              		.loc 2 40 67 is_stmt 0
 555 0368 17050000 		lla	a0,.LC1
 555      13050500 
 556 0370 97000000 		call	_Z11printStringPKc
 556      E7800000 
 557              	.LVL66:
 558 0378 6F008003 		j	.L27
 559              	.L30:
  41:src/main.cpp  **** 
  42:src/main.cpp  ****     for (; i < 16; i++) { printString("B: i="); printInteger(i); printString("\n"); }
 560              		.loc 2 42 27 is_stmt 1 discriminator 1
 561              		.loc 2 42 38 is_stmt 0 discriminator 1
 562 037c 17050000 		lla	a0,.LC5
 562      13050500 
 563 0384 97000000 		call	_Z11printStringPKc
 563      E7800000 
 564              	.LVL67:
 565              		.loc 2 42 49 is_stmt 1 discriminator 1
 566              		.loc 2 42 61 is_stmt 0 discriminator 1
 567 038c 13850400 		mv	a0,s1
 568 0390 97000000 		call	_Z12printIntegerm
 568      E7800000 
 569              	.LVL68:
 570              		.loc 2 42 66 is_stmt 1 discriminator 1
GAS LISTING /tmp/ccM6Y3AI.s 			page 14


 571              		.loc 2 42 77 is_stmt 0 discriminator 1
 572 0398 17050000 		lla	a0,.LC1
 572      13050500 
 573 03a0 97000000 		call	_Z11printStringPKc
 573      E7800000 
 574              	.LVL69:
 575              		.loc 2 42 5 is_stmt 1 discriminator 1
 576 03a8 9B841400 		addiw	s1,s1,1
 577              	.LVL70:
 578 03ac 93F4F40F 		andi	s1,s1,0xff
 579              	.LVL71:
 580              	.L27:
 581              		.loc 2 42 5 discriminator 2
 582              		.loc 2 42 14 discriminator 2
 583 03b0 9307F000 		li	a5,15
 584 03b4 E3F497FC 		bleu	s1,a5,.L30
  43:src/main.cpp  ****     TCB::running->setFinished(true);
 585              		.loc 2 43 5
 586              	.LVL72:
 587              	.LBB16:
 588              	.LBB17:
  17:src/../h/TCB.hpp **** 
 589              		.loc 1 17 37
  17:src/../h/TCB.hpp **** 
 590              		.loc 1 17 51 is_stmt 0
 591 03b8 97070000 		ld	a5,_ZN3TCB7runningE
 591      83B70700 
 592 03c0 13071000 		li	a4,1
 593 03c4 2380E702 		sb	a4,32(a5)
 594              	.LVL73:
 595              	.LBE17:
 596              	.LBE16:
  44:src/main.cpp  ****     TCB::yield();
 597              		.loc 2 44 5 is_stmt 1
 598              		.loc 2 44 15 is_stmt 0
 599 03c8 97000000 		call	_ZN3TCB5yieldEv
 599      E7800000 
 600              	.LVL74:
  45:src/main.cpp  **** }
 601              		.loc 2 45 1
 602 03d0 83308101 		ld	ra,24(sp)
 603              		.cfi_restore 1
 604 03d4 03340101 		ld	s0,16(sp)
 605              		.cfi_restore 8
 606              		.cfi_def_cfa 2, 32
 607 03d8 83348100 		ld	s1,8(sp)
 608              		.cfi_restore 9
 609              	.LVL75:
 610 03dc 03390100 		ld	s2,0(sp)
 611              		.cfi_restore 18
 612              	.LVL76:
 613 03e0 13010102 		addi	sp,sp,32
 614              		.cfi_def_cfa_offset 0
 615 03e4 67800000 		jr	ra
 616              		.cfi_endproc
 617              	.LFE23:
 619              		.section	.rodata.str1.8
GAS LISTING /tmp/ccM6Y3AI.s 			page 15


 620 004a 00000000 		.align	3
 620      0000
 621              	.LC7:
 622 0050 54687265 		.string	"Thread workerA "
 622      61642077 
 622      6F726B65 
 622      72412000 
 623              		.align	3
 624              	.LC8:
 625 0060 54687265 		.string	"Thread workerB "
 625      61642077 
 625      6F726B65 
 625      72422000 
 626              		.align	3
 627              	.LC9:
 628 0070 46696E69 		.string	"Finished"
 628      73686564 
 628      00
 629              		.text
 630              		.align	2
 631              		.globl	main
 633              	main:
 634              	.LFB24:
  46:src/main.cpp  **** 
  47:src/main.cpp  **** 
  48:src/main.cpp  **** 
  49:src/main.cpp  **** 
  50:src/main.cpp  **** 
  51:src/main.cpp  **** 
  52:src/main.cpp  **** int main() {
 635              		.loc 2 52 12 is_stmt 1
 636              		.cfi_startproc
 637 03e8 130101FC 		addi	sp,sp,-64
 638              		.cfi_def_cfa_offset 64
 639 03ec 233C1102 		sd	ra,56(sp)
 640 03f0 23388102 		sd	s0,48(sp)
 641 03f4 23349102 		sd	s1,40(sp)
 642 03f8 23302103 		sd	s2,32(sp)
 643              		.cfi_offset 1, -8
 644              		.cfi_offset 8, -16
 645              		.cfi_offset 9, -24
 646              		.cfi_offset 18, -32
 647 03fc 13040104 		addi	s0,sp,64
 648              		.cfi_def_cfa 8, 0
  53:src/main.cpp  ****     TCB *threads[3];
 649              		.loc 2 53 5
  54:src/main.cpp  **** 
  55:src/main.cpp  ****     threads[0]=TCB::create_thread(nullptr);
 650              		.loc 2 55 5
 651              		.loc 2 55 34 is_stmt 0
 652 0400 13050000 		li	a0,0
 653 0404 97000000 		call	_ZN3TCB13create_threadEPFvvE
 653      E7800000 
 654              	.LVL77:
 655              		.loc 2 55 15
 656 040c 2334A4FC 		sd	a0,-56(s0)
  56:src/main.cpp  ****     TCB::running=threads[0];
GAS LISTING /tmp/ccM6Y3AI.s 			page 16


 657              		.loc 2 56 5 is_stmt 1
 658              		.loc 2 56 17 is_stmt 0
 659 0410 97070000 		sd	a0,_ZN3TCB7runningE,a5
 659      23B0A700 
  57:src/main.cpp  **** 
  58:src/main.cpp  ****     threads[1]=TCB::create_thread(workerBodyA);
 660              		.loc 2 58 5 is_stmt 1
 661              		.loc 2 58 34 is_stmt 0
 662 0418 17050000 		lla	a0,_Z11workerBodyAv
 662      13050500 
 663 0420 97000000 		call	_ZN3TCB13create_threadEPFvvE
 663      E7800000 
 664              	.LVL78:
 665              		.loc 2 58 15
 666 0428 2338A4FC 		sd	a0,-48(s0)
  59:src/main.cpp  ****     printString("Thread workerA ");
 667              		.loc 2 59 5 is_stmt 1
 668              		.loc 2 59 16 is_stmt 0
 669 042c 17050000 		lla	a0,.LC7
 669      13050500 
 670 0434 97000000 		call	_Z11printStringPKc
 670      E7800000 
 671              	.LVL79:
  60:src/main.cpp  **** 
  61:src/main.cpp  **** 
  62:src/main.cpp  ****     threads[2]=TCB::create_thread(workerBodyB);
 672              		.loc 2 62 5 is_stmt 1
 673              		.loc 2 62 34 is_stmt 0
 674 043c 17050000 		lla	a0,_Z11workerBodyBv
 674      13050500 
 675 0444 97000000 		call	_ZN3TCB13create_threadEPFvvE
 675      E7800000 
 676              	.LVL80:
 677              		.loc 2 62 15
 678 044c 233CA4FC 		sd	a0,-40(s0)
  63:src/main.cpp  ****     printString("Thread workerB ");
 679              		.loc 2 63 5 is_stmt 1
 680              		.loc 2 63 16 is_stmt 0
 681 0450 17050000 		lla	a0,.LC8
 681      13050500 
 682 0458 97000000 		call	_Z11printStringPKc
 682      E7800000 
 683              	.LVL81:
 684 0460 6F00C000 		j	.L34
 685              	.L32:
  64:src/main.cpp  **** 
  65:src/main.cpp  ****     while(!(threads[1]->isFinished() && threads[2]->isFinished())){
  66:src/main.cpp  ****         TCB::yield();
 686              		.loc 2 66 9 is_stmt 1 discriminator 3
 687              		.loc 2 66 19 is_stmt 0 discriminator 3
 688 0464 97000000 		call	_ZN3TCB5yieldEv
 688      E7800000 
 689              	.LVL82:
 690              	.L34:
  65:src/main.cpp  ****         TCB::yield();
 691              		.loc 2 65 5 is_stmt 1
  65:src/main.cpp  ****         TCB::yield();
GAS LISTING /tmp/ccM6Y3AI.s 			page 17


 692              		.loc 2 65 11
  65:src/main.cpp  ****         TCB::yield();
 693              		.loc 2 65 22 is_stmt 0
 694 046c 833704FD 		ld	a5,-48(s0)
 695              	.LVL83:
 696              	.LBB18:
 697              	.LBB19:
  16:src/../h/TCB.hpp ****     void setFinished(bool finished){this->finished=finished;}
 698              		.loc 1 16 30 is_stmt 1
  16:src/../h/TCB.hpp ****     void setFinished(bool finished){this->finished=finished;}
 699              		.loc 1 16 37 is_stmt 0
 700 0470 83C70702 		lbu	a5,32(a5)
 701              	.LVL84:
 702              	.LBE19:
 703              	.LBE18:
  65:src/main.cpp  ****         TCB::yield();
 704              		.loc 2 65 11
 705 0474 E38807FE 		beqz	a5,.L32
  65:src/main.cpp  ****         TCB::yield();
 706              		.loc 2 65 50 discriminator 2
 707 0478 833784FD 		ld	a5,-40(s0)
 708              	.LVL85:
 709              	.LBB20:
 710              	.LBB21:
  16:src/../h/TCB.hpp ****     void setFinished(bool finished){this->finished=finished;}
 711              		.loc 1 16 30 is_stmt 1 discriminator 2
  16:src/../h/TCB.hpp ****     void setFinished(bool finished){this->finished=finished;}
 712              		.loc 1 16 37 is_stmt 0 discriminator 2
 713 047c 83C70702 		lbu	a5,32(a5)
 714              	.LVL86:
 715              	.LBE21:
 716              	.LBE20:
  65:src/main.cpp  ****         TCB::yield();
 717              		.loc 2 65 11 discriminator 2
 718 0480 E38207FE 		beqz	a5,.L32
 719 0484 930484FC 		addi	s1,s0,-56
 720 0488 6F004001 		j	.L33
 721              	.LVL87:
 722              	.L37:
 723              	.LBB22:
  67:src/main.cpp  ****     }
  68:src/main.cpp  **** 
  69:src/main.cpp  ****     for(auto &thread:threads){
  70:src/main.cpp  ****         delete thread;
 724              		.loc 2 70 16
 725 048c 13050900 		mv	a0,s2
 726 0490 97000000 		call	_ZdlPv
 726      E7800000 
 727              	.LVL88:
 728              	.L36:
  69:src/main.cpp  ****         delete thread;
 729              		.loc 2 69 5 is_stmt 1 discriminator 3
 730 0498 93848400 		addi	s1,s1,8
 731              	.LVL89:
 732              	.L33:
  69:src/main.cpp  ****         delete thread;
 733              		.loc 2 69 22 discriminator 1
GAS LISTING /tmp/ccM6Y3AI.s 			page 18


 734 049c 930704FE 		addi	a5,s0,-32
 735 04a0 6380F402 		beq	s1,a5,.L35
 736              	.LVL90:
 737              		.loc 2 70 9 discriminator 2
 738              		.loc 2 70 16 is_stmt 0 discriminator 2
 739 04a4 03B90400 		ld	s2,0(s1)
 740              		.loc 2 70 22 discriminator 2
 741 04a8 E30809FE 		beqz	s2,.L36
 742              	.LVL91:
 743              	.LBB23:
 744              	.LBB24:
  11:src/../h/TCB.hpp ****     using Body = void (*)();
 745              		.loc 1 11 13 is_stmt 1
  11:src/../h/TCB.hpp ****     using Body = void (*)();
 746              		.loc 1 11 22 is_stmt 0
 747 04ac 03358900 		ld	a0,8(s2)
  11:src/../h/TCB.hpp ****     using Body = void (*)();
 748              		.loc 1 11 27
 749 04b0 E30E05FC 		beqz	a0,.L37
  11:src/../h/TCB.hpp ****     using Body = void (*)();
 750              		.loc 1 11 22
 751 04b4 97000000 		call	_ZdaPv
 751      E7800000 
 752              	.LVL92:
 753 04bc 6FF01FFD 		j	.L37
 754              	.LVL93:
 755              	.L35:
 756              	.LBE24:
 757              	.LBE23:
 758              	.LBE22:
  71:src/main.cpp  ****     }
  72:src/main.cpp  **** 
  73:src/main.cpp  ****     printString("Finished");
 759              		.loc 2 73 5 is_stmt 1
 760              		.loc 2 73 16 is_stmt 0
 761 04c0 17050000 		lla	a0,.LC9
 761      13050500 
 762 04c8 97000000 		call	_Z11printStringPKc
 762      E7800000 
 763              	.LVL94:
  74:src/main.cpp  **** 
  75:src/main.cpp  ****     return 0;
 764              		.loc 2 75 5 is_stmt 1
  76:src/main.cpp  **** 
  77:src/main.cpp  **** }...
 765              		.loc 2 77 1 is_stmt 0
 766 04d0 13050000 		li	a0,0
 767 04d4 83308103 		ld	ra,56(sp)
 768              		.cfi_restore 1
 769 04d8 03340103 		ld	s0,48(sp)
 770              		.cfi_restore 8
 771              		.cfi_def_cfa 2, 64
 772 04dc 83348102 		ld	s1,40(sp)
 773              		.cfi_restore 9
 774              	.LVL95:
 775 04e0 03390102 		ld	s2,32(sp)
 776              		.cfi_restore 18
GAS LISTING /tmp/ccM6Y3AI.s 			page 19


 777 04e4 13010104 		addi	sp,sp,64
 778              		.cfi_def_cfa_offset 0
 779 04e8 67800000 		jr	ra
 780              		.cfi_endproc
 781              	.LFE24:
 783              	.Letext0:
 784              		.file 3 "src/../h/../lib/hw.h"
 785              		.file 4 "src/../h/MemoryAllocator.hpp"
 786              		.file 5 "src/../h/printHelper.hpp"
 3491              		.align	3
 3494              	DW.ref.__gxx_personality_v0:
 3495 0000 00000000 		.dword	__gxx_personality_v0
 3495      00000000 
 3496              		.ident	"GCC: () 9.3.0"
GAS LISTING /tmp/ccM6Y3AI.s 			page 20


DEFINED SYMBOLS
                            *ABS*:0000000000000000 main.cpp
     /tmp/ccM6Y3AI.s:12     .text:0000000000000000 _Znwm
     /tmp/ccM6Y3AI.s:16     .text:0000000000000000 .L0 
     /tmp/ccM6Y3AI.s:18     .text:0000000000000000 .L0 
     /tmp/ccM6Y3AI.s:19     .text:0000000000000004 .L0 
     /tmp/ccM6Y3AI.s:23     .text:0000000000000010 .L0 
     /tmp/ccM6Y3AI.s:24     .text:0000000000000010 .L0 
     /tmp/ccM6Y3AI.s:25     .text:0000000000000010 .L0 
     /tmp/ccM6Y3AI.s:27     .text:0000000000000014 .L0 
     /tmp/ccM6Y3AI.s:30     .text:0000000000000018 .L0 
     /tmp/ccM6Y3AI.s:31     .text:0000000000000018 .L0 
     /tmp/ccM6Y3AI.s:34     .text:0000000000000020 .L0 
     /tmp/ccM6Y3AI.s:38     .text:000000000000002c .L0 
     /tmp/ccM6Y3AI.s:39     .text:0000000000000030 .L0 
     /tmp/ccM6Y3AI.s:41     .text:0000000000000034 .L0 
     /tmp/ccM6Y3AI.s:42     .text:0000000000000034 .L0 
     /tmp/ccM6Y3AI.s:44     .text:0000000000000038 .L0 
     /tmp/ccM6Y3AI.s:47     .text:000000000000003c .L0 
     /tmp/ccM6Y3AI.s:49     .text:0000000000000040 .L0 
     /tmp/ccM6Y3AI.s:55     .text:0000000000000040 _Znam
     /tmp/ccM6Y3AI.s:58     .text:0000000000000040 .L0 
     /tmp/ccM6Y3AI.s:60     .text:0000000000000040 .L0 
     /tmp/ccM6Y3AI.s:61     .text:0000000000000044 .L0 
     /tmp/ccM6Y3AI.s:65     .text:0000000000000050 .L0 
     /tmp/ccM6Y3AI.s:66     .text:0000000000000050 .L0 
     /tmp/ccM6Y3AI.s:67     .text:0000000000000050 .L0 
     /tmp/ccM6Y3AI.s:69     .text:0000000000000054 .L0 
     /tmp/ccM6Y3AI.s:72     .text:0000000000000058 .L0 
     /tmp/ccM6Y3AI.s:73     .text:0000000000000058 .L0 
     /tmp/ccM6Y3AI.s:76     .text:0000000000000060 .L0 
     /tmp/ccM6Y3AI.s:80     .text:000000000000006c .L0 
     /tmp/ccM6Y3AI.s:81     .text:0000000000000070 .L0 
     /tmp/ccM6Y3AI.s:83     .text:0000000000000074 .L0 
     /tmp/ccM6Y3AI.s:84     .text:0000000000000074 .L0 
     /tmp/ccM6Y3AI.s:86     .text:0000000000000078 .L0 
     /tmp/ccM6Y3AI.s:89     .text:000000000000007c .L0 
     /tmp/ccM6Y3AI.s:91     .text:0000000000000080 .L0 
     /tmp/ccM6Y3AI.s:97     .text:0000000000000080 _ZdlPv
     /tmp/ccM6Y3AI.s:100    .text:0000000000000080 .L0 
     /tmp/ccM6Y3AI.s:3494   .sdata.DW.ref.__gxx_personality_v0:0000000000000000 DW.ref.__gxx_personality_v0
     /tmp/ccM6Y3AI.s:104    .text:0000000000000080 .L0 
     /tmp/ccM6Y3AI.s:105    .text:0000000000000084 .L0 
     /tmp/ccM6Y3AI.s:109    .text:0000000000000090 .L0 
     /tmp/ccM6Y3AI.s:110    .text:0000000000000090 .L0 
     /tmp/ccM6Y3AI.s:111    .text:0000000000000090 .L0 
     /tmp/ccM6Y3AI.s:113    .text:0000000000000094 .L0 
     /tmp/ccM6Y3AI.s:116    .text:0000000000000098 .L0 
     /tmp/ccM6Y3AI.s:117    .text:0000000000000098 .L0 
     /tmp/ccM6Y3AI.s:120    .text:00000000000000a0 .L0 
     /tmp/ccM6Y3AI.s:124    .text:00000000000000ac .L0 
     /tmp/ccM6Y3AI.s:125    .text:00000000000000b0 .L0 
     /tmp/ccM6Y3AI.s:127    .text:00000000000000b4 .L0 
     /tmp/ccM6Y3AI.s:128    .text:00000000000000b4 .L0 
     /tmp/ccM6Y3AI.s:130    .text:00000000000000b8 .L0 
     /tmp/ccM6Y3AI.s:133    .text:00000000000000bc .L0 
     /tmp/ccM6Y3AI.s:135    .text:00000000000000c0 .L0 
GAS LISTING /tmp/ccM6Y3AI.s 			page 21


     /tmp/ccM6Y3AI.s:149    .text:00000000000000c0 _ZdaPv
     /tmp/ccM6Y3AI.s:152    .text:00000000000000c0 .L0 
     /tmp/ccM6Y3AI.s:156    .text:00000000000000c0 .L0 
     /tmp/ccM6Y3AI.s:157    .text:00000000000000c4 .L0 
     /tmp/ccM6Y3AI.s:161    .text:00000000000000d0 .L0 
     /tmp/ccM6Y3AI.s:162    .text:00000000000000d0 .L0 
     /tmp/ccM6Y3AI.s:163    .text:00000000000000d0 .L0 
     /tmp/ccM6Y3AI.s:165    .text:00000000000000d4 .L0 
     /tmp/ccM6Y3AI.s:168    .text:00000000000000d8 .L0 
     /tmp/ccM6Y3AI.s:169    .text:00000000000000d8 .L0 
     /tmp/ccM6Y3AI.s:172    .text:00000000000000e0 .L0 
     /tmp/ccM6Y3AI.s:176    .text:00000000000000ec .L0 
     /tmp/ccM6Y3AI.s:177    .text:00000000000000f0 .L0 
     /tmp/ccM6Y3AI.s:179    .text:00000000000000f4 .L0 
     /tmp/ccM6Y3AI.s:180    .text:00000000000000f4 .L0 
     /tmp/ccM6Y3AI.s:182    .text:00000000000000f8 .L0 
     /tmp/ccM6Y3AI.s:185    .text:00000000000000fc .L0 
     /tmp/ccM6Y3AI.s:187    .text:0000000000000100 .L0 
     /tmp/ccM6Y3AI.s:200    .text:0000000000000100 _Z9fibonaccim
     /tmp/ccM6Y3AI.s:204    .text:0000000000000100 .L0 
     /tmp/ccM6Y3AI.s:206    .text:0000000000000100 .L0 
     /tmp/ccM6Y3AI.s:207    .text:0000000000000104 .L0 
     /tmp/ccM6Y3AI.s:212    .text:0000000000000114 .L0 
     /tmp/ccM6Y3AI.s:213    .text:0000000000000114 .L0 
     /tmp/ccM6Y3AI.s:214    .text:0000000000000114 .L0 
     /tmp/ccM6Y3AI.s:215    .text:0000000000000114 .L0 
     /tmp/ccM6Y3AI.s:217    .text:0000000000000118 .L0 
     /tmp/ccM6Y3AI.s:220    .text:000000000000011c .L0 
     /tmp/ccM6Y3AI.s:223    .text:0000000000000124 .L0 
     /tmp/ccM6Y3AI.s:224    .text:0000000000000124 .L0 
     /tmp/ccM6Y3AI.s:226    .text:0000000000000128 .L0 
     /tmp/ccM6Y3AI.s:230    .text:000000000000012c .L0 
     /tmp/ccM6Y3AI.s:231    .text:000000000000012c .L0 
     /tmp/ccM6Y3AI.s:236    .text:000000000000013c .L0 
     /tmp/ccM6Y3AI.s:240    .text:0000000000000148 .L0 
     /tmp/ccM6Y3AI.s:243    .text:000000000000014c .L0 
     /tmp/ccM6Y3AI.s:244    .text:0000000000000150 .L0 
     /tmp/ccM6Y3AI.s:245    .text:0000000000000150 .L0 
     /tmp/ccM6Y3AI.s:247    .text:0000000000000154 .L0 
     /tmp/ccM6Y3AI.s:248    .text:0000000000000154 .L0 
     /tmp/ccM6Y3AI.s:250    .text:0000000000000158 .L0 
     /tmp/ccM6Y3AI.s:253    .text:000000000000015c .L0 
     /tmp/ccM6Y3AI.s:255    .text:0000000000000160 .L0 
     /tmp/ccM6Y3AI.s:259    .text:0000000000000164 .L0 
     /tmp/ccM6Y3AI.s:261    .text:0000000000000164 .L0 
     /tmp/ccM6Y3AI.s:262    .text:0000000000000164 .L0 
     /tmp/ccM6Y3AI.s:265    .text:0000000000000170 .L0 
     /tmp/ccM6Y3AI.s:288    .text:0000000000000170 _Z11workerBodyAv
     /tmp/ccM6Y3AI.s:291    .text:0000000000000170 .L0 
     /tmp/ccM6Y3AI.s:292    .text:0000000000000170 .L0 
     /tmp/ccM6Y3AI.s:293    .text:0000000000000174 .L0 
     /tmp/ccM6Y3AI.s:298    .text:0000000000000184 .L0 
     /tmp/ccM6Y3AI.s:299    .text:0000000000000184 .L0 
     /tmp/ccM6Y3AI.s:300    .text:0000000000000184 .L0 
     /tmp/ccM6Y3AI.s:301    .text:0000000000000184 .L0 
     /tmp/ccM6Y3AI.s:303    .text:0000000000000188 .L0 
     /tmp/ccM6Y3AI.s:306    .text:0000000000000188 .L0 
GAS LISTING /tmp/ccM6Y3AI.s 			page 22


     /tmp/ccM6Y3AI.s:307    .text:0000000000000188 .L0 
     /tmp/ccM6Y3AI.s:312    .text:0000000000000190 .L0 
     /tmp/ccM6Y3AI.s:313    .text:0000000000000190 .L0 
     /tmp/ccM6Y3AI.s:317    .text:00000000000001a0 .L0 
     /tmp/ccM6Y3AI.s:318    .text:00000000000001a0 .L0 
     /tmp/ccM6Y3AI.s:322    .text:00000000000001ac .L0 
     /tmp/ccM6Y3AI.s:323    .text:00000000000001ac .L0 
     /tmp/ccM6Y3AI.s:327    .text:00000000000001bc .L0 
     /tmp/ccM6Y3AI.s:333    .text:00000000000001c4 .L0 
     /tmp/ccM6Y3AI.s:334    .text:00000000000001c4 .L0 
     /tmp/ccM6Y3AI.s:337    .text:00000000000001cc .L0 
     /tmp/ccM6Y3AI.s:338    .text:00000000000001cc .L0 
     /tmp/ccM6Y3AI.s:342    .text:00000000000001dc .L0 
        src/main.cpp:16     .text:00000000000001dc .L0 
     /tmp/ccM6Y3AI.s:348    .text:00000000000001e0 .L0 
     /tmp/ccM6Y3AI.s:350    .text:00000000000001e0 .L0 
     /tmp/ccM6Y3AI.s:353    .text:00000000000001e8 .L0 
     /tmp/ccM6Y3AI.s:354    .text:00000000000001e8 .L0 
        src/main.cpp:20     .text:00000000000001e8 .L0 
     /tmp/ccM6Y3AI.s:361    .text:00000000000001ec .L0 
     /tmp/ccM6Y3AI.s:363    .text:00000000000001ec .L0 
     /tmp/ccM6Y3AI.s:367    .text:00000000000001fc .L0 
     /tmp/ccM6Y3AI.s:368    .text:00000000000001fc .L0 
     /tmp/ccM6Y3AI.s:372    .text:0000000000000208 .L0 
     /tmp/ccM6Y3AI.s:373    .text:0000000000000208 .L0 
     /tmp/ccM6Y3AI.s:377    .text:0000000000000218 .L0 
     /tmp/ccM6Y3AI.s:378    .text:0000000000000218 .L0 
     /tmp/ccM6Y3AI.s:384    .text:0000000000000228 .L0 
     /tmp/ccM6Y3AI.s:385    .text:0000000000000228 .L0 
     /tmp/ccM6Y3AI.s:390    .text:0000000000000238 .L0 
     /tmp/ccM6Y3AI.s:391    .text:0000000000000238 .L0 
     /tmp/ccM6Y3AI.s:395    .text:0000000000000244 .L0 
     /tmp/ccM6Y3AI.s:396    .text:0000000000000244 .L0 
     /tmp/ccM6Y3AI.s:402    .text:0000000000000258 .L0 
     /tmp/ccM6Y3AI.s:403    .text:0000000000000258 .L0 
     /tmp/ccM6Y3AI.s:407    .text:0000000000000268 .L0 
     /tmp/ccM6Y3AI.s:408    .text:0000000000000268 .L0 
     /tmp/ccM6Y3AI.s:412    .text:0000000000000274 .L0 
     /tmp/ccM6Y3AI.s:413    .text:0000000000000274 .L0 
     /tmp/ccM6Y3AI.s:417    .text:0000000000000284 .L0 
     /tmp/ccM6Y3AI.s:423    .text:000000000000028c .L0 
     /tmp/ccM6Y3AI.s:424    .text:000000000000028c .L0 
     /tmp/ccM6Y3AI.s:430    .text:0000000000000294 .L0 
     /tmp/ccM6Y3AI.s:431    .text:0000000000000294 .L0 
     /tmp/ccM6Y3AI.s:432    .text:0000000000000294 .L0 
     /tmp/ccM6Y3AI.s:439    .text:00000000000002a4 .L0 
     /tmp/ccM6Y3AI.s:440    .text:00000000000002a4 .L0 
     /tmp/ccM6Y3AI.s:443    .text:00000000000002ac .L0 
     /tmp/ccM6Y3AI.s:444    .text:00000000000002b0 .L0 
     /tmp/ccM6Y3AI.s:446    .text:00000000000002b4 .L0 
     /tmp/ccM6Y3AI.s:447    .text:00000000000002b4 .L0 
     /tmp/ccM6Y3AI.s:449    .text:00000000000002b8 .L0 
     /tmp/ccM6Y3AI.s:452    .text:00000000000002bc .L0 
     /tmp/ccM6Y3AI.s:455    .text:00000000000002c0 .L0 
     /tmp/ccM6Y3AI.s:457    .text:00000000000002c4 .L0 
     /tmp/ccM6Y3AI.s:471    .text:00000000000002c4 _Z11workerBodyBv
     /tmp/ccM6Y3AI.s:474    .text:00000000000002c4 .L0 
GAS LISTING /tmp/ccM6Y3AI.s 			page 23


     /tmp/ccM6Y3AI.s:475    .text:00000000000002c4 .L0 
     /tmp/ccM6Y3AI.s:476    .text:00000000000002c8 .L0 
     /tmp/ccM6Y3AI.s:481    .text:00000000000002d8 .L0 
     /tmp/ccM6Y3AI.s:482    .text:00000000000002d8 .L0 
     /tmp/ccM6Y3AI.s:483    .text:00000000000002d8 .L0 
     /tmp/ccM6Y3AI.s:484    .text:00000000000002d8 .L0 
     /tmp/ccM6Y3AI.s:486    .text:00000000000002dc .L0 
     /tmp/ccM6Y3AI.s:489    .text:00000000000002dc .L0 
     /tmp/ccM6Y3AI.s:490    .text:00000000000002dc .L0 
     /tmp/ccM6Y3AI.s:495    .text:00000000000002e4 .L0 
     /tmp/ccM6Y3AI.s:496    .text:00000000000002e4 .L0 
     /tmp/ccM6Y3AI.s:500    .text:00000000000002f4 .L0 
     /tmp/ccM6Y3AI.s:501    .text:00000000000002f4 .L0 
     /tmp/ccM6Y3AI.s:505    .text:0000000000000300 .L0 
     /tmp/ccM6Y3AI.s:506    .text:0000000000000300 .L0 
     /tmp/ccM6Y3AI.s:510    .text:0000000000000310 .L0 
     /tmp/ccM6Y3AI.s:516    .text:0000000000000318 .L0 
     /tmp/ccM6Y3AI.s:517    .text:0000000000000318 .L0 
     /tmp/ccM6Y3AI.s:520    .text:0000000000000320 .L0 
     /tmp/ccM6Y3AI.s:521    .text:0000000000000320 .L0 
     /tmp/ccM6Y3AI.s:525    .text:0000000000000330 .L0 
        src/main.cpp:36     .text:0000000000000330 .L0 
     /tmp/ccM6Y3AI.s:531    .text:0000000000000334 .L0 
     /tmp/ccM6Y3AI.s:533    .text:0000000000000334 .L0 
     /tmp/ccM6Y3AI.s:536    .text:000000000000033c .L0 
     /tmp/ccM6Y3AI.s:537    .text:000000000000033c .L0 
     /tmp/ccM6Y3AI.s:543    .text:000000000000034c .L0 
     /tmp/ccM6Y3AI.s:544    .text:000000000000034c .L0 
     /tmp/ccM6Y3AI.s:549    .text:000000000000035c .L0 
     /tmp/ccM6Y3AI.s:550    .text:000000000000035c .L0 
     /tmp/ccM6Y3AI.s:554    .text:0000000000000368 .L0 
     /tmp/ccM6Y3AI.s:555    .text:0000000000000368 .L0 
     /tmp/ccM6Y3AI.s:561    .text:000000000000037c .L0 
     /tmp/ccM6Y3AI.s:562    .text:000000000000037c .L0 
     /tmp/ccM6Y3AI.s:566    .text:000000000000038c .L0 
     /tmp/ccM6Y3AI.s:567    .text:000000000000038c .L0 
     /tmp/ccM6Y3AI.s:571    .text:0000000000000398 .L0 
     /tmp/ccM6Y3AI.s:572    .text:0000000000000398 .L0 
     /tmp/ccM6Y3AI.s:576    .text:00000000000003a8 .L0 
     /tmp/ccM6Y3AI.s:582    .text:00000000000003b0 .L0 
     /tmp/ccM6Y3AI.s:583    .text:00000000000003b0 .L0 
     /tmp/ccM6Y3AI.s:589    .text:00000000000003b8 .L0 
     /tmp/ccM6Y3AI.s:590    .text:00000000000003b8 .L0 
     /tmp/ccM6Y3AI.s:591    .text:00000000000003b8 .L0 
     /tmp/ccM6Y3AI.s:598    .text:00000000000003c8 .L0 
     /tmp/ccM6Y3AI.s:599    .text:00000000000003c8 .L0 
     /tmp/ccM6Y3AI.s:602    .text:00000000000003d0 .L0 
     /tmp/ccM6Y3AI.s:603    .text:00000000000003d4 .L0 
     /tmp/ccM6Y3AI.s:605    .text:00000000000003d8 .L0 
     /tmp/ccM6Y3AI.s:606    .text:00000000000003d8 .L0 
     /tmp/ccM6Y3AI.s:608    .text:00000000000003dc .L0 
     /tmp/ccM6Y3AI.s:611    .text:00000000000003e0 .L0 
     /tmp/ccM6Y3AI.s:614    .text:00000000000003e4 .L0 
     /tmp/ccM6Y3AI.s:616    .text:00000000000003e8 .L0 
     /tmp/ccM6Y3AI.s:633    .text:00000000000003e8 main
     /tmp/ccM6Y3AI.s:636    .text:00000000000003e8 .L0 
     /tmp/ccM6Y3AI.s:637    .text:00000000000003e8 .L0 
GAS LISTING /tmp/ccM6Y3AI.s 			page 24


     /tmp/ccM6Y3AI.s:638    .text:00000000000003ec .L0 
     /tmp/ccM6Y3AI.s:643    .text:00000000000003fc .L0 
     /tmp/ccM6Y3AI.s:644    .text:00000000000003fc .L0 
     /tmp/ccM6Y3AI.s:645    .text:00000000000003fc .L0 
     /tmp/ccM6Y3AI.s:646    .text:00000000000003fc .L0 
     /tmp/ccM6Y3AI.s:648    .text:0000000000000400 .L0 
     /tmp/ccM6Y3AI.s:650    .text:0000000000000400 .L0 
     /tmp/ccM6Y3AI.s:651    .text:0000000000000400 .L0 
     /tmp/ccM6Y3AI.s:652    .text:0000000000000400 .L0 
     /tmp/ccM6Y3AI.s:656    .text:000000000000040c .L0 
     /tmp/ccM6Y3AI.s:658    .text:0000000000000410 .L0 
     /tmp/ccM6Y3AI.s:659    .text:0000000000000410 .L0 
     /tmp/ccM6Y3AI.s:661    .text:0000000000000418 .L0 
     /tmp/ccM6Y3AI.s:662    .text:0000000000000418 .L0 
     /tmp/ccM6Y3AI.s:666    .text:0000000000000428 .L0 
     /tmp/ccM6Y3AI.s:668    .text:000000000000042c .L0 
     /tmp/ccM6Y3AI.s:669    .text:000000000000042c .L0 
     /tmp/ccM6Y3AI.s:673    .text:000000000000043c .L0 
     /tmp/ccM6Y3AI.s:674    .text:000000000000043c .L0 
     /tmp/ccM6Y3AI.s:678    .text:000000000000044c .L0 
     /tmp/ccM6Y3AI.s:680    .text:0000000000000450 .L0 
     /tmp/ccM6Y3AI.s:681    .text:0000000000000450 .L0 
     /tmp/ccM6Y3AI.s:687    .text:0000000000000464 .L0 
     /tmp/ccM6Y3AI.s:688    .text:0000000000000464 .L0 
     /tmp/ccM6Y3AI.s:692    .text:000000000000046c .L0 
     /tmp/ccM6Y3AI.s:693    .text:000000000000046c .L0 
     /tmp/ccM6Y3AI.s:694    .text:000000000000046c .L0 
     /tmp/ccM6Y3AI.s:699    .text:0000000000000470 .L0 
     /tmp/ccM6Y3AI.s:700    .text:0000000000000470 .L0 
     /tmp/ccM6Y3AI.s:705    .text:0000000000000474 .L0 
     /tmp/ccM6Y3AI.s:707    .text:0000000000000478 .L0 
     /tmp/ccM6Y3AI.s:712    .text:000000000000047c .L0 
     /tmp/ccM6Y3AI.s:713    .text:000000000000047c .L0 
     /tmp/ccM6Y3AI.s:718    .text:0000000000000480 .L0 
     /tmp/ccM6Y3AI.s:725    .text:000000000000048c .L0 
     /tmp/ccM6Y3AI.s:730    .text:0000000000000498 .L0 
     /tmp/ccM6Y3AI.s:734    .text:000000000000049c .L0 
     /tmp/ccM6Y3AI.s:738    .text:00000000000004a4 .L0 
     /tmp/ccM6Y3AI.s:739    .text:00000000000004a4 .L0 
     /tmp/ccM6Y3AI.s:741    .text:00000000000004a8 .L0 
     /tmp/ccM6Y3AI.s:746    .text:00000000000004ac .L0 
     /tmp/ccM6Y3AI.s:747    .text:00000000000004ac .L0 
     /tmp/ccM6Y3AI.s:749    .text:00000000000004b0 .L0 
     /tmp/ccM6Y3AI.s:751    .text:00000000000004b4 .L0 
     /tmp/ccM6Y3AI.s:760    .text:00000000000004c0 .L0 
     /tmp/ccM6Y3AI.s:761    .text:00000000000004c0 .L0 
     /tmp/ccM6Y3AI.s:765    .text:00000000000004d0 .L0 
     /tmp/ccM6Y3AI.s:766    .text:00000000000004d0 .L0 
     /tmp/ccM6Y3AI.s:768    .text:00000000000004d8 .L0 
     /tmp/ccM6Y3AI.s:770    .text:00000000000004dc .L0 
     /tmp/ccM6Y3AI.s:771    .text:00000000000004dc .L0 
     /tmp/ccM6Y3AI.s:773    .text:00000000000004e0 .L0 
     /tmp/ccM6Y3AI.s:776    .text:00000000000004e4 .L0 
     /tmp/ccM6Y3AI.s:778    .text:00000000000004e8 .L0 
     /tmp/ccM6Y3AI.s:780    .text:00000000000004ec .L0 
     /tmp/ccM6Y3AI.s:787    .text:00000000000004ec .L0 
     /tmp/ccM6Y3AI.s:270    .rodata.str1.8:0000000000000000 .LC0
GAS LISTING /tmp/ccM6Y3AI.s 			page 25


     /tmp/ccM6Y3AI.s:313    .text:0000000000000190 .L0 
     /tmp/ccM6Y3AI.s:273    .rodata.str1.8:0000000000000008 .LC1
     /tmp/ccM6Y3AI.s:323    .text:00000000000001ac .L0 
     /tmp/ccM6Y3AI.s:276    .rodata.str1.8:0000000000000010 .LC2
     /tmp/ccM6Y3AI.s:338    .text:00000000000001cc .L0 
     /tmp/ccM6Y3AI.s:279    .rodata.str1.8:0000000000000020 .LC3
     /tmp/ccM6Y3AI.s:363    .text:00000000000001ec .L0 
     /tmp/ccM6Y3AI.s:373    .text:0000000000000208 .L0 
     /tmp/ccM6Y3AI.s:282    .rodata.str1.8:0000000000000028 .LC4
     /tmp/ccM6Y3AI.s:385    .text:0000000000000228 .L0 
     /tmp/ccM6Y3AI.s:396    .text:0000000000000244 .L0 
     /tmp/ccM6Y3AI.s:403    .text:0000000000000258 .L0 
     /tmp/ccM6Y3AI.s:413    .text:0000000000000274 .L0 
     /tmp/ccM6Y3AI.s:432    .text:0000000000000294 .L0 
     /tmp/ccM6Y3AI.s:462    .rodata.str1.8:0000000000000038 .LC5
     /tmp/ccM6Y3AI.s:496    .text:00000000000002e4 .L0 
     /tmp/ccM6Y3AI.s:506    .text:0000000000000300 .L0 
     /tmp/ccM6Y3AI.s:465    .rodata.str1.8:0000000000000040 .LC6
     /tmp/ccM6Y3AI.s:521    .text:0000000000000320 .L0 
     /tmp/ccM6Y3AI.s:544    .text:000000000000034c .L0 
     /tmp/ccM6Y3AI.s:555    .text:0000000000000368 .L0 
     /tmp/ccM6Y3AI.s:562    .text:000000000000037c .L0 
     /tmp/ccM6Y3AI.s:572    .text:0000000000000398 .L0 
     /tmp/ccM6Y3AI.s:591    .text:00000000000003b8 .L0 
     /tmp/ccM6Y3AI.s:659    .text:0000000000000410 .L0 
     /tmp/ccM6Y3AI.s:662    .text:0000000000000418 .L0 
     /tmp/ccM6Y3AI.s:621    .rodata.str1.8:0000000000000050 .LC7
     /tmp/ccM6Y3AI.s:669    .text:000000000000042c .L0 
     /tmp/ccM6Y3AI.s:674    .text:000000000000043c .L0 
     /tmp/ccM6Y3AI.s:624    .rodata.str1.8:0000000000000060 .LC8
     /tmp/ccM6Y3AI.s:681    .text:0000000000000450 .L0 
     /tmp/ccM6Y3AI.s:627    .rodata.str1.8:0000000000000070 .LC9
     /tmp/ccM6Y3AI.s:761    .text:00000000000004c0 .L0 
     /tmp/ccM6Y3AI.s:241    .text:000000000000014c .L9
     /tmp/ccM6Y3AI.s:258    .text:0000000000000164 .L14
     /tmp/ccM6Y3AI.s:228    .text:000000000000012c .L11
     /tmp/ccM6Y3AI.s:331    .text:00000000000001c4 .L17
     /tmp/ccM6Y3AI.s:310    .text:0000000000000190 .L21
     /tmp/ccM6Y3AI.s:421    .text:000000000000028c .L19
     /tmp/ccM6Y3AI.s:400    .text:0000000000000258 .L22
     /tmp/ccM6Y3AI.s:514    .text:0000000000000318 .L25
     /tmp/ccM6Y3AI.s:493    .text:00000000000002e4 .L29
     /tmp/ccM6Y3AI.s:580    .text:00000000000003b0 .L27
     /tmp/ccM6Y3AI.s:559    .text:000000000000037c .L30
     /tmp/ccM6Y3AI.s:690    .text:000000000000046c .L34
     /tmp/ccM6Y3AI.s:685    .text:0000000000000464 .L32
     /tmp/ccM6Y3AI.s:732    .text:000000000000049c .L33
     /tmp/ccM6Y3AI.s:755    .text:00000000000004c0 .L35
     /tmp/ccM6Y3AI.s:728    .text:0000000000000498 .L36
     /tmp/ccM6Y3AI.s:722    .text:000000000000048c .L37
     /tmp/ccM6Y3AI.s:2113   .debug_abbrev:0000000000000000 .Ldebug_abbrev0
     /tmp/ccM6Y3AI.s:3298   .debug_str:000000000000006b .LASF90
     /tmp/ccM6Y3AI.s:3366   .debug_str:000000000000032d .LASF91
     /tmp/ccM6Y3AI.s:3320   .debug_str:00000000000001ba .LASF92
     /tmp/ccM6Y3AI.s:8      .text:0000000000000000 .Ltext0
     /tmp/ccM6Y3AI.s:783    .text:00000000000004ec .Letext0
     /tmp/ccM6Y3AI.s:3280   .debug_line:0000000000000000 .Ldebug_line0
GAS LISTING /tmp/ccM6Y3AI.s 			page 26


     /tmp/ccM6Y3AI.s:3396   .debug_str:00000000000003f9 .LASF0
     /tmp/ccM6Y3AI.s:3404   .debug_str:000000000000041f .LASF1
     /tmp/ccM6Y3AI.s:3380   .debug_str:0000000000000380 .LASF2
     /tmp/ccM6Y3AI.s:3324   .debug_str:00000000000001ec .LASF3
     /tmp/ccM6Y3AI.s:3354   .debug_str:00000000000002e3 .LASF4
     /tmp/ccM6Y3AI.s:3440   .debug_str:0000000000000556 .LASF5
     /tmp/ccM6Y3AI.s:3300   .debug_str:000000000000012f .LASF6
     /tmp/ccM6Y3AI.s:3406   .debug_str:0000000000000432 .LASF7
     /tmp/ccM6Y3AI.s:3394   .debug_str:00000000000003e6 .LASF8
     /tmp/ccM6Y3AI.s:3464   .debug_str:000000000000060d .LASF9
     /tmp/ccM6Y3AI.s:3344   .debug_str:0000000000000278 .LASF10
     /tmp/ccM6Y3AI.s:3418   .debug_str:000000000000048c .LASF11
     /tmp/ccM6Y3AI.s:3458   .debug_str:00000000000005de .LASF12
     /tmp/ccM6Y3AI.s:3302   .debug_str:0000000000000136 .LASF13
     /tmp/ccM6Y3AI.s:3286   .debug_str:0000000000000013 .LASF14
     /tmp/ccM6Y3AI.s:3304   .debug_str:0000000000000146 .LASF15
     /tmp/ccM6Y3AI.s:3432   .debug_str:0000000000000500 .LASF16
     /tmp/ccM6Y3AI.s:3312   .debug_str:000000000000018b .LASF17
     /tmp/ccM6Y3AI.s:3364   .debug_str:0000000000000324 .LASF36
     /tmp/ccM6Y3AI.s:3306   .debug_str:0000000000000152 .LASF18
     /tmp/ccM6Y3AI.s:3484   .debug_str:0000000000000698 .LASF19
     /tmp/ccM6Y3AI.s:3478   .debug_str:0000000000000679 .LASF20
     /tmp/ccM6Y3AI.s:3328   .debug_str:00000000000001fa .LASF21
     /tmp/ccM6Y3AI.s:3378   .debug_str:0000000000000370 .LASF32
     /tmp/ccM6Y3AI.s:3456   .debug_str:00000000000005d2 .LASF93
     /tmp/ccM6Y3AI.s:3360   .debug_str:00000000000002f8 .LASF94
     /tmp/ccM6Y3AI.s:3386   .debug_str:00000000000003a4 .LASF22
     /tmp/ccM6Y3AI.s:3470   .debug_str:0000000000000635 .LASF24
     /tmp/ccM6Y3AI.s:3454   .debug_str:00000000000005c4 .LASF23
     /tmp/ccM6Y3AI.s:3424   .debug_str:00000000000004ac .LASF25
     /tmp/ccM6Y3AI.s:3430   .debug_str:00000000000004e3 .LASF26
     /tmp/ccM6Y3AI.s:3446   .debug_str:0000000000000589 .LASF27
     /tmp/ccM6Y3AI.s:3334   .debug_str:0000000000000217 .LASF28
     /tmp/ccM6Y3AI.s:3316   .debug_str:00000000000001ad .LASF29
     /tmp/ccM6Y3AI.s:3310   .debug_str:000000000000016c .LASF30
     /tmp/ccM6Y3AI.s:3322   .debug_str:00000000000001d3 .LASF34
     /tmp/ccM6Y3AI.s:3318   .debug_str:00000000000001b5 .LASF31
     /tmp/ccM6Y3AI.s:3448   .debug_str:0000000000000596 .LASF33
     /tmp/ccM6Y3AI.s:3438   .debug_str:000000000000052c .LASF35
     /tmp/ccM6Y3AI.s:3384   .debug_str:000000000000039a .LASF53
     /tmp/ccM6Y3AI.s:3408   .debug_str:0000000000000445 .LASF55
     /tmp/ccM6Y3AI.s:3290   .debug_str:000000000000002f .LASF37
     /tmp/ccM6Y3AI.s:3348   .debug_str:000000000000029f .LASF38
     /tmp/ccM6Y3AI.s:3426   .debug_str:00000000000004d2 .LASF40
     /tmp/ccM6Y3AI.s:3468   .debug_str:0000000000000627 .LASF39
     /tmp/ccM6Y3AI.s:3390   .debug_str:00000000000003bd .LASF41
     /tmp/ccM6Y3AI.s:3428   .debug_str:00000000000004de .LASF95
     /tmp/ccM6Y3AI.s:3376   .debug_str:0000000000000363 .LASF42
     /tmp/ccM6Y3AI.s:3296   .debug_str:0000000000000052 .LASF43
     /tmp/ccM6Y3AI.s:3410   .debug_str:000000000000046f .LASF44
     /tmp/ccM6Y3AI.s:3342   .debug_str:0000000000000261 .LASF45
     /tmp/ccM6Y3AI.s:3382   .debug_str:000000000000038e .LASF46
     /tmp/ccM6Y3AI.s:3350   .debug_str:00000000000002a4 .LASF47
     /tmp/ccM6Y3AI.s:3434   .debug_str:0000000000000516 .LASF96
     /tmp/ccM6Y3AI.s:3388   .debug_str:00000000000003ad .LASF97
     /tmp/ccM6Y3AI.s:3326   .debug_str:00000000000001f2 .LASF98
     /tmp/ccM6Y3AI.s:3436   .debug_str:000000000000051c .LASF99
GAS LISTING /tmp/ccM6Y3AI.s 			page 27


     /tmp/ccM6Y3AI.s:3358   .debug_str:00000000000002f3 .LASF48
     /tmp/ccM6Y3AI.s:3400   .debug_str:000000000000040f .LASF49
     /tmp/ccM6Y3AI.s:3362   .debug_str:000000000000031c .LASF50
     /tmp/ccM6Y3AI.s:3356   .debug_str:00000000000002ea .LASF51
     /tmp/ccM6Y3AI.s:3402   .debug_str:0000000000000415 .LASF52
     /tmp/ccM6Y3AI.s:3372   .debug_str:000000000000034f .LASF57
     /tmp/ccM6Y3AI.s:3346   .debug_str:0000000000000286 .LASF59
     /tmp/ccM6Y3AI.s:3308   .debug_str:000000000000015e .LASF54
     /tmp/ccM6Y3AI.s:3352   .debug_str:00000000000002bb .LASF56
     /tmp/ccM6Y3AI.s:3398   .debug_str:0000000000000406 .LASF58
     /tmp/ccM6Y3AI.s:3330   .debug_str:00000000000001ff .LASF60
     /tmp/ccM6Y3AI.s:3442   .debug_str:0000000000000568 .LASF100
     /tmp/ccM6Y3AI.s:3370   .debug_str:0000000000000344 .LASF61
     /tmp/ccM6Y3AI.s:3472   .debug_str:0000000000000655 .LASF62
     /tmp/ccM6Y3AI.s:3332   .debug_str:0000000000000212 .LASF63
     /tmp/ccM6Y3AI.s:3414   .debug_str:0000000000000481 .LASF64
     /tmp/ccM6Y3AI.s:634    .text:00000000000003e8 .LFB24
     /tmp/ccM6Y3AI.s:781    .text:00000000000004ec .LFE24
     /tmp/ccM6Y3AI.s:3338   .debug_str:0000000000000249 .LASF65
     /tmp/ccM6Y3AI.s:723    .text:000000000000048c .LBB22
     /tmp/ccM6Y3AI.s:758    .text:00000000000004c0 .LBE22
     /tmp/ccM6Y3AI.s:3412   .debug_str:000000000000047a .LASF66
     /tmp/ccM6Y3AI.s:3048   .debug_loc:0000000000000000 .LLST14
     /tmp/ccM6Y3AI.s:3476   .debug_str:000000000000066d .LASF67
     /tmp/ccM6Y3AI.s:3420   .debug_str:000000000000049b .LASF101
     /tmp/ccM6Y3AI.s:3059   .debug_loc:0000000000000036 .LLST15
     /tmp/ccM6Y3AI.s:3368   .debug_str:000000000000033a .LASF68
     /tmp/ccM6Y3AI.s:743    .text:00000000000004ac .LBB23
     /tmp/ccM6Y3AI.s:757    .text:00000000000004c0 .LBE23
     /tmp/ccM6Y3AI.s:3066   .debug_loc:0000000000000059 .LLST16
     /tmp/ccM6Y3AI.s:752    .text:00000000000004bc .LVL92
     /tmp/ccM6Y3AI.s:727    .text:0000000000000498 .LVL88
     /tmp/ccM6Y3AI.s:696    .text:0000000000000470 .LBB18
     /tmp/ccM6Y3AI.s:703    .text:0000000000000474 .LBE18
     /tmp/ccM6Y3AI.s:3073   .debug_loc:000000000000007c .LLST12
     /tmp/ccM6Y3AI.s:709    .text:000000000000047c .LBB20
     /tmp/ccM6Y3AI.s:716    .text:0000000000000480 .LBE20
     /tmp/ccM6Y3AI.s:3080   .debug_loc:000000000000009f .LLST13
     /tmp/ccM6Y3AI.s:654    .text:000000000000040c .LVL77
     /tmp/ccM6Y3AI.s:664    .text:0000000000000428 .LVL78
     /tmp/ccM6Y3AI.s:671    .text:000000000000043c .LVL79
     /tmp/ccM6Y3AI.s:676    .text:000000000000044c .LVL80
     /tmp/ccM6Y3AI.s:683    .text:0000000000000460 .LVL81
     /tmp/ccM6Y3AI.s:689    .text:000000000000046c .LVL82
     /tmp/ccM6Y3AI.s:763    .text:00000000000004d0 .LVL94
     /tmp/ccM6Y3AI.s:3284   .debug_str:0000000000000007 .LASF69
     /tmp/ccM6Y3AI.s:3292   .debug_str:0000000000000037 .LASF70
     /tmp/ccM6Y3AI.s:472    .text:00000000000002c4 .LFB23
     /tmp/ccM6Y3AI.s:617    .text:00000000000003e8 .LFE23
     /tmp/ccM6Y3AI.s:3087   .debug_loc:00000000000000c2 .LLST9
     /tmp/ccM6Y3AI.s:3282   .debug_str:0000000000000000 .LASF71
     /tmp/ccM6Y3AI.s:3107   .debug_loc:000000000000011f .LLST10
     /tmp/ccM6Y3AI.s:587    .text:00000000000003b8 .LBB16
     /tmp/ccM6Y3AI.s:596    .text:00000000000003c8 .LBE16
     /tmp/ccM6Y3AI.s:3118   .debug_loc:0000000000000155 .LLST11
     /tmp/ccM6Y3AI.s:498    .text:00000000000002f4 .LVL54
     /tmp/ccM6Y3AI.s:503    .text:0000000000000300 .LVL55
GAS LISTING /tmp/ccM6Y3AI.s 			page 28


     /tmp/ccM6Y3AI.s:508    .text:0000000000000310 .LVL56
     /tmp/ccM6Y3AI.s:523    .text:0000000000000330 .LVL59
     /tmp/ccM6Y3AI.s:534    .text:000000000000033c .LVL60
     /tmp/ccM6Y3AI.s:539    .text:0000000000000348 .LVL61
     /tmp/ccM6Y3AI.s:547    .text:000000000000035c .LVL64
     /tmp/ccM6Y3AI.s:552    .text:0000000000000368 .LVL65
     /tmp/ccM6Y3AI.s:557    .text:0000000000000378 .LVL66
     /tmp/ccM6Y3AI.s:564    .text:000000000000038c .LVL67
     /tmp/ccM6Y3AI.s:569    .text:0000000000000398 .LVL68
     /tmp/ccM6Y3AI.s:574    .text:00000000000003a8 .LVL69
     /tmp/ccM6Y3AI.s:600    .text:00000000000003d0 .LVL74
     /tmp/ccM6Y3AI.s:3392   .debug_str:00000000000003da .LASF72
     /tmp/ccM6Y3AI.s:3452   .debug_str:00000000000005b3 .LASF73
     /tmp/ccM6Y3AI.s:289    .text:0000000000000170 .LFB22
     /tmp/ccM6Y3AI.s:458    .text:00000000000002c4 .LFE22
     /tmp/ccM6Y3AI.s:3126   .debug_loc:0000000000000179 .LLST5
     /tmp/ccM6Y3AI.s:3146   .debug_loc:00000000000001d6 .LLST6
     /tmp/ccM6Y3AI.s:3154   .debug_loc:00000000000001fa .LLST7
     /tmp/ccM6Y3AI.s:428    .text:0000000000000294 .LBB14
     /tmp/ccM6Y3AI.s:437    .text:00000000000002a4 .LBE14
     /tmp/ccM6Y3AI.s:3165   .debug_loc:0000000000000230 .LLST8
     /tmp/ccM6Y3AI.s:315    .text:00000000000001a0 .LVL25
     /tmp/ccM6Y3AI.s:320    .text:00000000000001ac .LVL26
     /tmp/ccM6Y3AI.s:325    .text:00000000000001bc .LVL27
     /tmp/ccM6Y3AI.s:340    .text:00000000000001dc .LVL30
     /tmp/ccM6Y3AI.s:351    .text:00000000000001e8 .LVL31
     /tmp/ccM6Y3AI.s:365    .text:00000000000001fc .LVL33
     /tmp/ccM6Y3AI.s:370    .text:0000000000000208 .LVL34
     /tmp/ccM6Y3AI.s:375    .text:0000000000000218 .LVL35
     /tmp/ccM6Y3AI.s:380    .text:0000000000000224 .LVL36
     /tmp/ccM6Y3AI.s:388    .text:0000000000000238 .LVL39
     /tmp/ccM6Y3AI.s:393    .text:0000000000000244 .LVL40
     /tmp/ccM6Y3AI.s:398    .text:0000000000000254 .LVL41
     /tmp/ccM6Y3AI.s:405    .text:0000000000000268 .LVL42
     /tmp/ccM6Y3AI.s:410    .text:0000000000000274 .LVL43
     /tmp/ccM6Y3AI.s:415    .text:0000000000000284 .LVL44
     /tmp/ccM6Y3AI.s:441    .text:00000000000002ac .LVL49
     /tmp/ccM6Y3AI.s:3466   .debug_str:000000000000061d .LASF78
     /tmp/ccM6Y3AI.s:3462   .debug_str:00000000000005ff .LASF80
     /tmp/ccM6Y3AI.s:201    .text:0000000000000100 .LFB21
     /tmp/ccM6Y3AI.s:266    .text:0000000000000170 .LFE21
     /tmp/ccM6Y3AI.s:3173   .debug_loc:0000000000000254 .LLST4
     /tmp/ccM6Y3AI.s:233    .text:0000000000000138 .LVL18
     /tmp/ccM6Y3AI.s:238    .text:0000000000000148 .LVL19
     /tmp/ccM6Y3AI.s:263    .text:000000000000016c .LVL22
     /tmp/ccM6Y3AI.s:3450   .debug_str:00000000000005a0 .LASF74
     /tmp/ccM6Y3AI.s:3482   .debug_str:0000000000000691 .LASF75
     /tmp/ccM6Y3AI.s:150    .text:00000000000000c0 .LFB20
     /tmp/ccM6Y3AI.s:188    .text:0000000000000100 .LFE20
     /tmp/ccM6Y3AI.s:3195   .debug_loc:00000000000002b3 .LLST3
     /tmp/ccM6Y3AI.s:170    .text:00000000000000e0 .LVL13
     /tmp/ccM6Y3AI.s:174    .text:00000000000000ec .LVL14
     /tmp/ccM6Y3AI.s:3444   .debug_str:0000000000000579 .LASF76
     /tmp/ccM6Y3AI.s:3486   .debug_str:000000000000069d .LASF77
     /tmp/ccM6Y3AI.s:98     .text:0000000000000080 .LFB19
     /tmp/ccM6Y3AI.s:136    .text:00000000000000c0 .LFE19
     /tmp/ccM6Y3AI.s:3213   .debug_loc:00000000000002ff .LLST2
GAS LISTING /tmp/ccM6Y3AI.s 			page 29


     /tmp/ccM6Y3AI.s:118    .text:00000000000000a0 .LVL9
     /tmp/ccM6Y3AI.s:122    .text:00000000000000ac .LVL10
     /tmp/ccM6Y3AI.s:3340   .debug_str:0000000000000251 .LASF79
     /tmp/ccM6Y3AI.s:3416   .debug_str:0000000000000486 .LASF81
     /tmp/ccM6Y3AI.s:56     .text:0000000000000040 .LFB18
     /tmp/ccM6Y3AI.s:92     .text:0000000000000080 .LFE18
     /tmp/ccM6Y3AI.s:3231   .debug_loc:000000000000034b .LLST1
     /tmp/ccM6Y3AI.s:74     .text:0000000000000060 .LVL5
     /tmp/ccM6Y3AI.s:78     .text:000000000000006c .LVL6
     /tmp/ccM6Y3AI.s:3474   .debug_str:0000000000000660 .LASF82
     /tmp/ccM6Y3AI.s:3374   .debug_str:000000000000035d .LASF83
     /tmp/ccM6Y3AI.s:13     .text:0000000000000000 .LFB17
     /tmp/ccM6Y3AI.s:50     .text:0000000000000040 .LFE17
     /tmp/ccM6Y3AI.s:3249   .debug_loc:0000000000000397 .LLST0
     /tmp/ccM6Y3AI.s:32     .text:0000000000000020 .LVL1
     /tmp/ccM6Y3AI.s:36     .text:000000000000002c .LVL2
     /tmp/ccM6Y3AI.s:3422   .debug_str:00000000000004a7 .LASF84
     /tmp/ccM6Y3AI.s:3294   .debug_str:0000000000000048 .LASF85
     /tmp/ccM6Y3AI.s:3314   .debug_str:00000000000001a1 .LASF102
     /tmp/ccM6Y3AI.s:3480   .debug_str:000000000000067e .LASF86
     /tmp/ccM6Y3AI.s:3288   .debug_str:0000000000000023 .LASF88
     /tmp/ccM6Y3AI.s:3460   .debug_str:00000000000005ed .LASF87
     /tmp/ccM6Y3AI.s:3336   .debug_str:000000000000023c .LASF89
     /tmp/ccM6Y3AI.s:721    .text:000000000000048c .LVL87
     /tmp/ccM6Y3AI.s:731    .text:000000000000049c .LVL89
     /tmp/ccM6Y3AI.s:736    .text:00000000000004a4 .LVL90
     /tmp/ccM6Y3AI.s:754    .text:00000000000004c0 .LVL93
     /tmp/ccM6Y3AI.s:774    .text:00000000000004e0 .LVL95
     /tmp/ccM6Y3AI.s:742    .text:00000000000004ac .LVL91
     /tmp/ccM6Y3AI.s:695    .text:0000000000000470 .LVL83
     /tmp/ccM6Y3AI.s:701    .text:0000000000000474 .LVL84
     /tmp/ccM6Y3AI.s:708    .text:000000000000047c .LVL85
     /tmp/ccM6Y3AI.s:714    .text:0000000000000480 .LVL86
     /tmp/ccM6Y3AI.s:488    .text:00000000000002dc .LVL52
     /tmp/ccM6Y3AI.s:492    .text:00000000000002e4 .LVL53
     /tmp/ccM6Y3AI.s:511    .text:0000000000000314 .LVL57
     /tmp/ccM6Y3AI.s:513    .text:0000000000000318 .LVL58
     /tmp/ccM6Y3AI.s:577    .text:00000000000003ac .LVL70
     /tmp/ccM6Y3AI.s:579    .text:00000000000003b0 .LVL71
     /tmp/ccM6Y3AI.s:609    .text:00000000000003dc .LVL75
     /tmp/ccM6Y3AI.s:541    .text:000000000000034c .LVL62
     /tmp/ccM6Y3AI.s:545    .text:0000000000000354 .LVL63
     /tmp/ccM6Y3AI.s:612    .text:00000000000003e0 .LVL76
     /tmp/ccM6Y3AI.s:586    .text:00000000000003b8 .LVL72
     /tmp/ccM6Y3AI.s:594    .text:00000000000003c8 .LVL73
     /tmp/ccM6Y3AI.s:305    .text:0000000000000188 .LVL23
     /tmp/ccM6Y3AI.s:309    .text:0000000000000190 .LVL24
     /tmp/ccM6Y3AI.s:328    .text:00000000000001c0 .LVL28
     /tmp/ccM6Y3AI.s:330    .text:00000000000001c4 .LVL29
     /tmp/ccM6Y3AI.s:418    .text:0000000000000288 .LVL45
     /tmp/ccM6Y3AI.s:420    .text:000000000000028c .LVL46
     /tmp/ccM6Y3AI.s:450    .text:00000000000002b8 .LVL50
     /tmp/ccM6Y3AI.s:359    .text:00000000000001ec .LVL32
     /tmp/ccM6Y3AI.s:382    .text:0000000000000228 .LVL37
     /tmp/ccM6Y3AI.s:386    .text:0000000000000230 .LVL38
     /tmp/ccM6Y3AI.s:453    .text:00000000000002bc .LVL51
     /tmp/ccM6Y3AI.s:427    .text:0000000000000294 .LVL47
GAS LISTING /tmp/ccM6Y3AI.s 			page 30


     /tmp/ccM6Y3AI.s:435    .text:00000000000002a4 .LVL48
     /tmp/ccM6Y3AI.s:205    .text:0000000000000100 .LVL16
     /tmp/ccM6Y3AI.s:227    .text:000000000000012c .LVL17
     /tmp/ccM6Y3AI.s:251    .text:0000000000000158 .LVL20
     /tmp/ccM6Y3AI.s:257    .text:0000000000000164 .LVL21
     /tmp/ccM6Y3AI.s:155    .text:00000000000000c0 .LVL12
     /tmp/ccM6Y3AI.s:183    .text:00000000000000f8 .LVL15
     /tmp/ccM6Y3AI.s:103    .text:0000000000000080 .LVL8
     /tmp/ccM6Y3AI.s:131    .text:00000000000000b8 .LVL11
     /tmp/ccM6Y3AI.s:59     .text:0000000000000040 .LVL4
     /tmp/ccM6Y3AI.s:87     .text:0000000000000078 .LVL7
     /tmp/ccM6Y3AI.s:17     .text:0000000000000000 .LVL0
     /tmp/ccM6Y3AI.s:45     .text:0000000000000038 .LVL3
     /tmp/ccM6Y3AI.s:788    .debug_info:0000000000000000 .Ldebug_info0
     /tmp/ccM6Y3AI.s:139    .gcc_except_table:0000000000000000 .LLSDA19
     /tmp/ccM6Y3AI.s:190    .gcc_except_table:0000000000000004 .LLSDA20

UNDEFINED SYMBOLS
_ZN15MemoryAllocator11getInstanceEv
_ZN15MemoryAllocator8memAllocEm
_ZN15MemoryAllocator4freeEPv
__gxx_personality_v0
_ZN3TCB5yieldEv
_Z11printStringPKc
_Z12printIntegerm
_ZN3TCB7runningE
_ZN3TCB13create_threadEPFvvE
