GAS LISTING /tmp/ccIZN2OA.s 			page 1


   1              		.file	"MemoryAllocator.cpp"
   2              		.option nopic
   3              		.option norelax
   4              		.attribute arch, "rv64i2p0_m2p0_a2p0"
   5              		.attribute unaligned_access, 0
   6              		.attribute stack_align, 16
   7              		.text
   8              	.Ltext0:
   9              		.align	2
  10              		.globl	_ZN15MemoryAllocatorC2Ev
  12              	_ZN15MemoryAllocatorC2Ev:
  13              	.LFB2:
  14              		.file 1 "src/MemoryAllocator.cpp"
   1:src/MemoryAllocator.cpp **** 
   2:src/MemoryAllocator.cpp **** #include  "../h/MemoryAllocator.hpp"
   3:src/MemoryAllocator.cpp **** #include "../lib/console.h"
   4:src/MemoryAllocator.cpp **** 
   5:src/MemoryAllocator.cpp **** 
   6:src/MemoryAllocator.cpp **** MemoryAllocator &MemoryAllocator::getInstance() {
   7:src/MemoryAllocator.cpp ****     static MemoryAllocator instance;
   8:src/MemoryAllocator.cpp ****     return instance;
   9:src/MemoryAllocator.cpp **** }
  10:src/MemoryAllocator.cpp **** 
  11:src/MemoryAllocator.cpp **** MemoryAllocator::MemoryAllocator() {
  15              		.loc 1 11 1
  16              		.cfi_startproc
  17              	.LVL0:
  18 0000 130101FF 		addi	sp,sp,-16
  19              		.cfi_def_cfa_offset 16
  20 0004 23348100 		sd	s0,8(sp)
  21              		.cfi_offset 8, -8
  22 0008 13040101 		addi	s0,sp,16
  23              		.cfi_def_cfa 8, 0
  24              	.LBB2:
  12:src/MemoryAllocator.cpp ****     void* startAddress=(void*)(((size_t)HEAP_START_ADDR+MEM_BLOCK_SIZE-1) / MEM_BLOCK_SIZE * MEM_BL
  25              		.loc 1 12 5
  26              		.loc 1 12 71 is_stmt 0
  27 000c 97070000 		ld	a5,HEAP_START_ADDR
  27      83B70700 
  28 0014 9387F703 		addi	a5,a5,63
  29              		.loc 1 12 92
  30 0018 93F707FC 		andi	a5,a5,-64
  31              	.LVL1:
  13:src/MemoryAllocator.cpp ****     head=(Fragment*)startAddress;
  32              		.loc 1 13 5 is_stmt 1
  33              		.loc 1 13 9 is_stmt 0
  34 001c 2330F500 		sd	a5,0(a0)
  14:src/MemoryAllocator.cpp ****     size_t num=((size_t)HEAP_END_ADDR-(size_t)startAddress) / MEM_BLOCK_SIZE;
  35              		.loc 1 14 5 is_stmt 1
  36              		.loc 1 14 38 is_stmt 0
  37 0020 17070000 		ld	a4,HEAP_END_ADDR
  37      03370700 
  38 0028 3307F740 		sub	a4,a4,a5
  39              		.loc 1 14 12
  40 002c 13576700 		srli	a4,a4,6
  41              	.LVL2:
  15:src/MemoryAllocator.cpp ****     head->numOfBlocks=num;
GAS LISTING /tmp/ccIZN2OA.s 			page 2


  42              		.loc 1 15 5 is_stmt 1
  43              		.loc 1 15 22 is_stmt 0
  44 0030 23B0E700 		sd	a4,0(a5)
  16:src/MemoryAllocator.cpp ****     head->next=nullptr;
  45              		.loc 1 16 5 is_stmt 1
  46 0034 83370500 		ld	a5,0(a0)
  47              	.LVL3:
  48              		.loc 1 16 15 is_stmt 0
  49 0038 23B40700 		sd	zero,8(a5)
  17:src/MemoryAllocator.cpp ****     head->prev=nullptr;
  50              		.loc 1 17 5 is_stmt 1
  51 003c 83370500 		ld	a5,0(a0)
  52              		.loc 1 17 15 is_stmt 0
  53 0040 23B80700 		sd	zero,16(a5)
  18:src/MemoryAllocator.cpp ****     head->free=1;
  54              		.loc 1 18 5 is_stmt 1
  55 0044 83370500 		ld	a5,0(a0)
  56              		.loc 1 18 15 is_stmt 0
  57 0048 13071000 		li	a4,1
  58              	.LVL4:
  59 004c 238CE700 		sb	a4,24(a5)
  60              	.LBE2:
  19:src/MemoryAllocator.cpp **** }
  61              		.loc 1 19 1
  62 0050 03348100 		ld	s0,8(sp)
  63              		.cfi_restore 8
  64              		.cfi_def_cfa 2, 16
  65 0054 13010101 		addi	sp,sp,16
  66              		.cfi_def_cfa_offset 0
  67 0058 67800000 		jr	ra
  68              		.cfi_endproc
  69              	.LFE2:
  71              		.globl	_ZN15MemoryAllocatorC1Ev
  72              		.set	_ZN15MemoryAllocatorC1Ev,_ZN15MemoryAllocatorC2Ev
  73              		.align	2
  74              		.globl	_ZN15MemoryAllocator11getInstanceEv
  76              	_ZN15MemoryAllocator11getInstanceEv:
  77              	.LFB0:
   6:src/MemoryAllocator.cpp ****     static MemoryAllocator instance;
  78              		.loc 1 6 49 is_stmt 1
  79              		.cfi_startproc
   7:src/MemoryAllocator.cpp ****     return instance;
  80              		.loc 1 7 5
   7:src/MemoryAllocator.cpp ****     return instance;
  81              		.loc 1 7 28 is_stmt 0
  82 005c 97070000 		lbu	a5,_ZGVZN15MemoryAllocator11getInstanceEvE8instance
  82      83C70700 
  83 0064 63880700 		beqz	a5,.L9
   8:src/MemoryAllocator.cpp **** }
  84              		.loc 1 8 5 is_stmt 1
   9:src/MemoryAllocator.cpp **** 
  85              		.loc 1 9 1 is_stmt 0
  86 0068 17050000 		lla	a0,_ZZN15MemoryAllocator11getInstanceEvE8instance
  86      13050500 
  87 0070 67800000 		ret
  88              	.L9:
   6:src/MemoryAllocator.cpp ****     static MemoryAllocator instance;
GAS LISTING /tmp/ccIZN2OA.s 			page 3


  89              		.loc 1 6 49 discriminator 1
  90 0074 130101FF 		addi	sp,sp,-16
  91              		.cfi_def_cfa_offset 16
  92 0078 23341100 		sd	ra,8(sp)
  93 007c 23308100 		sd	s0,0(sp)
  94              		.cfi_offset 1, -8
  95              		.cfi_offset 8, -16
  96 0080 13040101 		addi	s0,sp,16
  97              		.cfi_def_cfa 8, 0
   7:src/MemoryAllocator.cpp ****     return instance;
  98              		.loc 1 7 28 discriminator 1
  99 0084 17050000 		lla	a0,_ZZN15MemoryAllocator11getInstanceEvE8instance
  99      13050500 
 100 008c 97000000 		call	_ZN15MemoryAllocatorC1Ev
 100      E7800000 
 101              	.LVL5:
 102 0094 93071000 		li	a5,1
 103 0098 17070000 		sb	a5,_ZGVZN15MemoryAllocator11getInstanceEvE8instance,a4
 103      2300F700 
   8:src/MemoryAllocator.cpp **** }
 104              		.loc 1 8 5 is_stmt 1 discriminator 1
   9:src/MemoryAllocator.cpp **** 
 105              		.loc 1 9 1 is_stmt 0 discriminator 1
 106 00a0 17050000 		lla	a0,_ZZN15MemoryAllocator11getInstanceEvE8instance
 106      13050500 
 107 00a8 83308100 		ld	ra,8(sp)
 108              		.cfi_restore 1
 109 00ac 03340100 		ld	s0,0(sp)
 110              		.cfi_restore 8
 111              		.cfi_def_cfa 2, 16
 112 00b0 13010101 		addi	sp,sp,16
 113              		.cfi_def_cfa_offset 0
 114 00b4 67800000 		jr	ra
 115              		.cfi_endproc
 116              	.LFE0:
 118              		.align	2
 119              		.globl	_ZN15MemoryAllocator13firstFitAllocEm
 121              	_ZN15MemoryAllocator13firstFitAllocEm:
 122              	.LFB5:
  20:src/MemoryAllocator.cpp **** 
  21:src/MemoryAllocator.cpp **** void* MemoryAllocator::memAlloc(size_t size) {
  22:src/MemoryAllocator.cpp ****     return MemoryAllocator::getInstance().firstFitAlloc(size);
  23:src/MemoryAllocator.cpp ****     //return MemoryAllocator::getInstance().bestFitAlloc();
  24:src/MemoryAllocator.cpp **** }
  25:src/MemoryAllocator.cpp **** 
  26:src/MemoryAllocator.cpp **** 
  27:src/MemoryAllocator.cpp **** 
  28:src/MemoryAllocator.cpp **** void* MemoryAllocator::firstFitAlloc(size_t size) {
 123              		.loc 1 28 51 is_stmt 1
 124              		.cfi_startproc
 125              	.LVL6:
 126 00b8 130101FE 		addi	sp,sp,-32
 127              		.cfi_def_cfa_offset 32
 128 00bc 233C1100 		sd	ra,24(sp)
 129 00c0 23388100 		sd	s0,16(sp)
 130 00c4 23349100 		sd	s1,8(sp)
 131              		.cfi_offset 1, -8
GAS LISTING /tmp/ccIZN2OA.s 			page 4


 132              		.cfi_offset 8, -16
 133              		.cfi_offset 9, -24
 134 00c8 13040102 		addi	s0,sp,32
 135              		.cfi_def_cfa 8, 0
  29:src/MemoryAllocator.cpp ****     if (size<=0) {
 136              		.loc 1 29 5
 137 00cc 638E0500 		beqz	a1,.L22
  30:src/MemoryAllocator.cpp ****         __putc('!');
  31:src/MemoryAllocator.cpp ****         return nullptr;
  32:src/MemoryAllocator.cpp ****     }
  33:src/MemoryAllocator.cpp ****     //sizeof(fragment) extra space to store fragment data
  34:src/MemoryAllocator.cpp ****     size_t numOfBlocksNeeded=((size+sizeof(Fragment))%MEM_BLOCK_SIZE==0) ? (size+sizeof(Fragment))/
 138              		.loc 1 34 5
 139              		.loc 1 34 36 is_stmt 0
 140 00d0 93850502 		addi	a1,a1,32
 141              	.LVL7:
 142              		.loc 1 34 54
 143 00d4 93F7F503 		andi	a5,a1,63
 144              		.loc 1 34 74
 145 00d8 63920702 		bnez	a5,.L13
 146              		.loc 1 34 74 discriminator 1
 147 00dc 13D76500 		srli	a4,a1,6
 148              	.L14:
 149              	.LVL8:
  35:src/MemoryAllocator.cpp **** 
  36:src/MemoryAllocator.cpp ****     for (Fragment *fragment=head; fragment; fragment=fragment->next) {
 150              		.loc 1 36 5 is_stmt 1 discriminator 4
 151              	.LBB3:
 152              		.loc 1 36 20 is_stmt 0 discriminator 4
 153 00e0 83340500 		ld	s1,0(a0)
 154              	.LVL9:
 155 00e4 6F004003 		j	.L20
 156              	.LVL10:
 157              	.L22:
 158              	.LBE3:
  30:src/MemoryAllocator.cpp ****         __putc('!');
 159              		.loc 1 30 9 is_stmt 1
  30:src/MemoryAllocator.cpp ****         __putc('!');
 160              		.loc 1 30 15 is_stmt 0
 161 00e8 13051002 		li	a0,33
 162              	.LVL11:
 163 00ec 97000000 		call	__putc
 163      E7800000 
 164              	.LVL12:
  31:src/MemoryAllocator.cpp ****     }
 165              		.loc 1 31 9 is_stmt 1
  31:src/MemoryAllocator.cpp ****     }
 166              		.loc 1 31 16 is_stmt 0
 167 00f4 93040000 		li	s1,0
 168 00f8 6F00400A 		j	.L10
 169              	.LVL13:
 170              	.L13:
  34:src/MemoryAllocator.cpp **** 
 171              		.loc 1 34 140 discriminator 2
 172 00fc 13D76500 		srli	a4,a1,6
  34:src/MemoryAllocator.cpp **** 
 173              		.loc 1 34 74 discriminator 2
GAS LISTING /tmp/ccIZN2OA.s 			page 5


 174 0100 13071700 		addi	a4,a4,1
 175 0104 6FF0DFFD 		j	.L14
 176              	.LVL14:
 177              	.L17:
 178              	.LBB13:
 179              	.LBB4:
 180              	.LBB5:
  37:src/MemoryAllocator.cpp ****         if (fragment->free) {
  38:src/MemoryAllocator.cpp ****             if (fragment->numOfBlocks==numOfBlocksNeeded || fragment->numOfBlocks==numOfBlocksNeede
  39:src/MemoryAllocator.cpp ****                 fragment->free=0;
 181              		.loc 1 39 17 is_stmt 1
 182              		.loc 1 39 31 is_stmt 0
 183 0108 238C0400 		sb	zero,24(s1)
  40:src/MemoryAllocator.cpp ****                 return (void*)((size_t)fragment+sizeof(Fragment));
 184              		.loc 1 40 17 is_stmt 1
 185              		.loc 1 40 48 is_stmt 0
 186 010c 93840402 		addi	s1,s1,32
 187              	.LVL15:
 188              		.loc 1 40 65
 189 0110 6F00C008 		j	.L10
 190              	.LVL16:
 191              	.L16:
 192              	.LBE5:
 193              	.LBE4:
  36:src/MemoryAllocator.cpp ****         if (fragment->free) {
 194              		.loc 1 36 5 is_stmt 1 discriminator 2
  36:src/MemoryAllocator.cpp ****         if (fragment->free) {
 195              		.loc 1 36 53 is_stmt 0 discriminator 2
 196 0114 83B48400 		ld	s1,8(s1)
 197              	.LVL17:
 198              	.L20:
  36:src/MemoryAllocator.cpp ****         if (fragment->free) {
 199              		.loc 1 36 35 is_stmt 1 discriminator 1
 200 0118 638C0406 		beqz	s1,.L15
 201              	.LBE13:
  37:src/MemoryAllocator.cpp ****         if (fragment->free) {
 202              		.loc 1 37 9
 203              	.LBB14:
 204              	.LBB10:
  37:src/MemoryAllocator.cpp ****         if (fragment->free) {
 205              		.loc 1 37 23 is_stmt 0
 206 011c 83C78401 		lbu	a5,24(s1)
  37:src/MemoryAllocator.cpp ****         if (fragment->free) {
 207              		.loc 1 37 9
 208 0120 E38A07FE 		beqz	a5,.L16
 209              	.LBE10:
 210              	.LBE14:
  38:src/MemoryAllocator.cpp ****                 fragment->free=0;
 211              		.loc 1 38 13 is_stmt 1
 212              	.LBB15:
 213              	.LBB11:
 214              	.LBB8:
  38:src/MemoryAllocator.cpp ****                 fragment->free=0;
 215              		.loc 1 38 27 is_stmt 0
 216 0124 83B70400 		ld	a5,0(s1)
  38:src/MemoryAllocator.cpp ****                 fragment->free=0;
 217              		.loc 1 38 13
GAS LISTING /tmp/ccIZN2OA.s 			page 6


 218 0128 E380E7FE 		beq	a5,a4,.L17
  38:src/MemoryAllocator.cpp ****                 fragment->free=0;
 219              		.loc 1 38 101 discriminator 1
 220 012c 93061700 		addi	a3,a4,1
  38:src/MemoryAllocator.cpp ****                 fragment->free=0;
 221              		.loc 1 38 58 discriminator 1
 222 0130 E38CD7FC 		beq	a5,a3,.L17
 223              	.LBE8:
 224              	.LBE11:
 225              	.LBE15:
  41:src/MemoryAllocator.cpp ****             }
  42:src/MemoryAllocator.cpp ****             else if (fragment->numOfBlocks>numOfBlocksNeeded+1) {
 226              		.loc 1 42 18 is_stmt 1
 227              	.LBB16:
 228              	.LBB12:
 229              	.LBB9:
 230              	.LBB6:
 231 0134 E3F0F6FE 		bleu	a5,a3,.L16
 232              	.LBB7:
  43:src/MemoryAllocator.cpp ****                 //how much memory was left int the fragment
  44:src/MemoryAllocator.cpp ****                 size_t freeSize=fragment->numOfBlocks-numOfBlocksNeeded;
 233              		.loc 1 44 17
 234              		.loc 1 44 24 is_stmt 0
 235 0138 B387E740 		sub	a5,a5,a4
 236              	.LVL18:
  45:src/MemoryAllocator.cpp **** 
  46:src/MemoryAllocator.cpp ****                 //allocated block
  47:src/MemoryAllocator.cpp ****                 fragment->free=0;
 237              		.loc 1 47 17 is_stmt 1
 238              		.loc 1 47 31 is_stmt 0
 239 013c 238C0400 		sb	zero,24(s1)
  48:src/MemoryAllocator.cpp ****                 fragment->numOfBlocks=numOfBlocksNeeded;
 240              		.loc 1 48 17 is_stmt 1
 241              		.loc 1 48 38 is_stmt 0
 242 0140 23B0E400 		sd	a4,0(s1)
  49:src/MemoryAllocator.cpp ****                 Fragment* tmp=fragment->next;
 243              		.loc 1 49 17 is_stmt 1
 244              		.loc 1 49 27 is_stmt 0
 245 0144 83B68400 		ld	a3,8(s1)
 246              	.LVL19:
  50:src/MemoryAllocator.cpp **** 
  51:src/MemoryAllocator.cpp ****                 //sad je okej
  52:src/MemoryAllocator.cpp **** 
  53:src/MemoryAllocator.cpp ****                 //new free fragment
  54:src/MemoryAllocator.cpp ****                 fragment->next=(Fragment*)((size_t)fragment+numOfBlocksNeeded*MEM_BLOCK_SIZE);
 247              		.loc 1 54 17 is_stmt 1
 248              		.loc 1 54 78 is_stmt 0
 249 0148 13176700 		slli	a4,a4,6
 250              	.LVL20:
 251              		.loc 1 54 60
 252 014c 13860400 		mv	a2,s1
 253 0150 33079700 		add	a4,a4,s1
 254              		.loc 1 54 31
 255 0154 23B4E400 		sd	a4,8(s1)
  55:src/MemoryAllocator.cpp ****                 fragment->next->free=1;
 256              		.loc 1 55 17 is_stmt 1
 257              		.loc 1 55 37 is_stmt 0
GAS LISTING /tmp/ccIZN2OA.s 			page 7


 258 0158 93051000 		li	a1,1
 259 015c 230CB700 		sb	a1,24(a4)
 260              	.LVL21:
  56:src/MemoryAllocator.cpp ****                 fragment->next->prev=fragment;
 261              		.loc 1 56 17 is_stmt 1
 262              		.loc 1 56 27 is_stmt 0
 263 0160 03B78400 		ld	a4,8(s1)
 264              		.loc 1 56 37
 265 0164 23389700 		sd	s1,16(a4)
  57:src/MemoryAllocator.cpp ****                 fragment->next->numOfBlocks=freeSize;
 266              		.loc 1 57 17 is_stmt 1
 267              		.loc 1 57 27 is_stmt 0
 268 0168 03B78400 		ld	a4,8(s1)
 269              		.loc 1 57 44
 270 016c 2330F700 		sd	a5,0(a4)
  58:src/MemoryAllocator.cpp ****                 fragment->next->next=tmp;
 271              		.loc 1 58 17 is_stmt 1
 272              		.loc 1 58 27 is_stmt 0
 273 0170 83B78400 		ld	a5,8(s1)
 274              	.LVL22:
 275              		.loc 1 58 37
 276 0174 23B4D700 		sd	a3,8(a5)
 277              	.LVL23:
  59:src/MemoryAllocator.cpp ****                 if(tmp){
 278              		.loc 1 59 17 is_stmt 1
 279 0178 63880600 		beqz	a3,.L19
  60:src/MemoryAllocator.cpp ****                     fragment->next->next->prev=fragment->next;
 280              		.loc 1 60 21
 281              		.loc 1 60 31 is_stmt 0
 282 017c 83B78400 		ld	a5,8(s1)
 283              		.loc 1 60 37
 284 0180 03B78700 		ld	a4,8(a5)
 285              		.loc 1 60 47
 286 0184 2338F700 		sd	a5,16(a4)
 287              	.L19:
  61:src/MemoryAllocator.cpp ****                 }
  62:src/MemoryAllocator.cpp ****                 return (void*)((size_t)fragment+sizeof(Fragment));
 288              		.loc 1 62 17 is_stmt 1
 289              		.loc 1 62 48 is_stmt 0
 290 0188 93040602 		addi	s1,a2,32
 291              	.LVL24:
 292              		.loc 1 62 65
 293 018c 6F000001 		j	.L10
 294              	.LVL25:
 295              	.L15:
 296              	.LBE7:
 297              	.LBE6:
 298              	.LBE9:
 299              	.LBE12:
 300              	.LBE16:
  63:src/MemoryAllocator.cpp ****             }
  64:src/MemoryAllocator.cpp ****         }
  65:src/MemoryAllocator.cpp ****     }
  66:src/MemoryAllocator.cpp ****     __putc('F');
 301              		.loc 1 66 5 is_stmt 1
 302              		.loc 1 66 11 is_stmt 0
 303 0190 13056004 		li	a0,70
GAS LISTING /tmp/ccIZN2OA.s 			page 8


 304              	.LVL26:
 305 0194 97000000 		call	__putc
 305      E7800000 
 306              	.LVL27:
  67:src/MemoryAllocator.cpp ****     return nullptr;
 307              		.loc 1 67 5 is_stmt 1
 308              	.L10:
  68:src/MemoryAllocator.cpp **** }
 309              		.loc 1 68 1 is_stmt 0
 310 019c 13850400 		mv	a0,s1
 311 01a0 83308101 		ld	ra,24(sp)
 312              		.cfi_restore 1
 313 01a4 03340101 		ld	s0,16(sp)
 314              		.cfi_restore 8
 315              		.cfi_def_cfa 2, 32
 316 01a8 83348100 		ld	s1,8(sp)
 317              		.cfi_restore 9
 318 01ac 13010102 		addi	sp,sp,32
 319              		.cfi_def_cfa_offset 0
 320 01b0 67800000 		jr	ra
 321              		.cfi_endproc
 322              	.LFE5:
 324              		.align	2
 325              		.globl	_ZN15MemoryAllocator8memAllocEm
 327              	_ZN15MemoryAllocator8memAllocEm:
 328              	.LFB4:
  21:src/MemoryAllocator.cpp ****     return MemoryAllocator::getInstance().firstFitAlloc(size);
 329              		.loc 1 21 46 is_stmt 1
 330              		.cfi_startproc
 331              	.LVL28:
 332 01b4 130101FE 		addi	sp,sp,-32
 333              		.cfi_def_cfa_offset 32
 334 01b8 233C1100 		sd	ra,24(sp)
 335 01bc 23388100 		sd	s0,16(sp)
 336 01c0 23349100 		sd	s1,8(sp)
 337              		.cfi_offset 1, -8
 338              		.cfi_offset 8, -16
 339              		.cfi_offset 9, -24
 340 01c4 13040102 		addi	s0,sp,32
 341              		.cfi_def_cfa 8, 0
 342 01c8 93840500 		mv	s1,a1
  22:src/MemoryAllocator.cpp ****     //return MemoryAllocator::getInstance().bestFitAlloc();
 343              		.loc 1 22 5
  22:src/MemoryAllocator.cpp ****     //return MemoryAllocator::getInstance().bestFitAlloc();
 344              		.loc 1 22 41 is_stmt 0
 345 01cc 97000000 		call	_ZN15MemoryAllocator11getInstanceEv
 345      E7800000 
 346              	.LVL29:
  22:src/MemoryAllocator.cpp ****     //return MemoryAllocator::getInstance().bestFitAlloc();
 347              		.loc 1 22 56
 348 01d4 93850400 		mv	a1,s1
 349 01d8 97000000 		call	_ZN15MemoryAllocator13firstFitAllocEm
 349      E7800000 
 350              	.LVL30:
  24:src/MemoryAllocator.cpp **** 
 351              		.loc 1 24 1
 352 01e0 83308101 		ld	ra,24(sp)
GAS LISTING /tmp/ccIZN2OA.s 			page 9


 353              		.cfi_restore 1
 354 01e4 03340101 		ld	s0,16(sp)
 355              		.cfi_restore 8
 356              		.cfi_def_cfa 2, 32
 357 01e8 83348100 		ld	s1,8(sp)
 358              		.cfi_restore 9
 359              	.LVL31:
 360 01ec 13010102 		addi	sp,sp,32
 361              		.cfi_def_cfa_offset 0
 362 01f0 67800000 		jr	ra
 363              		.cfi_endproc
 364              	.LFE4:
 366              		.align	2
 367              		.globl	_ZN15MemoryAllocator9mergePrevEP8Fragment
 369              	_ZN15MemoryAllocator9mergePrevEP8Fragment:
 370              	.LFB7:
  69:src/MemoryAllocator.cpp **** 
  70:src/MemoryAllocator.cpp **** int MemoryAllocator::free(void *fragment) {
  71:src/MemoryAllocator.cpp ****     for (Fragment* curr=head; curr; curr=curr->next) {
  72:src/MemoryAllocator.cpp ****         if ((size_t)curr+sizeof(Fragment)==(size_t)fragment) {
  73:src/MemoryAllocator.cpp ****             if (curr->free) {
  74:src/MemoryAllocator.cpp ****                 __putc('!');
  75:src/MemoryAllocator.cpp ****                 return -1;
  76:src/MemoryAllocator.cpp ****             }
  77:src/MemoryAllocator.cpp ****             else {
  78:src/MemoryAllocator.cpp ****                 curr->free=1;
  79:src/MemoryAllocator.cpp ****                 mergeNext(curr);
  80:src/MemoryAllocator.cpp ****                 mergePrev(curr);
  81:src/MemoryAllocator.cpp ****                 return 0;
  82:src/MemoryAllocator.cpp ****             }
  83:src/MemoryAllocator.cpp ****         }
  84:src/MemoryAllocator.cpp ****     }
  85:src/MemoryAllocator.cpp ****     // is should return the code of the error but I currently dont know what is the code and there 
  86:src/MemoryAllocator.cpp ****     return -1;
  87:src/MemoryAllocator.cpp **** }
  88:src/MemoryAllocator.cpp **** 
  89:src/MemoryAllocator.cpp **** void MemoryAllocator::mergePrev(Fragment *fragment) {
 371              		.loc 1 89 53 is_stmt 1
 372              		.cfi_startproc
 373              	.LVL32:
 374 01f4 130101FF 		addi	sp,sp,-16
 375              		.cfi_def_cfa_offset 16
 376 01f8 23348100 		sd	s0,8(sp)
 377              		.cfi_offset 8, -8
 378 01fc 13040101 		addi	s0,sp,16
 379              		.cfi_def_cfa 8, 0
  90:src/MemoryAllocator.cpp ****     if (fragment->prev && fragment->prev->free) {
 380              		.loc 1 90 5
 381              		.loc 1 90 19 is_stmt 0
 382 0200 83B70501 		ld	a5,16(a1)
 383              		.loc 1 90 5
 384 0204 638C0702 		beqz	a5,.L25
 385              		.loc 1 90 43 discriminator 1
 386 0208 03C78701 		lbu	a4,24(a5)
 387              		.loc 1 90 24 discriminator 1
 388 020c 63080702 		beqz	a4,.L25
  91:src/MemoryAllocator.cpp ****         fragment->prev->numOfBlocks+=fragment->numOfBlocks;
GAS LISTING /tmp/ccIZN2OA.s 			page 10


 389              		.loc 1 91 9 is_stmt 1
 390              		.loc 1 91 48 is_stmt 0
 391 0210 83B60500 		ld	a3,0(a1)
 392              		.loc 1 91 36
 393 0214 03B70700 		ld	a4,0(a5)
 394 0218 3307D700 		add	a4,a4,a3
 395 021c 23B0E700 		sd	a4,0(a5)
  92:src/MemoryAllocator.cpp ****         fragment->prev->next=fragment->next;
 396              		.loc 1 92 9 is_stmt 1
 397              		.loc 1 92 19 is_stmt 0
 398 0220 83B70501 		ld	a5,16(a1)
 399              		.loc 1 92 40
 400 0224 03B78500 		ld	a4,8(a1)
 401              		.loc 1 92 29
 402 0228 23B4E700 		sd	a4,8(a5)
  93:src/MemoryAllocator.cpp ****         if(fragment->prev->next){
 403              		.loc 1 93 9 is_stmt 1
 404              		.loc 1 93 22 is_stmt 0
 405 022c 03B70501 		ld	a4,16(a1)
 406              		.loc 1 93 28
 407 0230 83378700 		ld	a5,8(a4)
 408              		.loc 1 93 9
 409 0234 63840700 		beqz	a5,.L25
  94:src/MemoryAllocator.cpp ****             fragment->prev->next->prev=fragment->prev;
 410              		.loc 1 94 13 is_stmt 1
 411              		.loc 1 94 39 is_stmt 0
 412 0238 23B8E700 		sd	a4,16(a5)
 413              	.L25:
  95:src/MemoryAllocator.cpp ****         }
  96:src/MemoryAllocator.cpp ****     }
  97:src/MemoryAllocator.cpp **** }
 414              		.loc 1 97 1
 415 023c 03348100 		ld	s0,8(sp)
 416              		.cfi_restore 8
 417              		.cfi_def_cfa 2, 16
 418 0240 13010101 		addi	sp,sp,16
 419              		.cfi_def_cfa_offset 0
 420 0244 67800000 		jr	ra
 421              		.cfi_endproc
 422              	.LFE7:
 424              		.align	2
 425              		.globl	_ZN15MemoryAllocator9mergeNextEP8Fragment
 427              	_ZN15MemoryAllocator9mergeNextEP8Fragment:
 428              	.LFB8:
  98:src/MemoryAllocator.cpp **** 
  99:src/MemoryAllocator.cpp **** void MemoryAllocator::mergeNext(Fragment *fragment) {
 429              		.loc 1 99 53 is_stmt 1
 430              		.cfi_startproc
 431              	.LVL33:
 432 0248 130101FF 		addi	sp,sp,-16
 433              		.cfi_def_cfa_offset 16
 434 024c 23348100 		sd	s0,8(sp)
 435              		.cfi_offset 8, -8
 436 0250 13040101 		addi	s0,sp,16
 437              		.cfi_def_cfa 8, 0
 100:src/MemoryAllocator.cpp ****     if (fragment->next && fragment->next->free) {
 438              		.loc 1 100 5
GAS LISTING /tmp/ccIZN2OA.s 			page 11


 439              		.loc 1 100 19 is_stmt 0
 440 0254 83B78500 		ld	a5,8(a1)
 441              		.loc 1 100 5
 442 0258 63860702 		beqz	a5,.L28
 443              		.loc 1 100 43 discriminator 1
 444 025c 03C78701 		lbu	a4,24(a5)
 445              		.loc 1 100 24 discriminator 1
 446 0260 63020702 		beqz	a4,.L28
 101:src/MemoryAllocator.cpp ****         fragment->numOfBlocks+=fragment->next->numOfBlocks;
 447              		.loc 1 101 9 is_stmt 1
 448              		.loc 1 101 48 is_stmt 0
 449 0264 83B60700 		ld	a3,0(a5)
 450              		.loc 1 101 30
 451 0268 03B70500 		ld	a4,0(a1)
 452 026c 3307D700 		add	a4,a4,a3
 453 0270 23B0E500 		sd	a4,0(a1)
 102:src/MemoryAllocator.cpp ****         fragment->next=fragment->next->next;
 454              		.loc 1 102 9 is_stmt 1
 455              		.loc 1 102 40 is_stmt 0
 456 0274 83B78700 		ld	a5,8(a5)
 457              		.loc 1 102 23
 458 0278 23B4F500 		sd	a5,8(a1)
 103:src/MemoryAllocator.cpp ****         if(fragment->next){
 459              		.loc 1 103 9 is_stmt 1
 460 027c 63840700 		beqz	a5,.L28
 104:src/MemoryAllocator.cpp ****             fragment->next->prev=fragment;
 461              		.loc 1 104 13
 462              		.loc 1 104 33 is_stmt 0
 463 0280 23B8B700 		sd	a1,16(a5)
 464              	.L28:
 105:src/MemoryAllocator.cpp ****         }
 106:src/MemoryAllocator.cpp ****     }
 107:src/MemoryAllocator.cpp **** }
 465              		.loc 1 107 1
 466 0284 03348100 		ld	s0,8(sp)
 467              		.cfi_restore 8
 468              		.cfi_def_cfa 2, 16
 469 0288 13010101 		addi	sp,sp,16
 470              		.cfi_def_cfa_offset 0
 471 028c 67800000 		jr	ra
 472              		.cfi_endproc
 473              	.LFE8:
 475              		.align	2
 476              		.globl	_ZN15MemoryAllocator4freeEPv
 478              	_ZN15MemoryAllocator4freeEPv:
 479              	.LFB6:
  70:src/MemoryAllocator.cpp ****     for (Fragment* curr=head; curr; curr=curr->next) {
 480              		.loc 1 70 43 is_stmt 1
 481              		.cfi_startproc
 482              	.LVL34:
 483 0290 130101FE 		addi	sp,sp,-32
 484              		.cfi_def_cfa_offset 32
 485 0294 233C1100 		sd	ra,24(sp)
 486 0298 23388100 		sd	s0,16(sp)
 487 029c 23349100 		sd	s1,8(sp)
 488 02a0 23302101 		sd	s2,0(sp)
 489              		.cfi_offset 1, -8
GAS LISTING /tmp/ccIZN2OA.s 			page 12


 490              		.cfi_offset 8, -16
 491              		.cfi_offset 9, -24
 492              		.cfi_offset 18, -32
 493 02a4 13040102 		addi	s0,sp,32
 494              		.cfi_def_cfa 8, 0
 495 02a8 13090500 		mv	s2,a0
  71:src/MemoryAllocator.cpp ****         if ((size_t)curr+sizeof(Fragment)==(size_t)fragment) {
 496              		.loc 1 71 5
 497              	.LBB17:
  71:src/MemoryAllocator.cpp ****         if ((size_t)curr+sizeof(Fragment)==(size_t)fragment) {
 498              		.loc 1 71 20 is_stmt 0
 499 02ac 83340500 		ld	s1,0(a0)
 500              	.LVL35:
 501              	.L35:
  71:src/MemoryAllocator.cpp ****         if ((size_t)curr+sizeof(Fragment)==(size_t)fragment) {
 502              		.loc 1 71 31 is_stmt 1 discriminator 1
 503 02b0 63800406 		beqz	s1,.L36
  72:src/MemoryAllocator.cpp ****             if (curr->free) {
 504              		.loc 1 72 9
  72:src/MemoryAllocator.cpp ****             if (curr->free) {
 505              		.loc 1 72 25 is_stmt 0
 506 02b4 93870402 		addi	a5,s1,32
  72:src/MemoryAllocator.cpp ****             if (curr->free) {
 507              		.loc 1 72 9
 508 02b8 6386B700 		beq	a5,a1,.L38
  71:src/MemoryAllocator.cpp ****         if ((size_t)curr+sizeof(Fragment)==(size_t)fragment) {
 509              		.loc 1 71 5 is_stmt 1 discriminator 2
  71:src/MemoryAllocator.cpp ****         if ((size_t)curr+sizeof(Fragment)==(size_t)fragment) {
 510              		.loc 1 71 41 is_stmt 0 discriminator 2
 511 02bc 83B48400 		ld	s1,8(s1)
 512              	.LVL36:
  71:src/MemoryAllocator.cpp ****         if ((size_t)curr+sizeof(Fragment)==(size_t)fragment) {
 513              		.loc 1 71 5 discriminator 2
 514 02c0 6FF01FFF 		j	.L35
 515              	.L38:
  73:src/MemoryAllocator.cpp ****                 __putc('!');
 516              		.loc 1 73 13 is_stmt 1
  73:src/MemoryAllocator.cpp ****                 __putc('!');
 517              		.loc 1 73 23 is_stmt 0
 518 02c4 83C78401 		lbu	a5,24(s1)
  73:src/MemoryAllocator.cpp ****                 __putc('!');
 519              		.loc 1 73 13
 520 02c8 639A0702 		bnez	a5,.L39
  78:src/MemoryAllocator.cpp ****                 mergeNext(curr);
 521              		.loc 1 78 17 is_stmt 1
  78:src/MemoryAllocator.cpp ****                 mergeNext(curr);
 522              		.loc 1 78 27 is_stmt 0
 523 02cc 93071000 		li	a5,1
 524 02d0 238CF400 		sb	a5,24(s1)
  79:src/MemoryAllocator.cpp ****                 mergePrev(curr);
 525              		.loc 1 79 17 is_stmt 1
  79:src/MemoryAllocator.cpp ****                 mergePrev(curr);
 526              		.loc 1 79 26 is_stmt 0
 527 02d4 93850400 		mv	a1,s1
 528              	.LVL37:
 529 02d8 13050900 		mv	a0,s2
 530              	.LVL38:
GAS LISTING /tmp/ccIZN2OA.s 			page 13


 531 02dc 97000000 		call	_ZN15MemoryAllocator9mergeNextEP8Fragment
 531      E7800000 
 532              	.LVL39:
  80:src/MemoryAllocator.cpp ****                 return 0;
 533              		.loc 1 80 17 is_stmt 1
  80:src/MemoryAllocator.cpp ****                 return 0;
 534              		.loc 1 80 26 is_stmt 0
 535 02e4 93850400 		mv	a1,s1
 536 02e8 13050900 		mv	a0,s2
 537 02ec 97000000 		call	_ZN15MemoryAllocator9mergePrevEP8Fragment
 537      E7800000 
 538              	.LVL40:
  81:src/MemoryAllocator.cpp ****             }
 539              		.loc 1 81 17 is_stmt 1
  81:src/MemoryAllocator.cpp ****             }
 540              		.loc 1 81 24 is_stmt 0
 541 02f4 13050000 		li	a0,0
 542 02f8 6F00C001 		j	.L32
 543              	.LVL41:
 544              	.L39:
  74:src/MemoryAllocator.cpp ****                 return -1;
 545              		.loc 1 74 17 is_stmt 1
  74:src/MemoryAllocator.cpp ****                 return -1;
 546              		.loc 1 74 23 is_stmt 0
 547 02fc 13051002 		li	a0,33
 548              	.LVL42:
 549 0300 97000000 		call	__putc
 549      E7800000 
 550              	.LVL43:
  75:src/MemoryAllocator.cpp ****             }
 551              		.loc 1 75 17 is_stmt 1
  75:src/MemoryAllocator.cpp ****             }
 552              		.loc 1 75 25 is_stmt 0
 553 0308 1305F0FF 		li	a0,-1
 554 030c 6F008000 		j	.L32
 555              	.LVL44:
 556              	.L36:
 557              	.LBE17:
  86:src/MemoryAllocator.cpp **** }
 558              		.loc 1 86 13
 559 0310 1305F0FF 		li	a0,-1
 560              	.LVL45:
 561              	.L32:
  87:src/MemoryAllocator.cpp **** 
 562              		.loc 1 87 1
 563 0314 83308101 		ld	ra,24(sp)
 564              		.cfi_restore 1
 565 0318 03340101 		ld	s0,16(sp)
 566              		.cfi_restore 8
 567              		.cfi_def_cfa 2, 32
 568 031c 83348100 		ld	s1,8(sp)
 569              		.cfi_restore 9
 570              	.LVL46:
 571 0320 03390100 		ld	s2,0(sp)
 572              		.cfi_restore 18
 573              	.LVL47:
 574 0324 13010102 		addi	sp,sp,32
GAS LISTING /tmp/ccIZN2OA.s 			page 14


 575              		.cfi_def_cfa_offset 0
 576 0328 67800000 		jr	ra
 577              		.cfi_endproc
 578              	.LFE6:
 580              		.section	.sbss,"aw",@nobits
 581              		.align	3
 584              	_ZGVZN15MemoryAllocator11getInstanceEvE8instance:
 585 0000 00000000 		.zero	8
 585      00000000 
 588              	_ZZN15MemoryAllocator11getInstanceEvE8instance:
 589 0008 00000000 		.zero	8
 589      00000000 
 590              		.text
 591              	.Letext0:
 592              		.file 2 "src/../h/../lib/hw.h"
 593              		.file 3 "src/../h/MemoryAllocator.hpp"
 594              		.file 4 "src/../lib/console.h"
GAS LISTING /tmp/ccIZN2OA.s 			page 15


DEFINED SYMBOLS
                            *ABS*:0000000000000000 MemoryAllocator.cpp
     /tmp/ccIZN2OA.s:12     .text:0000000000000000 _ZN15MemoryAllocatorC2Ev
     /tmp/ccIZN2OA.s:16     .text:0000000000000000 .L0 
     /tmp/ccIZN2OA.s:18     .text:0000000000000000 .L0 
     /tmp/ccIZN2OA.s:19     .text:0000000000000004 .L0 
     /tmp/ccIZN2OA.s:21     .text:0000000000000008 .L0 
     /tmp/ccIZN2OA.s:23     .text:000000000000000c .L0 
     /tmp/ccIZN2OA.s:26     .text:000000000000000c .L0 
     /tmp/ccIZN2OA.s:27     .text:000000000000000c .L0 
     /tmp/ccIZN2OA.s:30     .text:0000000000000018 .L0 
     /tmp/ccIZN2OA.s:33     .text:000000000000001c .L0 
     /tmp/ccIZN2OA.s:34     .text:000000000000001c .L0 
     /tmp/ccIZN2OA.s:36     .text:0000000000000020 .L0 
     /tmp/ccIZN2OA.s:37     .text:0000000000000020 .L0 
     /tmp/ccIZN2OA.s:40     .text:000000000000002c .L0 
     /tmp/ccIZN2OA.s:43     .text:0000000000000030 .L0 
     /tmp/ccIZN2OA.s:44     .text:0000000000000030 .L0 
     /tmp/ccIZN2OA.s:46     .text:0000000000000034 .L0 
     /tmp/ccIZN2OA.s:49     .text:0000000000000038 .L0 
     /tmp/ccIZN2OA.s:51     .text:000000000000003c .L0 
     /tmp/ccIZN2OA.s:53     .text:0000000000000040 .L0 
     /tmp/ccIZN2OA.s:55     .text:0000000000000044 .L0 
     /tmp/ccIZN2OA.s:57     .text:0000000000000048 .L0 
     /tmp/ccIZN2OA.s:62     .text:0000000000000050 .L0 
     /tmp/ccIZN2OA.s:63     .text:0000000000000054 .L0 
     /tmp/ccIZN2OA.s:64     .text:0000000000000054 .L0 
     /tmp/ccIZN2OA.s:66     .text:0000000000000058 .L0 
     /tmp/ccIZN2OA.s:68     .text:000000000000005c .L0 
     /tmp/ccIZN2OA.s:12     .text:0000000000000000 _ZN15MemoryAllocatorC1Ev
     /tmp/ccIZN2OA.s:76     .text:000000000000005c _ZN15MemoryAllocator11getInstanceEv
     /tmp/ccIZN2OA.s:79     .text:000000000000005c .L0 
     /tmp/ccIZN2OA.s:80     .text:000000000000005c .L0 
     /tmp/ccIZN2OA.s:81     .text:000000000000005c .L0 
     /tmp/ccIZN2OA.s:584    .sbss:0000000000000000 _ZGVZN15MemoryAllocator11getInstanceEvE8instance
     /tmp/ccIZN2OA.s:82     .text:000000000000005c .L0 
     /tmp/ccIZN2OA.s:85     .text:0000000000000068 .L0 
     /tmp/ccIZN2OA.s:588    .sbss:0000000000000008 _ZZN15MemoryAllocator11getInstanceEvE8instance
     /tmp/ccIZN2OA.s:86     .text:0000000000000068 .L0 
     /tmp/ccIZN2OA.s:90     .text:0000000000000074 .L0 
     /tmp/ccIZN2OA.s:91     .text:0000000000000078 .L0 
     /tmp/ccIZN2OA.s:94     .text:0000000000000080 .L0 
     /tmp/ccIZN2OA.s:95     .text:0000000000000080 .L0 
     /tmp/ccIZN2OA.s:97     .text:0000000000000084 .L0 
     /tmp/ccIZN2OA.s:99     .text:0000000000000084 .L0 
     /tmp/ccIZN2OA.s:105    .text:00000000000000a0 .L0 
     /tmp/ccIZN2OA.s:106    .text:00000000000000a0 .L0 
     /tmp/ccIZN2OA.s:108    .text:00000000000000ac .L0 
     /tmp/ccIZN2OA.s:110    .text:00000000000000b0 .L0 
     /tmp/ccIZN2OA.s:111    .text:00000000000000b0 .L0 
     /tmp/ccIZN2OA.s:113    .text:00000000000000b4 .L0 
     /tmp/ccIZN2OA.s:115    .text:00000000000000b8 .L0 
     /tmp/ccIZN2OA.s:121    .text:00000000000000b8 _ZN15MemoryAllocator13firstFitAllocEm
     /tmp/ccIZN2OA.s:124    .text:00000000000000b8 .L0 
     /tmp/ccIZN2OA.s:126    .text:00000000000000b8 .L0 
     /tmp/ccIZN2OA.s:127    .text:00000000000000bc .L0 
     /tmp/ccIZN2OA.s:131    .text:00000000000000c8 .L0 
GAS LISTING /tmp/ccIZN2OA.s 			page 16


     /tmp/ccIZN2OA.s:132    .text:00000000000000c8 .L0 
     /tmp/ccIZN2OA.s:133    .text:00000000000000c8 .L0 
     /tmp/ccIZN2OA.s:135    .text:00000000000000cc .L0 
     /tmp/ccIZN2OA.s:137    .text:00000000000000cc .L0 
     /tmp/ccIZN2OA.s:139    .text:00000000000000d0 .L0 
     /tmp/ccIZN2OA.s:140    .text:00000000000000d0 .L0 
     /tmp/ccIZN2OA.s:143    .text:00000000000000d4 .L0 
     /tmp/ccIZN2OA.s:145    .text:00000000000000d8 .L0 
     /tmp/ccIZN2OA.s:147    .text:00000000000000dc .L0 
     /tmp/ccIZN2OA.s:152    .text:00000000000000e0 .L0 
     /tmp/ccIZN2OA.s:153    .text:00000000000000e0 .L0 
     /tmp/ccIZN2OA.s:160    .text:00000000000000e8 .L0 
     /tmp/ccIZN2OA.s:161    .text:00000000000000e8 .L0 
     /tmp/ccIZN2OA.s:166    .text:00000000000000f4 .L0 
     /tmp/ccIZN2OA.s:167    .text:00000000000000f4 .L0 
     /tmp/ccIZN2OA.s:172    .text:00000000000000fc .L0 
     /tmp/ccIZN2OA.s:174    .text:0000000000000100 .L0 
     /tmp/ccIZN2OA.s:182    .text:0000000000000108 .L0 
     /tmp/ccIZN2OA.s:183    .text:0000000000000108 .L0 
     /tmp/ccIZN2OA.s:185    .text:000000000000010c .L0 
     /tmp/ccIZN2OA.s:186    .text:000000000000010c .L0 
     /tmp/ccIZN2OA.s:189    .text:0000000000000110 .L0 
     /tmp/ccIZN2OA.s:195    .text:0000000000000114 .L0 
     /tmp/ccIZN2OA.s:196    .text:0000000000000114 .L0 
     /tmp/ccIZN2OA.s:200    .text:0000000000000118 .L0 
     /tmp/ccIZN2OA.s:205    .text:000000000000011c .L0 
     /tmp/ccIZN2OA.s:206    .text:000000000000011c .L0 
     /tmp/ccIZN2OA.s:208    .text:0000000000000120 .L0 
     /tmp/ccIZN2OA.s:215    .text:0000000000000124 .L0 
     /tmp/ccIZN2OA.s:216    .text:0000000000000124 .L0 
     /tmp/ccIZN2OA.s:218    .text:0000000000000128 .L0 
     /tmp/ccIZN2OA.s:220    .text:000000000000012c .L0 
     /tmp/ccIZN2OA.s:222    .text:0000000000000130 .L0 
     /tmp/ccIZN2OA.s:231    .text:0000000000000134 .L0 
     /tmp/ccIZN2OA.s:234    .text:0000000000000138 .L0 
     /tmp/ccIZN2OA.s:235    .text:0000000000000138 .L0 
     /tmp/ccIZN2OA.s:238    .text:000000000000013c .L0 
     /tmp/ccIZN2OA.s:239    .text:000000000000013c .L0 
     /tmp/ccIZN2OA.s:241    .text:0000000000000140 .L0 
     /tmp/ccIZN2OA.s:242    .text:0000000000000140 .L0 
     /tmp/ccIZN2OA.s:244    .text:0000000000000144 .L0 
     /tmp/ccIZN2OA.s:245    .text:0000000000000144 .L0 
     /tmp/ccIZN2OA.s:248    .text:0000000000000148 .L0 
     /tmp/ccIZN2OA.s:249    .text:0000000000000148 .L0 
     /tmp/ccIZN2OA.s:252    .text:000000000000014c .L0 
     /tmp/ccIZN2OA.s:255    .text:0000000000000154 .L0 
     /tmp/ccIZN2OA.s:257    .text:0000000000000158 .L0 
     /tmp/ccIZN2OA.s:258    .text:0000000000000158 .L0 
     /tmp/ccIZN2OA.s:262    .text:0000000000000160 .L0 
     /tmp/ccIZN2OA.s:263    .text:0000000000000160 .L0 
     /tmp/ccIZN2OA.s:265    .text:0000000000000164 .L0 
     /tmp/ccIZN2OA.s:267    .text:0000000000000168 .L0 
     /tmp/ccIZN2OA.s:268    .text:0000000000000168 .L0 
     /tmp/ccIZN2OA.s:270    .text:000000000000016c .L0 
     /tmp/ccIZN2OA.s:272    .text:0000000000000170 .L0 
     /tmp/ccIZN2OA.s:273    .text:0000000000000170 .L0 
     /tmp/ccIZN2OA.s:276    .text:0000000000000174 .L0 
GAS LISTING /tmp/ccIZN2OA.s 			page 17


     /tmp/ccIZN2OA.s:279    .text:0000000000000178 .L0 
     /tmp/ccIZN2OA.s:281    .text:000000000000017c .L0 
     /tmp/ccIZN2OA.s:282    .text:000000000000017c .L0 
     /tmp/ccIZN2OA.s:284    .text:0000000000000180 .L0 
     /tmp/ccIZN2OA.s:286    .text:0000000000000184 .L0 
     /tmp/ccIZN2OA.s:289    .text:0000000000000188 .L0 
     /tmp/ccIZN2OA.s:290    .text:0000000000000188 .L0 
     /tmp/ccIZN2OA.s:293    .text:000000000000018c .L0 
     /tmp/ccIZN2OA.s:302    .text:0000000000000190 .L0 
     /tmp/ccIZN2OA.s:303    .text:0000000000000190 .L0 
     /tmp/ccIZN2OA.s:309    .text:000000000000019c .L0 
     /tmp/ccIZN2OA.s:310    .text:000000000000019c .L0 
     /tmp/ccIZN2OA.s:312    .text:00000000000001a4 .L0 
     /tmp/ccIZN2OA.s:314    .text:00000000000001a8 .L0 
     /tmp/ccIZN2OA.s:315    .text:00000000000001a8 .L0 
     /tmp/ccIZN2OA.s:317    .text:00000000000001ac .L0 
     /tmp/ccIZN2OA.s:319    .text:00000000000001b0 .L0 
     /tmp/ccIZN2OA.s:321    .text:00000000000001b4 .L0 
     /tmp/ccIZN2OA.s:327    .text:00000000000001b4 _ZN15MemoryAllocator8memAllocEm
     /tmp/ccIZN2OA.s:330    .text:00000000000001b4 .L0 
     /tmp/ccIZN2OA.s:332    .text:00000000000001b4 .L0 
     /tmp/ccIZN2OA.s:333    .text:00000000000001b8 .L0 
     /tmp/ccIZN2OA.s:337    .text:00000000000001c4 .L0 
     /tmp/ccIZN2OA.s:338    .text:00000000000001c4 .L0 
     /tmp/ccIZN2OA.s:339    .text:00000000000001c4 .L0 
     /tmp/ccIZN2OA.s:341    .text:00000000000001c8 .L0 
     /tmp/ccIZN2OA.s:344    .text:00000000000001cc .L0 
     /tmp/ccIZN2OA.s:345    .text:00000000000001cc .L0 
     /tmp/ccIZN2OA.s:348    .text:00000000000001d4 .L0 
     /tmp/ccIZN2OA.s:352    .text:00000000000001e0 .L0 
     /tmp/ccIZN2OA.s:353    .text:00000000000001e4 .L0 
     /tmp/ccIZN2OA.s:355    .text:00000000000001e8 .L0 
     /tmp/ccIZN2OA.s:356    .text:00000000000001e8 .L0 
     /tmp/ccIZN2OA.s:358    .text:00000000000001ec .L0 
     /tmp/ccIZN2OA.s:361    .text:00000000000001f0 .L0 
     /tmp/ccIZN2OA.s:363    .text:00000000000001f4 .L0 
     /tmp/ccIZN2OA.s:369    .text:00000000000001f4 _ZN15MemoryAllocator9mergePrevEP8Fragment
     /tmp/ccIZN2OA.s:372    .text:00000000000001f4 .L0 
     /tmp/ccIZN2OA.s:374    .text:00000000000001f4 .L0 
     /tmp/ccIZN2OA.s:375    .text:00000000000001f8 .L0 
     /tmp/ccIZN2OA.s:377    .text:00000000000001fc .L0 
     /tmp/ccIZN2OA.s:379    .text:0000000000000200 .L0 
     /tmp/ccIZN2OA.s:381    .text:0000000000000200 .L0 
     /tmp/ccIZN2OA.s:382    .text:0000000000000200 .L0 
     /tmp/ccIZN2OA.s:384    .text:0000000000000204 .L0 
     /tmp/ccIZN2OA.s:386    .text:0000000000000208 .L0 
     /tmp/ccIZN2OA.s:388    .text:000000000000020c .L0 
     /tmp/ccIZN2OA.s:390    .text:0000000000000210 .L0 
     /tmp/ccIZN2OA.s:391    .text:0000000000000210 .L0 
     /tmp/ccIZN2OA.s:393    .text:0000000000000214 .L0 
     /tmp/ccIZN2OA.s:397    .text:0000000000000220 .L0 
     /tmp/ccIZN2OA.s:398    .text:0000000000000220 .L0 
     /tmp/ccIZN2OA.s:400    .text:0000000000000224 .L0 
     /tmp/ccIZN2OA.s:402    .text:0000000000000228 .L0 
     /tmp/ccIZN2OA.s:404    .text:000000000000022c .L0 
     /tmp/ccIZN2OA.s:405    .text:000000000000022c .L0 
     /tmp/ccIZN2OA.s:407    .text:0000000000000230 .L0 
GAS LISTING /tmp/ccIZN2OA.s 			page 18


     /tmp/ccIZN2OA.s:409    .text:0000000000000234 .L0 
     /tmp/ccIZN2OA.s:411    .text:0000000000000238 .L0 
     /tmp/ccIZN2OA.s:412    .text:0000000000000238 .L0 
     /tmp/ccIZN2OA.s:415    .text:000000000000023c .L0 
     /tmp/ccIZN2OA.s:416    .text:0000000000000240 .L0 
     /tmp/ccIZN2OA.s:417    .text:0000000000000240 .L0 
     /tmp/ccIZN2OA.s:419    .text:0000000000000244 .L0 
     /tmp/ccIZN2OA.s:421    .text:0000000000000248 .L0 
     /tmp/ccIZN2OA.s:427    .text:0000000000000248 _ZN15MemoryAllocator9mergeNextEP8Fragment
     /tmp/ccIZN2OA.s:430    .text:0000000000000248 .L0 
     /tmp/ccIZN2OA.s:432    .text:0000000000000248 .L0 
     /tmp/ccIZN2OA.s:433    .text:000000000000024c .L0 
     /tmp/ccIZN2OA.s:435    .text:0000000000000250 .L0 
     /tmp/ccIZN2OA.s:437    .text:0000000000000254 .L0 
     /tmp/ccIZN2OA.s:439    .text:0000000000000254 .L0 
     /tmp/ccIZN2OA.s:440    .text:0000000000000254 .L0 
     /tmp/ccIZN2OA.s:442    .text:0000000000000258 .L0 
     /tmp/ccIZN2OA.s:444    .text:000000000000025c .L0 
     /tmp/ccIZN2OA.s:446    .text:0000000000000260 .L0 
     /tmp/ccIZN2OA.s:448    .text:0000000000000264 .L0 
     /tmp/ccIZN2OA.s:449    .text:0000000000000264 .L0 
     /tmp/ccIZN2OA.s:451    .text:0000000000000268 .L0 
     /tmp/ccIZN2OA.s:455    .text:0000000000000274 .L0 
     /tmp/ccIZN2OA.s:456    .text:0000000000000274 .L0 
     /tmp/ccIZN2OA.s:458    .text:0000000000000278 .L0 
     /tmp/ccIZN2OA.s:460    .text:000000000000027c .L0 
     /tmp/ccIZN2OA.s:462    .text:0000000000000280 .L0 
     /tmp/ccIZN2OA.s:463    .text:0000000000000280 .L0 
     /tmp/ccIZN2OA.s:466    .text:0000000000000284 .L0 
     /tmp/ccIZN2OA.s:467    .text:0000000000000288 .L0 
     /tmp/ccIZN2OA.s:468    .text:0000000000000288 .L0 
     /tmp/ccIZN2OA.s:470    .text:000000000000028c .L0 
     /tmp/ccIZN2OA.s:472    .text:0000000000000290 .L0 
     /tmp/ccIZN2OA.s:478    .text:0000000000000290 _ZN15MemoryAllocator4freeEPv
     /tmp/ccIZN2OA.s:481    .text:0000000000000290 .L0 
     /tmp/ccIZN2OA.s:483    .text:0000000000000290 .L0 
     /tmp/ccIZN2OA.s:484    .text:0000000000000294 .L0 
     /tmp/ccIZN2OA.s:489    .text:00000000000002a4 .L0 
     /tmp/ccIZN2OA.s:490    .text:00000000000002a4 .L0 
     /tmp/ccIZN2OA.s:491    .text:00000000000002a4 .L0 
     /tmp/ccIZN2OA.s:492    .text:00000000000002a4 .L0 
     /tmp/ccIZN2OA.s:494    .text:00000000000002a8 .L0 
     /tmp/ccIZN2OA.s:498    .text:00000000000002ac .L0 
     /tmp/ccIZN2OA.s:499    .text:00000000000002ac .L0 
     /tmp/ccIZN2OA.s:503    .text:00000000000002b0 .L0 
     /tmp/ccIZN2OA.s:505    .text:00000000000002b4 .L0 
     /tmp/ccIZN2OA.s:506    .text:00000000000002b4 .L0 
     /tmp/ccIZN2OA.s:508    .text:00000000000002b8 .L0 
     /tmp/ccIZN2OA.s:510    .text:00000000000002bc .L0 
     /tmp/ccIZN2OA.s:511    .text:00000000000002bc .L0 
     /tmp/ccIZN2OA.s:514    .text:00000000000002c0 .L0 
     /tmp/ccIZN2OA.s:517    .text:00000000000002c4 .L0 
     /tmp/ccIZN2OA.s:518    .text:00000000000002c4 .L0 
     /tmp/ccIZN2OA.s:520    .text:00000000000002c8 .L0 
     /tmp/ccIZN2OA.s:522    .text:00000000000002cc .L0 
     /tmp/ccIZN2OA.s:523    .text:00000000000002cc .L0 
     /tmp/ccIZN2OA.s:526    .text:00000000000002d4 .L0 
GAS LISTING /tmp/ccIZN2OA.s 			page 19


     /tmp/ccIZN2OA.s:527    .text:00000000000002d4 .L0 
     /tmp/ccIZN2OA.s:534    .text:00000000000002e4 .L0 
     /tmp/ccIZN2OA.s:535    .text:00000000000002e4 .L0 
     /tmp/ccIZN2OA.s:540    .text:00000000000002f4 .L0 
     /tmp/ccIZN2OA.s:541    .text:00000000000002f4 .L0 
     /tmp/ccIZN2OA.s:546    .text:00000000000002fc .L0 
     /tmp/ccIZN2OA.s:547    .text:00000000000002fc .L0 
     /tmp/ccIZN2OA.s:552    .text:0000000000000308 .L0 
     /tmp/ccIZN2OA.s:553    .text:0000000000000308 .L0 
     /tmp/ccIZN2OA.s:559    .text:0000000000000310 .L0 
     /tmp/ccIZN2OA.s:563    .text:0000000000000314 .L0 
     /tmp/ccIZN2OA.s:564    .text:0000000000000318 .L0 
     /tmp/ccIZN2OA.s:566    .text:000000000000031c .L0 
     /tmp/ccIZN2OA.s:567    .text:000000000000031c .L0 
     /tmp/ccIZN2OA.s:569    .text:0000000000000320 .L0 
     /tmp/ccIZN2OA.s:572    .text:0000000000000324 .L0 
     /tmp/ccIZN2OA.s:575    .text:0000000000000328 .L0 
     /tmp/ccIZN2OA.s:577    .text:000000000000032c .L0 
     /tmp/ccIZN2OA.s:595    .text:000000000000032c .L0 
     /tmp/ccIZN2OA.s:27     .text:000000000000000c .L0 
     /tmp/ccIZN2OA.s:37     .text:0000000000000020 .L0 
     /tmp/ccIZN2OA.s:82     .text:000000000000005c .L0 
     /tmp/ccIZN2OA.s:86     .text:0000000000000068 .L0 
     /tmp/ccIZN2OA.s:99     .text:0000000000000084 .L0 
     /tmp/ccIZN2OA.s:103    .text:0000000000000098 .L0 
     /tmp/ccIZN2OA.s:106    .text:00000000000000a0 .L0 
     /tmp/ccIZN2OA.s:88     .text:0000000000000074 .L9
     /tmp/ccIZN2OA.s:157    .text:00000000000000e8 .L22
     /tmp/ccIZN2OA.s:170    .text:00000000000000fc .L13
     /tmp/ccIZN2OA.s:198    .text:0000000000000118 .L20
     /tmp/ccIZN2OA.s:308    .text:000000000000019c .L10
     /tmp/ccIZN2OA.s:148    .text:00000000000000e0 .L14
     /tmp/ccIZN2OA.s:295    .text:0000000000000190 .L15
     /tmp/ccIZN2OA.s:191    .text:0000000000000114 .L16
     /tmp/ccIZN2OA.s:177    .text:0000000000000108 .L17
     /tmp/ccIZN2OA.s:287    .text:0000000000000188 .L19
     /tmp/ccIZN2OA.s:413    .text:000000000000023c .L25
     /tmp/ccIZN2OA.s:464    .text:0000000000000284 .L28
     /tmp/ccIZN2OA.s:556    .text:0000000000000310 .L36
     /tmp/ccIZN2OA.s:515    .text:00000000000002c4 .L38
     /tmp/ccIZN2OA.s:501    .text:00000000000002b0 .L35
     /tmp/ccIZN2OA.s:544    .text:00000000000002fc .L39
     /tmp/ccIZN2OA.s:561    .text:0000000000000314 .L32
     /tmp/ccIZN2OA.s:1246   .debug_abbrev:0000000000000000 .Ldebug_abbrev0
     /tmp/ccIZN2OA.s:2214   .debug_str:0000000000000071 .LASF44
     /tmp/ccIZN2OA.s:2270   .debug_str:0000000000000308 .LASF45
     /tmp/ccIZN2OA.s:2284   .debug_str:000000000000036a .LASF46
     /tmp/ccIZN2OA.s:8      .text:0000000000000000 .Ltext0
     /tmp/ccIZN2OA.s:591    .text:000000000000032c .Letext0
     /tmp/ccIZN2OA.s:2196   .debug_line:0000000000000000 .Ldebug_line0
     /tmp/ccIZN2OA.s:2258   .debug_str:00000000000002a0 .LASF0
     /tmp/ccIZN2OA.s:2248   .debug_str:000000000000025c .LASF1
     /tmp/ccIZN2OA.s:2240   .debug_str:0000000000000217 .LASF2
     /tmp/ccIZN2OA.s:2290   .debug_str:00000000000003b2 .LASF3
     /tmp/ccIZN2OA.s:2220   .debug_str:000000000000014b .LASF4
     /tmp/ccIZN2OA.s:2246   .debug_str:000000000000024a .LASF5
     /tmp/ccIZN2OA.s:2204   .debug_str:000000000000004d .LASF6
GAS LISTING /tmp/ccIZN2OA.s 			page 20


     /tmp/ccIZN2OA.s:2200   .debug_str:000000000000002a .LASF7
     /tmp/ccIZN2OA.s:2232   .debug_str:00000000000001b6 .LASF8
     /tmp/ccIZN2OA.s:2264   .debug_str:00000000000002d6 .LASF9
     /tmp/ccIZN2OA.s:2216   .debug_str:0000000000000135 .LASF10
     /tmp/ccIZN2OA.s:2304   .debug_str:0000000000000411 .LASF11
     /tmp/ccIZN2OA.s:2234   .debug_str:00000000000001c9 .LASF12
     /tmp/ccIZN2OA.s:2296   .debug_str:00000000000003cd .LASF13
     /tmp/ccIZN2OA.s:2272   .debug_str:0000000000000320 .LASF14
     /tmp/ccIZN2OA.s:2250   .debug_str:000000000000026f .LASF15
     /tmp/ccIZN2OA.s:2226   .debug_str:000000000000018e .LASF16
     /tmp/ccIZN2OA.s:2266   .debug_str:00000000000002e6 .LASF17
     /tmp/ccIZN2OA.s:2230   .debug_str:00000000000001ad .LASF47
     /tmp/ccIZN2OA.s:2294   .debug_str:00000000000003c1 .LASF18
     /tmp/ccIZN2OA.s:2206   .debug_str:0000000000000054 .LASF19
     /tmp/ccIZN2OA.s:2302   .debug_str:000000000000040c .LASF20
     /tmp/ccIZN2OA.s:2274   .debug_str:0000000000000330 .LASF21
     /tmp/ccIZN2OA.s:2202   .debug_str:000000000000003d .LASF32
     /tmp/ccIZN2OA.s:2268   .debug_str:00000000000002fc .LASF48
     /tmp/ccIZN2OA.s:2262   .debug_str:00000000000002b2 .LASF49
     /tmp/ccIZN2OA.s:2292   .debug_str:00000000000003b8 .LASF22
     /tmp/ccIZN2OA.s:2244   .debug_str:000000000000022a .LASF24
     /tmp/ccIZN2OA.s:2286   .debug_str:000000000000037a .LASF23
     /tmp/ccIZN2OA.s:2236   .debug_str:00000000000001d8 .LASF25
     /tmp/ccIZN2OA.s:2224   .debug_str:0000000000000171 .LASF26
     /tmp/ccIZN2OA.s:2278   .debug_str:0000000000000342 .LASF27
     /tmp/ccIZN2OA.s:2300   .debug_str:00000000000003e7 .LASF28
     /tmp/ccIZN2OA.s:2218   .debug_str:0000000000000143 .LASF29
     /tmp/ccIZN2OA.s:2222   .debug_str:0000000000000152 .LASF30
     /tmp/ccIZN2OA.s:2254   .debug_str:0000000000000282 .LASF34
     /tmp/ccIZN2OA.s:2256   .debug_str:000000000000029b .LASF31
     /tmp/ccIZN2OA.s:2298   .debug_str:00000000000003dd .LASF33
     /tmp/ccIZN2OA.s:2198   .debug_str:0000000000000000 .LASF35
     /tmp/ccIZN2OA.s:2212   .debug_str:0000000000000067 .LASF50
     /tmp/ccIZN2OA.s:2288   .debug_str:0000000000000388 .LASF51
     /tmp/ccIZN2OA.s:428    .text:0000000000000248 .LFB8
     /tmp/ccIZN2OA.s:473    .text:0000000000000290 .LFE8
     /tmp/ccIZN2OA.s:2242   .debug_str:0000000000000225 .LASF36
     /tmp/ccIZN2OA.s:2228   .debug_str:00000000000001a4 .LASF37
     /tmp/ccIZN2OA.s:370    .text:00000000000001f4 .LFB7
     /tmp/ccIZN2OA.s:422    .text:0000000000000248 .LFE7
     /tmp/ccIZN2OA.s:479    .text:0000000000000290 .LFB6
     /tmp/ccIZN2OA.s:578    .text:000000000000032c .LFE6
     /tmp/ccIZN2OA.s:1929   .debug_loc:0000000000000000 .LLST10
     /tmp/ccIZN2OA.s:1963   .debug_loc:0000000000000098 .LLST11
     /tmp/ccIZN2OA.s:497    .text:00000000000002ac .LBB17
     /tmp/ccIZN2OA.s:557    .text:0000000000000310 .LBE17
     /tmp/ccIZN2OA.s:2208   .debug_str:0000000000000059 .LASF38
     /tmp/ccIZN2OA.s:1999   .debug_loc:0000000000000123 .LLST12
     /tmp/ccIZN2OA.s:532    .text:00000000000002e4 .LVL39
     /tmp/ccIZN2OA.s:538    .text:00000000000002f4 .LVL40
     /tmp/ccIZN2OA.s:550    .text:0000000000000308 .LVL43
     /tmp/ccIZN2OA.s:122    .text:00000000000000b8 .LFB5
     /tmp/ccIZN2OA.s:322    .text:00000000000001b4 .LFE5
     /tmp/ccIZN2OA.s:2006   .debug_loc:0000000000000146 .LLST2
     /tmp/ccIZN2OA.s:2260   .debug_str:00000000000002ad .LASF39
     /tmp/ccIZN2OA.s:2031   .debug_loc:00000000000001a8 .LLST3
     /tmp/ccIZN2OA.s:2282   .debug_str:0000000000000358 .LASF40
GAS LISTING /tmp/ccIZN2OA.s 			page 21


     /tmp/ccIZN2OA.s:2055   .debug_loc:0000000000000209 .LLST4
     /tmp/ccIZN2OA.s:2182   .debug_ranges:0000000000000000 .Ldebug_ranges0
     /tmp/ccIZN2OA.s:2075   .debug_loc:0000000000000266 .LLST5
     /tmp/ccIZN2OA.s:232    .text:0000000000000138 .LBB7
     /tmp/ccIZN2OA.s:296    .text:0000000000000190 .LBE7
     /tmp/ccIZN2OA.s:2210   .debug_str:000000000000005e .LASF41
     /tmp/ccIZN2OA.s:2104   .debug_loc:00000000000002ea .LLST6
     /tmp/ccIZN2OA.s:2116   .debug_loc:0000000000000321 .LLST7
     /tmp/ccIZN2OA.s:164    .text:00000000000000f4 .LVL12
     /tmp/ccIZN2OA.s:306    .text:000000000000019c .LVL27
     /tmp/ccIZN2OA.s:328    .text:00000000000001b4 .LFB4
     /tmp/ccIZN2OA.s:364    .text:00000000000001f4 .LFE4
     /tmp/ccIZN2OA.s:2123   .debug_loc:0000000000000344 .LLST8
     /tmp/ccIZN2OA.s:2137   .debug_loc:000000000000037d .LLST9
     /tmp/ccIZN2OA.s:346    .text:00000000000001d4 .LVL29
     /tmp/ccIZN2OA.s:350    .text:00000000000001e0 .LVL30
     /tmp/ccIZN2OA.s:2276   .debug_str:0000000000000335 .LASF42
     /tmp/ccIZN2OA.s:2238   .debug_str:00000000000001fe .LASF52
     /tmp/ccIZN2OA.s:13     .text:0000000000000000 .LFB2
     /tmp/ccIZN2OA.s:69     .text:000000000000005c .LFE2
     /tmp/ccIZN2OA.s:24     .text:000000000000000c .LBB2
     /tmp/ccIZN2OA.s:60     .text:0000000000000050 .LBE2
     /tmp/ccIZN2OA.s:2155   .debug_loc:00000000000003c9 .LLST0
     /tmp/ccIZN2OA.s:2162   .debug_loc:00000000000003ec .LLST1
     /tmp/ccIZN2OA.s:77     .text:000000000000005c .LFB0
     /tmp/ccIZN2OA.s:116    .text:00000000000000b8 .LFE0
     /tmp/ccIZN2OA.s:2280   .debug_str:000000000000034f .LASF43
     /tmp/ccIZN2OA.s:101    .text:0000000000000094 .LVL5
     /tmp/ccIZN2OA.s:2252   .debug_str:000000000000027b .LASF53
     /tmp/ccIZN2OA.s:482    .text:0000000000000290 .LVL34
     /tmp/ccIZN2OA.s:530    .text:00000000000002dc .LVL38
     /tmp/ccIZN2OA.s:543    .text:00000000000002fc .LVL41
     /tmp/ccIZN2OA.s:548    .text:0000000000000300 .LVL42
     /tmp/ccIZN2OA.s:555    .text:0000000000000310 .LVL44
     /tmp/ccIZN2OA.s:560    .text:0000000000000314 .LVL45
     /tmp/ccIZN2OA.s:573    .text:0000000000000324 .LVL47
     /tmp/ccIZN2OA.s:528    .text:00000000000002d8 .LVL37
     /tmp/ccIZN2OA.s:500    .text:00000000000002b0 .LVL35
     /tmp/ccIZN2OA.s:570    .text:0000000000000320 .LVL46
     /tmp/ccIZN2OA.s:125    .text:00000000000000b8 .LVL6
     /tmp/ccIZN2OA.s:162    .text:00000000000000ec .LVL11
     /tmp/ccIZN2OA.s:169    .text:00000000000000fc .LVL13
     /tmp/ccIZN2OA.s:304    .text:0000000000000194 .LVL26
     /tmp/ccIZN2OA.s:141    .text:00000000000000d4 .LVL7
     /tmp/ccIZN2OA.s:156    .text:00000000000000e8 .LVL10
     /tmp/ccIZN2OA.s:149    .text:00000000000000e0 .LVL8
     /tmp/ccIZN2OA.s:176    .text:0000000000000108 .LVL14
     /tmp/ccIZN2OA.s:250    .text:000000000000014c .LVL20
     /tmp/ccIZN2OA.s:260    .text:0000000000000160 .LVL21
     /tmp/ccIZN2OA.s:294    .text:0000000000000190 .LVL25
     /tmp/ccIZN2OA.s:154    .text:00000000000000e4 .LVL9
     /tmp/ccIZN2OA.s:187    .text:0000000000000110 .LVL15
     /tmp/ccIZN2OA.s:190    .text:0000000000000114 .LVL16
     /tmp/ccIZN2OA.s:291    .text:000000000000018c .LVL24
     /tmp/ccIZN2OA.s:236    .text:000000000000013c .LVL18
     /tmp/ccIZN2OA.s:274    .text:0000000000000174 .LVL22
     /tmp/ccIZN2OA.s:277    .text:0000000000000178 .LVL23
GAS LISTING /tmp/ccIZN2OA.s 			page 22


     /tmp/ccIZN2OA.s:246    .text:0000000000000148 .LVL19
     /tmp/ccIZN2OA.s:331    .text:00000000000001b4 .LVL28
     /tmp/ccIZN2OA.s:359    .text:00000000000001ec .LVL31
     /tmp/ccIZN2OA.s:31     .text:000000000000001c .LVL1
     /tmp/ccIZN2OA.s:47     .text:0000000000000038 .LVL3
     /tmp/ccIZN2OA.s:41     .text:0000000000000030 .LVL2
     /tmp/ccIZN2OA.s:58     .text:000000000000004c .LVL4
     /tmp/ccIZN2OA.s:596    .debug_info:0000000000000000 .Ldebug_info0
     /tmp/ccIZN2OA.s:151    .text:00000000000000e0 .LBB3
     /tmp/ccIZN2OA.s:158    .text:00000000000000e8 .LBE3
     /tmp/ccIZN2OA.s:178    .text:0000000000000108 .LBB13
     /tmp/ccIZN2OA.s:201    .text:000000000000011c .LBE13
     /tmp/ccIZN2OA.s:203    .text:000000000000011c .LBB14
     /tmp/ccIZN2OA.s:210    .text:0000000000000124 .LBE14
     /tmp/ccIZN2OA.s:212    .text:0000000000000124 .LBB15
     /tmp/ccIZN2OA.s:225    .text:0000000000000134 .LBE15
     /tmp/ccIZN2OA.s:227    .text:0000000000000134 .LBB16
     /tmp/ccIZN2OA.s:300    .text:0000000000000190 .LBE16

UNDEFINED SYMBOLS
HEAP_START_ADDR
HEAP_END_ADDR
__putc
