GAS LISTING /tmp/ccOjd9iB.s 			page 1


   1              		.file	"MemoryAllocator.cpp"
   2              		.option nopic
   3              		.option norelax
   4              		.attribute arch, "rv64i2p0_m2p0_a2p0"
   5              		.attribute unaligned_access, 0
   6              		.attribute stack_align, 16
   7              		.text
   8              	.Ltext0:
   9              		.align	2
  10              		.globl	_ZN15MemoryAllocatorC2Ev
  12              	_ZN15MemoryAllocatorC2Ev:
  13              	.LFB2:
  14              		.file 1 "src/MemoryAllocator.cpp"
   1:src/MemoryAllocator.cpp **** #include  "../h/MemoryAllocator.hpp"
   2:src/MemoryAllocator.cpp **** 
   3:src/MemoryAllocator.cpp **** 
   4:src/MemoryAllocator.cpp **** MemoryAllocator &MemoryAllocator::getInstance() {
   5:src/MemoryAllocator.cpp ****     static MemoryAllocator instance;
   6:src/MemoryAllocator.cpp ****     return instance;
   7:src/MemoryAllocator.cpp **** }
   8:src/MemoryAllocator.cpp **** 
   9:src/MemoryAllocator.cpp **** MemoryAllocator::MemoryAllocator() {
  15              		.loc 1 9 1
  16              		.cfi_startproc
  17              	.LVL0:
  18 0000 130101FF 		addi	sp,sp,-16
  19              		.cfi_def_cfa_offset 16
  20 0004 23348100 		sd	s0,8(sp)
  21              		.cfi_offset 8, -8
  22 0008 13040101 		addi	s0,sp,16
  23              		.cfi_def_cfa 8, 0
  24              	.LBB2:
  10:src/MemoryAllocator.cpp ****     void* startAddress=(void*)(((size_t)HEAP_START_ADDR+MEM_BLOCK_SIZE-1) / MEM_BLOCK_SIZE * MEM_BL
  25              		.loc 1 10 5
  26              		.loc 1 10 71 is_stmt 0
  27 000c 97070000 		ld	a5,HEAP_START_ADDR
  27      83B70700 
  28 0014 9387F703 		addi	a5,a5,63
  29              		.loc 1 10 92
  30 0018 93F707FC 		andi	a5,a5,-64
  31              	.LVL1:
  11:src/MemoryAllocator.cpp ****     head=(Fragment*)startAddress;
  32              		.loc 1 11 5 is_stmt 1
  33              		.loc 1 11 9 is_stmt 0
  34 001c 2330F500 		sd	a5,0(a0)
  12:src/MemoryAllocator.cpp ****     size_t num=((size_t)HEAP_END_ADDR-(size_t)startAddress) / MEM_BLOCK_SIZE;
  35              		.loc 1 12 5 is_stmt 1
  36              		.loc 1 12 38 is_stmt 0
  37 0020 17070000 		ld	a4,HEAP_END_ADDR
  37      03370700 
  38 0028 3307F740 		sub	a4,a4,a5
  39              		.loc 1 12 12
  40 002c 13576700 		srli	a4,a4,6
  41              	.LVL2:
  13:src/MemoryAllocator.cpp ****     head->numOfBlocks=num;
  42              		.loc 1 13 5 is_stmt 1
  43              		.loc 1 13 22 is_stmt 0
GAS LISTING /tmp/ccOjd9iB.s 			page 2


  44 0030 23B0E700 		sd	a4,0(a5)
  14:src/MemoryAllocator.cpp ****     head->next=nullptr;
  45              		.loc 1 14 5 is_stmt 1
  46 0034 83370500 		ld	a5,0(a0)
  47              	.LVL3:
  48              		.loc 1 14 15 is_stmt 0
  49 0038 23B40700 		sd	zero,8(a5)
  15:src/MemoryAllocator.cpp ****     head->prev=nullptr;
  50              		.loc 1 15 5 is_stmt 1
  51 003c 83370500 		ld	a5,0(a0)
  52              		.loc 1 15 15 is_stmt 0
  53 0040 23B80700 		sd	zero,16(a5)
  16:src/MemoryAllocator.cpp ****     head->free=1;
  54              		.loc 1 16 5 is_stmt 1
  55 0044 83370500 		ld	a5,0(a0)
  56              		.loc 1 16 15 is_stmt 0
  57 0048 13071000 		li	a4,1
  58              	.LVL4:
  59 004c 238CE700 		sb	a4,24(a5)
  60              	.LBE2:
  17:src/MemoryAllocator.cpp **** }
  61              		.loc 1 17 1
  62 0050 03348100 		ld	s0,8(sp)
  63              		.cfi_restore 8
  64              		.cfi_def_cfa 2, 16
  65 0054 13010101 		addi	sp,sp,16
  66              		.cfi_def_cfa_offset 0
  67 0058 67800000 		jr	ra
  68              		.cfi_endproc
  69              	.LFE2:
  71              		.globl	_ZN15MemoryAllocatorC1Ev
  72              		.set	_ZN15MemoryAllocatorC1Ev,_ZN15MemoryAllocatorC2Ev
  73              		.align	2
  74              		.globl	_ZN15MemoryAllocator11getInstanceEv
  76              	_ZN15MemoryAllocator11getInstanceEv:
  77              	.LFB0:
   4:src/MemoryAllocator.cpp ****     static MemoryAllocator instance;
  78              		.loc 1 4 49 is_stmt 1
  79              		.cfi_startproc
   5:src/MemoryAllocator.cpp ****     return instance;
  80              		.loc 1 5 5
   5:src/MemoryAllocator.cpp ****     return instance;
  81              		.loc 1 5 28 is_stmt 0
  82 005c 97070000 		lbu	a5,_ZGVZN15MemoryAllocator11getInstanceEvE8instance
  82      83C70700 
  83 0064 63880700 		beqz	a5,.L9
   6:src/MemoryAllocator.cpp **** }
  84              		.loc 1 6 5 is_stmt 1
   7:src/MemoryAllocator.cpp **** 
  85              		.loc 1 7 1 is_stmt 0
  86 0068 17050000 		lla	a0,_ZZN15MemoryAllocator11getInstanceEvE8instance
  86      13050500 
  87 0070 67800000 		ret
  88              	.L9:
   4:src/MemoryAllocator.cpp ****     static MemoryAllocator instance;
  89              		.loc 1 4 49 discriminator 1
  90 0074 130101FF 		addi	sp,sp,-16
GAS LISTING /tmp/ccOjd9iB.s 			page 3


  91              		.cfi_def_cfa_offset 16
  92 0078 23341100 		sd	ra,8(sp)
  93 007c 23308100 		sd	s0,0(sp)
  94              		.cfi_offset 1, -8
  95              		.cfi_offset 8, -16
  96 0080 13040101 		addi	s0,sp,16
  97              		.cfi_def_cfa 8, 0
   5:src/MemoryAllocator.cpp ****     return instance;
  98              		.loc 1 5 28 discriminator 1
  99 0084 17050000 		lla	a0,_ZZN15MemoryAllocator11getInstanceEvE8instance
  99      13050500 
 100 008c 97000000 		call	_ZN15MemoryAllocatorC1Ev
 100      E7800000 
 101              	.LVL5:
 102 0094 93071000 		li	a5,1
 103 0098 17070000 		sb	a5,_ZGVZN15MemoryAllocator11getInstanceEvE8instance,a4
 103      2300F700 
   6:src/MemoryAllocator.cpp **** }
 104              		.loc 1 6 5 is_stmt 1 discriminator 1
   7:src/MemoryAllocator.cpp **** 
 105              		.loc 1 7 1 is_stmt 0 discriminator 1
 106 00a0 17050000 		lla	a0,_ZZN15MemoryAllocator11getInstanceEvE8instance
 106      13050500 
 107 00a8 83308100 		ld	ra,8(sp)
 108              		.cfi_restore 1
 109 00ac 03340100 		ld	s0,0(sp)
 110              		.cfi_restore 8
 111              		.cfi_def_cfa 2, 16
 112 00b0 13010101 		addi	sp,sp,16
 113              		.cfi_def_cfa_offset 0
 114 00b4 67800000 		jr	ra
 115              		.cfi_endproc
 116              	.LFE0:
 118              		.align	2
 119              		.globl	_ZN15MemoryAllocator13firstFitAllocEm
 121              	_ZN15MemoryAllocator13firstFitAllocEm:
 122              	.LFB5:
  18:src/MemoryAllocator.cpp **** 
  19:src/MemoryAllocator.cpp **** void* MemoryAllocator::memAlloc(size_t size) {
  20:src/MemoryAllocator.cpp ****     return MemoryAllocator::getInstance().firstFitAlloc(size);
  21:src/MemoryAllocator.cpp **** }
  22:src/MemoryAllocator.cpp **** 
  23:src/MemoryAllocator.cpp **** void* MemoryAllocator::firstFitAlloc(size_t size) {
 123              		.loc 1 23 51 is_stmt 1
 124              		.cfi_startproc
 125              	.LVL6:
 126 00b8 130101FF 		addi	sp,sp,-16
 127              		.cfi_def_cfa_offset 16
 128 00bc 23348100 		sd	s0,8(sp)
 129              		.cfi_offset 8, -8
 130 00c0 13040101 		addi	s0,sp,16
 131              		.cfi_def_cfa 8, 0
  24:src/MemoryAllocator.cpp ****     if (size<=0) {
 132              		.loc 1 24 5
 133 00c4 638C050A 		beqz	a1,.L19
  25:src/MemoryAllocator.cpp ****         return nullptr;
  26:src/MemoryAllocator.cpp ****     }
GAS LISTING /tmp/ccOjd9iB.s 			page 4


  27:src/MemoryAllocator.cpp ****     //sizeof(fragment) extra space to store fragment data
  28:src/MemoryAllocator.cpp ****     size_t numOfBlocksNeeded=((size+sizeof(Fragment))%MEM_BLOCK_SIZE==0) ? (size+sizeof(Fragment))/
 134              		.loc 1 28 5
 135              		.loc 1 28 36 is_stmt 0
 136 00c8 93850502 		addi	a1,a1,32
 137              	.LVL7:
 138              		.loc 1 28 54
 139 00cc 93F7F503 		andi	a5,a1,63
 140              		.loc 1 28 74
 141 00d0 63980700 		bnez	a5,.L12
 142              		.loc 1 28 74 discriminator 1
 143 00d4 13D76500 		srli	a4,a1,6
 144              	.L13:
 145              	.LVL8:
  29:src/MemoryAllocator.cpp **** 
  30:src/MemoryAllocator.cpp ****     for (Fragment *fragment=head; fragment; fragment=fragment->next) {
 146              		.loc 1 30 5 is_stmt 1 discriminator 4
 147              	.LBB3:
 148              		.loc 1 30 20 is_stmt 0 discriminator 4
 149 00d8 03350500 		ld	a0,0(a0)
 150              	.LVL9:
 151 00dc 6F008002 		j	.L18
 152              	.LVL10:
 153              	.L12:
 154              	.LBE3:
  28:src/MemoryAllocator.cpp **** 
 155              		.loc 1 28 140 discriminator 2
 156 00e0 13D76500 		srli	a4,a1,6
  28:src/MemoryAllocator.cpp **** 
 157              		.loc 1 28 74 discriminator 2
 158 00e4 13071700 		addi	a4,a4,1
 159 00e8 6FF01FFF 		j	.L13
 160              	.LVL11:
 161              	.L15:
 162              	.LBB13:
 163              	.LBB4:
 164              	.LBB5:
  31:src/MemoryAllocator.cpp ****         if (fragment->free) {
  32:src/MemoryAllocator.cpp ****             if (fragment->numOfBlocks==numOfBlocksNeeded || fragment->numOfBlocks==numOfBlocksNeede
  33:src/MemoryAllocator.cpp ****                 fragment->free=0;
 165              		.loc 1 33 17 is_stmt 1
 166              		.loc 1 33 31 is_stmt 0
 167 00ec 230C0500 		sb	zero,24(a0)
  34:src/MemoryAllocator.cpp ****                 return (void*)((size_t)fragment+sizeof(Fragment));
 168              		.loc 1 34 17 is_stmt 1
 169              		.loc 1 34 48 is_stmt 0
 170 00f0 13050502 		addi	a0,a0,32
 171              	.LVL12:
 172              	.L10:
 173              	.LBE5:
 174              	.LBE4:
 175              	.LBE13:
  35:src/MemoryAllocator.cpp ****             }
  36:src/MemoryAllocator.cpp ****             else if (fragment->numOfBlocks>numOfBlocksNeeded+1) {
  37:src/MemoryAllocator.cpp ****                 //how much memory was left int the fragment
  38:src/MemoryAllocator.cpp ****                 size_t freeSize=fragment->numOfBlocks-numOfBlocksNeeded;
  39:src/MemoryAllocator.cpp **** 
GAS LISTING /tmp/ccOjd9iB.s 			page 5


  40:src/MemoryAllocator.cpp ****                 //allocated block
  41:src/MemoryAllocator.cpp ****                 fragment->free=0;
  42:src/MemoryAllocator.cpp ****                 fragment->numOfBlocks=numOfBlocksNeeded;
  43:src/MemoryAllocator.cpp ****                 Fragment* tmp=fragment->next;
  44:src/MemoryAllocator.cpp **** 
  45:src/MemoryAllocator.cpp ****                 //sad je okej
  46:src/MemoryAllocator.cpp **** 
  47:src/MemoryAllocator.cpp ****                 //new free fragment
  48:src/MemoryAllocator.cpp ****                 fragment->next=(Fragment*)((size_t)fragment+numOfBlocksNeeded*MEM_BLOCK_SIZE);
  49:src/MemoryAllocator.cpp ****                 fragment->next->free=1;
  50:src/MemoryAllocator.cpp ****                 fragment->next->prev=fragment;
  51:src/MemoryAllocator.cpp ****                 fragment->next->numOfBlocks=freeSize;
  52:src/MemoryAllocator.cpp ****                 fragment->next->next=tmp;
  53:src/MemoryAllocator.cpp ****                 if(tmp){
  54:src/MemoryAllocator.cpp ****                     fragment->next->next->prev=fragment->next;
  55:src/MemoryAllocator.cpp ****                 }
  56:src/MemoryAllocator.cpp ****                 return (void*)((size_t)fragment+sizeof(Fragment));
  57:src/MemoryAllocator.cpp ****             }
  58:src/MemoryAllocator.cpp ****         }
  59:src/MemoryAllocator.cpp ****     }
  60:src/MemoryAllocator.cpp ****     //__putc('F');
  61:src/MemoryAllocator.cpp ****     return nullptr;
  62:src/MemoryAllocator.cpp **** }
 176              		.loc 1 62 1
 177 00f4 03348100 		ld	s0,8(sp)
 178              		.cfi_remember_state
 179              		.cfi_restore 8
 180              		.cfi_def_cfa 2, 16
 181 00f8 13010101 		addi	sp,sp,16
 182              		.cfi_def_cfa_offset 0
 183 00fc 67800000 		jr	ra
 184              	.LVL13:
 185              	.L14:
 186              		.cfi_restore_state
 187              	.LBB14:
  30:src/MemoryAllocator.cpp ****         if (fragment->free) {
 188              		.loc 1 30 5 is_stmt 1 discriminator 2
  30:src/MemoryAllocator.cpp ****         if (fragment->free) {
 189              		.loc 1 30 53 is_stmt 0 discriminator 2
 190 0100 03358500 		ld	a0,8(a0)
 191              	.LVL14:
 192              	.L18:
  30:src/MemoryAllocator.cpp ****         if (fragment->free) {
 193              		.loc 1 30 35 is_stmt 1 discriminator 1
 194 0104 E30805FE 		beqz	a0,.L10
 195              	.LBE14:
  31:src/MemoryAllocator.cpp ****             if (fragment->numOfBlocks==numOfBlocksNeeded || fragment->numOfBlocks==numOfBlocksNeede
 196              		.loc 1 31 9
 197              	.LBB15:
 198              	.LBB10:
  31:src/MemoryAllocator.cpp ****             if (fragment->numOfBlocks==numOfBlocksNeeded || fragment->numOfBlocks==numOfBlocksNeede
 199              		.loc 1 31 23 is_stmt 0
 200 0108 83478501 		lbu	a5,24(a0)
  31:src/MemoryAllocator.cpp ****             if (fragment->numOfBlocks==numOfBlocksNeeded || fragment->numOfBlocks==numOfBlocksNeede
 201              		.loc 1 31 9
 202 010c E38A07FE 		beqz	a5,.L14
 203              	.LBE10:
GAS LISTING /tmp/ccOjd9iB.s 			page 6


 204              	.LBE15:
  32:src/MemoryAllocator.cpp ****                 fragment->free=0;
 205              		.loc 1 32 13 is_stmt 1
 206              	.LBB16:
 207              	.LBB11:
 208              	.LBB8:
  32:src/MemoryAllocator.cpp ****                 fragment->free=0;
 209              		.loc 1 32 27 is_stmt 0
 210 0110 83370500 		ld	a5,0(a0)
  32:src/MemoryAllocator.cpp ****                 fragment->free=0;
 211              		.loc 1 32 13
 212 0114 E38CE7FC 		beq	a5,a4,.L15
  32:src/MemoryAllocator.cpp ****                 fragment->free=0;
 213              		.loc 1 32 101 discriminator 1
 214 0118 93061700 		addi	a3,a4,1
  32:src/MemoryAllocator.cpp ****                 fragment->free=0;
 215              		.loc 1 32 58 discriminator 1
 216 011c E388D7FC 		beq	a5,a3,.L15
 217              	.LBE8:
 218              	.LBE11:
 219              	.LBE16:
  36:src/MemoryAllocator.cpp ****                 //how much memory was left int the fragment
 220              		.loc 1 36 18 is_stmt 1
 221              	.LBB17:
 222              	.LBB12:
 223              	.LBB9:
 224              	.LBB6:
 225 0120 E3F0F6FE 		bleu	a5,a3,.L14
 226              	.LBB7:
  38:src/MemoryAllocator.cpp **** 
 227              		.loc 1 38 17
  38:src/MemoryAllocator.cpp **** 
 228              		.loc 1 38 24 is_stmt 0
 229 0124 B387E740 		sub	a5,a5,a4
 230              	.LVL15:
  41:src/MemoryAllocator.cpp ****                 fragment->numOfBlocks=numOfBlocksNeeded;
 231              		.loc 1 41 17 is_stmt 1
  41:src/MemoryAllocator.cpp ****                 fragment->numOfBlocks=numOfBlocksNeeded;
 232              		.loc 1 41 31 is_stmt 0
 233 0128 230C0500 		sb	zero,24(a0)
  42:src/MemoryAllocator.cpp ****                 Fragment* tmp=fragment->next;
 234              		.loc 1 42 17 is_stmt 1
  42:src/MemoryAllocator.cpp ****                 Fragment* tmp=fragment->next;
 235              		.loc 1 42 38 is_stmt 0
 236 012c 2330E500 		sd	a4,0(a0)
  43:src/MemoryAllocator.cpp **** 
 237              		.loc 1 43 17 is_stmt 1
  43:src/MemoryAllocator.cpp **** 
 238              		.loc 1 43 27 is_stmt 0
 239 0130 83368500 		ld	a3,8(a0)
 240              	.LVL16:
  48:src/MemoryAllocator.cpp ****                 fragment->next->free=1;
 241              		.loc 1 48 17 is_stmt 1
  48:src/MemoryAllocator.cpp ****                 fragment->next->free=1;
 242              		.loc 1 48 78 is_stmt 0
 243 0134 13176700 		slli	a4,a4,6
 244              	.LVL17:
GAS LISTING /tmp/ccOjd9iB.s 			page 7


  48:src/MemoryAllocator.cpp ****                 fragment->next->free=1;
 245              		.loc 1 48 60
 246 0138 13060500 		mv	a2,a0
 247 013c 3307A700 		add	a4,a4,a0
  48:src/MemoryAllocator.cpp ****                 fragment->next->free=1;
 248              		.loc 1 48 31
 249 0140 2334E500 		sd	a4,8(a0)
  49:src/MemoryAllocator.cpp ****                 fragment->next->prev=fragment;
 250              		.loc 1 49 17 is_stmt 1
  49:src/MemoryAllocator.cpp ****                 fragment->next->prev=fragment;
 251              		.loc 1 49 37 is_stmt 0
 252 0144 93051000 		li	a1,1
 253 0148 230CB700 		sb	a1,24(a4)
 254              	.LVL18:
  50:src/MemoryAllocator.cpp ****                 fragment->next->numOfBlocks=freeSize;
 255              		.loc 1 50 17 is_stmt 1
  50:src/MemoryAllocator.cpp ****                 fragment->next->numOfBlocks=freeSize;
 256              		.loc 1 50 27 is_stmt 0
 257 014c 03378500 		ld	a4,8(a0)
  50:src/MemoryAllocator.cpp ****                 fragment->next->numOfBlocks=freeSize;
 258              		.loc 1 50 37
 259 0150 2338A700 		sd	a0,16(a4)
  51:src/MemoryAllocator.cpp ****                 fragment->next->next=tmp;
 260              		.loc 1 51 17 is_stmt 1
  51:src/MemoryAllocator.cpp ****                 fragment->next->next=tmp;
 261              		.loc 1 51 27 is_stmt 0
 262 0154 03378500 		ld	a4,8(a0)
  51:src/MemoryAllocator.cpp ****                 fragment->next->next=tmp;
 263              		.loc 1 51 44
 264 0158 2330F700 		sd	a5,0(a4)
  52:src/MemoryAllocator.cpp ****                 if(tmp){
 265              		.loc 1 52 17 is_stmt 1
  52:src/MemoryAllocator.cpp ****                 if(tmp){
 266              		.loc 1 52 27 is_stmt 0
 267 015c 83378500 		ld	a5,8(a0)
 268              	.LVL19:
  52:src/MemoryAllocator.cpp ****                 if(tmp){
 269              		.loc 1 52 37
 270 0160 23B4D700 		sd	a3,8(a5)
 271              	.LVL20:
  53:src/MemoryAllocator.cpp ****                     fragment->next->next->prev=fragment->next;
 272              		.loc 1 53 17 is_stmt 1
 273 0164 63880600 		beqz	a3,.L17
  54:src/MemoryAllocator.cpp ****                 }
 274              		.loc 1 54 21
  54:src/MemoryAllocator.cpp ****                 }
 275              		.loc 1 54 31 is_stmt 0
 276 0168 83378500 		ld	a5,8(a0)
  54:src/MemoryAllocator.cpp ****                 }
 277              		.loc 1 54 37
 278 016c 03B78700 		ld	a4,8(a5)
  54:src/MemoryAllocator.cpp ****                 }
 279              		.loc 1 54 47
 280 0170 2338F700 		sd	a5,16(a4)
 281              	.L17:
  56:src/MemoryAllocator.cpp ****             }
 282              		.loc 1 56 17 is_stmt 1
GAS LISTING /tmp/ccOjd9iB.s 			page 8


  56:src/MemoryAllocator.cpp ****             }
 283              		.loc 1 56 48 is_stmt 0
 284 0174 13050602 		addi	a0,a2,32
 285              	.LVL21:
  56:src/MemoryAllocator.cpp ****             }
 286              		.loc 1 56 65
 287 0178 6FF0DFF7 		j	.L10
 288              	.LVL22:
 289              	.L19:
 290              	.LBE7:
 291              	.LBE6:
 292              	.LBE9:
 293              	.LBE12:
 294              	.LBE17:
  25:src/MemoryAllocator.cpp ****     }
 295              		.loc 1 25 16
 296 017c 13050000 		li	a0,0
 297              	.LVL23:
 298 0180 6FF05FF7 		j	.L10
 299              		.cfi_endproc
 300              	.LFE5:
 302              		.align	2
 303              		.globl	_ZN15MemoryAllocator8memAllocEm
 305              	_ZN15MemoryAllocator8memAllocEm:
 306              	.LFB4:
  19:src/MemoryAllocator.cpp ****     return MemoryAllocator::getInstance().firstFitAlloc(size);
 307              		.loc 1 19 46 is_stmt 1
 308              		.cfi_startproc
 309              	.LVL24:
 310 0184 130101FE 		addi	sp,sp,-32
 311              		.cfi_def_cfa_offset 32
 312 0188 233C1100 		sd	ra,24(sp)
 313 018c 23388100 		sd	s0,16(sp)
 314 0190 23349100 		sd	s1,8(sp)
 315              		.cfi_offset 1, -8
 316              		.cfi_offset 8, -16
 317              		.cfi_offset 9, -24
 318 0194 13040102 		addi	s0,sp,32
 319              		.cfi_def_cfa 8, 0
 320 0198 93840500 		mv	s1,a1
  20:src/MemoryAllocator.cpp **** }
 321              		.loc 1 20 5
  20:src/MemoryAllocator.cpp **** }
 322              		.loc 1 20 41 is_stmt 0
 323 019c 97000000 		call	_ZN15MemoryAllocator11getInstanceEv
 323      E7800000 
 324              	.LVL25:
  20:src/MemoryAllocator.cpp **** }
 325              		.loc 1 20 56
 326 01a4 93850400 		mv	a1,s1
 327 01a8 97000000 		call	_ZN15MemoryAllocator13firstFitAllocEm
 327      E7800000 
 328              	.LVL26:
  21:src/MemoryAllocator.cpp **** 
 329              		.loc 1 21 1
 330 01b0 83308101 		ld	ra,24(sp)
 331              		.cfi_restore 1
GAS LISTING /tmp/ccOjd9iB.s 			page 9


 332 01b4 03340101 		ld	s0,16(sp)
 333              		.cfi_restore 8
 334              		.cfi_def_cfa 2, 32
 335 01b8 83348100 		ld	s1,8(sp)
 336              		.cfi_restore 9
 337              	.LVL27:
 338 01bc 13010102 		addi	sp,sp,32
 339              		.cfi_def_cfa_offset 0
 340 01c0 67800000 		jr	ra
 341              		.cfi_endproc
 342              	.LFE4:
 344              		.align	2
 345              		.globl	_ZN15MemoryAllocator9mergePrevEP8Fragment
 347              	_ZN15MemoryAllocator9mergePrevEP8Fragment:
 348              	.LFB7:
  63:src/MemoryAllocator.cpp **** 
  64:src/MemoryAllocator.cpp **** int MemoryAllocator::free(void *fragment) {
  65:src/MemoryAllocator.cpp ****     for (Fragment* curr=head; curr; curr=curr->next) {
  66:src/MemoryAllocator.cpp ****         if ((size_t)curr+sizeof(Fragment)==(size_t)fragment) {
  67:src/MemoryAllocator.cpp ****             if (curr->free) {
  68:src/MemoryAllocator.cpp ****                 //__putc('!');
  69:src/MemoryAllocator.cpp ****                 return -1;
  70:src/MemoryAllocator.cpp ****             }
  71:src/MemoryAllocator.cpp ****             else {
  72:src/MemoryAllocator.cpp ****                 curr->free=1;
  73:src/MemoryAllocator.cpp ****                 mergeNext(curr);
  74:src/MemoryAllocator.cpp ****                 mergePrev(curr);
  75:src/MemoryAllocator.cpp ****                 //__putc('W');
  76:src/MemoryAllocator.cpp ****                 //__putc('W');
  77:src/MemoryAllocator.cpp ****                 return 0;
  78:src/MemoryAllocator.cpp ****             }
  79:src/MemoryAllocator.cpp ****         }
  80:src/MemoryAllocator.cpp ****     }
  81:src/MemoryAllocator.cpp ****     // is should return the code of the error but I currently dont know what is the code and there 
  82:src/MemoryAllocator.cpp ****     return -1;
  83:src/MemoryAllocator.cpp **** }
  84:src/MemoryAllocator.cpp **** 
  85:src/MemoryAllocator.cpp **** void MemoryAllocator::mergePrev(Fragment *fragment) {
 349              		.loc 1 85 53 is_stmt 1
 350              		.cfi_startproc
 351              	.LVL28:
 352 01c4 130101FF 		addi	sp,sp,-16
 353              		.cfi_def_cfa_offset 16
 354 01c8 23348100 		sd	s0,8(sp)
 355              		.cfi_offset 8, -8
 356 01cc 13040101 		addi	s0,sp,16
 357              		.cfi_def_cfa 8, 0
  86:src/MemoryAllocator.cpp ****     if (fragment->prev && fragment->prev->free) {
 358              		.loc 1 86 5
 359              		.loc 1 86 19 is_stmt 0
 360 01d0 83B70501 		ld	a5,16(a1)
 361              		.loc 1 86 5
 362 01d4 638C0702 		beqz	a5,.L23
 363              		.loc 1 86 43 discriminator 1
 364 01d8 03C78701 		lbu	a4,24(a5)
 365              		.loc 1 86 24 discriminator 1
 366 01dc 63080702 		beqz	a4,.L23
GAS LISTING /tmp/ccOjd9iB.s 			page 10


  87:src/MemoryAllocator.cpp ****         fragment->prev->numOfBlocks+=fragment->numOfBlocks;
 367              		.loc 1 87 9 is_stmt 1
 368              		.loc 1 87 48 is_stmt 0
 369 01e0 83B60500 		ld	a3,0(a1)
 370              		.loc 1 87 36
 371 01e4 03B70700 		ld	a4,0(a5)
 372 01e8 3307D700 		add	a4,a4,a3
 373 01ec 23B0E700 		sd	a4,0(a5)
  88:src/MemoryAllocator.cpp ****         fragment->prev->next=fragment->next;
 374              		.loc 1 88 9 is_stmt 1
 375              		.loc 1 88 19 is_stmt 0
 376 01f0 83B70501 		ld	a5,16(a1)
 377              		.loc 1 88 40
 378 01f4 03B78500 		ld	a4,8(a1)
 379              		.loc 1 88 29
 380 01f8 23B4E700 		sd	a4,8(a5)
  89:src/MemoryAllocator.cpp ****         if(fragment->prev->next){
 381              		.loc 1 89 9 is_stmt 1
 382              		.loc 1 89 22 is_stmt 0
 383 01fc 03B70501 		ld	a4,16(a1)
 384              		.loc 1 89 28
 385 0200 83378700 		ld	a5,8(a4)
 386              		.loc 1 89 9
 387 0204 63840700 		beqz	a5,.L23
  90:src/MemoryAllocator.cpp ****             fragment->prev->next->prev=fragment->prev;
 388              		.loc 1 90 13 is_stmt 1
 389              		.loc 1 90 39 is_stmt 0
 390 0208 23B8E700 		sd	a4,16(a5)
 391              	.L23:
  91:src/MemoryAllocator.cpp ****         }
  92:src/MemoryAllocator.cpp ****     }
  93:src/MemoryAllocator.cpp **** }
 392              		.loc 1 93 1
 393 020c 03348100 		ld	s0,8(sp)
 394              		.cfi_restore 8
 395              		.cfi_def_cfa 2, 16
 396 0210 13010101 		addi	sp,sp,16
 397              		.cfi_def_cfa_offset 0
 398 0214 67800000 		jr	ra
 399              		.cfi_endproc
 400              	.LFE7:
 402              		.align	2
 403              		.globl	_ZN15MemoryAllocator9mergeNextEP8Fragment
 405              	_ZN15MemoryAllocator9mergeNextEP8Fragment:
 406              	.LFB8:
  94:src/MemoryAllocator.cpp **** 
  95:src/MemoryAllocator.cpp **** void MemoryAllocator::mergeNext(Fragment *fragment) {
 407              		.loc 1 95 53 is_stmt 1
 408              		.cfi_startproc
 409              	.LVL29:
 410 0218 130101FF 		addi	sp,sp,-16
 411              		.cfi_def_cfa_offset 16
 412 021c 23348100 		sd	s0,8(sp)
 413              		.cfi_offset 8, -8
 414 0220 13040101 		addi	s0,sp,16
 415              		.cfi_def_cfa 8, 0
  96:src/MemoryAllocator.cpp ****     if (fragment->next && fragment->next->free) {
GAS LISTING /tmp/ccOjd9iB.s 			page 11


 416              		.loc 1 96 5
 417              		.loc 1 96 19 is_stmt 0
 418 0224 83B78500 		ld	a5,8(a1)
 419              		.loc 1 96 5
 420 0228 63860702 		beqz	a5,.L26
 421              		.loc 1 96 43 discriminator 1
 422 022c 03C78701 		lbu	a4,24(a5)
 423              		.loc 1 96 24 discriminator 1
 424 0230 63020702 		beqz	a4,.L26
  97:src/MemoryAllocator.cpp ****         fragment->numOfBlocks+=fragment->next->numOfBlocks;
 425              		.loc 1 97 9 is_stmt 1
 426              		.loc 1 97 48 is_stmt 0
 427 0234 83B60700 		ld	a3,0(a5)
 428              		.loc 1 97 30
 429 0238 03B70500 		ld	a4,0(a1)
 430 023c 3307D700 		add	a4,a4,a3
 431 0240 23B0E500 		sd	a4,0(a1)
  98:src/MemoryAllocator.cpp ****         fragment->next=fragment->next->next;
 432              		.loc 1 98 9 is_stmt 1
 433              		.loc 1 98 40 is_stmt 0
 434 0244 83B78700 		ld	a5,8(a5)
 435              		.loc 1 98 23
 436 0248 23B4F500 		sd	a5,8(a1)
  99:src/MemoryAllocator.cpp ****         if(fragment->next){
 437              		.loc 1 99 9 is_stmt 1
 438 024c 63840700 		beqz	a5,.L26
 100:src/MemoryAllocator.cpp ****             fragment->next->prev=fragment;
 439              		.loc 1 100 13
 440              		.loc 1 100 33 is_stmt 0
 441 0250 23B8B700 		sd	a1,16(a5)
 442              	.L26:
 101:src/MemoryAllocator.cpp ****         }
 102:src/MemoryAllocator.cpp ****     }
 103:src/MemoryAllocator.cpp **** }
 443              		.loc 1 103 1
 444 0254 03348100 		ld	s0,8(sp)
 445              		.cfi_restore 8
 446              		.cfi_def_cfa 2, 16
 447 0258 13010101 		addi	sp,sp,16
 448              		.cfi_def_cfa_offset 0
 449 025c 67800000 		jr	ra
 450              		.cfi_endproc
 451              	.LFE8:
 453              		.align	2
 454              		.globl	_ZN15MemoryAllocator4freeEPv
 456              	_ZN15MemoryAllocator4freeEPv:
 457              	.LFB6:
  64:src/MemoryAllocator.cpp ****     for (Fragment* curr=head; curr; curr=curr->next) {
 458              		.loc 1 64 43 is_stmt 1
 459              		.cfi_startproc
 460              	.LVL30:
 461 0260 130101FE 		addi	sp,sp,-32
 462              		.cfi_def_cfa_offset 32
 463 0264 233C1100 		sd	ra,24(sp)
 464 0268 23388100 		sd	s0,16(sp)
 465 026c 23349100 		sd	s1,8(sp)
 466 0270 23302101 		sd	s2,0(sp)
GAS LISTING /tmp/ccOjd9iB.s 			page 12


 467              		.cfi_offset 1, -8
 468              		.cfi_offset 8, -16
 469              		.cfi_offset 9, -24
 470              		.cfi_offset 18, -32
 471 0274 13040102 		addi	s0,sp,32
 472              		.cfi_def_cfa 8, 0
 473 0278 13090500 		mv	s2,a0
  65:src/MemoryAllocator.cpp ****         if ((size_t)curr+sizeof(Fragment)==(size_t)fragment) {
 474              		.loc 1 65 5
 475              	.LBB18:
  65:src/MemoryAllocator.cpp ****         if ((size_t)curr+sizeof(Fragment)==(size_t)fragment) {
 476              		.loc 1 65 20 is_stmt 0
 477 027c 83340500 		ld	s1,0(a0)
 478              	.LVL31:
 479              	.L32:
  65:src/MemoryAllocator.cpp ****         if ((size_t)curr+sizeof(Fragment)==(size_t)fragment) {
 480              		.loc 1 65 31 is_stmt 1 discriminator 1
 481 0280 63860404 		beqz	s1,.L33
  66:src/MemoryAllocator.cpp ****             if (curr->free) {
 482              		.loc 1 66 9
  66:src/MemoryAllocator.cpp ****             if (curr->free) {
 483              		.loc 1 66 25 is_stmt 0
 484 0284 93870402 		addi	a5,s1,32
  66:src/MemoryAllocator.cpp ****             if (curr->free) {
 485              		.loc 1 66 9
 486 0288 6386B700 		beq	a5,a1,.L36
  65:src/MemoryAllocator.cpp ****         if ((size_t)curr+sizeof(Fragment)==(size_t)fragment) {
 487              		.loc 1 65 5 is_stmt 1 discriminator 2
  65:src/MemoryAllocator.cpp ****         if ((size_t)curr+sizeof(Fragment)==(size_t)fragment) {
 488              		.loc 1 65 41 is_stmt 0 discriminator 2
 489 028c 83B48400 		ld	s1,8(s1)
 490              	.LVL32:
  65:src/MemoryAllocator.cpp ****         if ((size_t)curr+sizeof(Fragment)==(size_t)fragment) {
 491              		.loc 1 65 5 discriminator 2
 492 0290 6FF01FFF 		j	.L32
 493              	.L36:
  67:src/MemoryAllocator.cpp ****                 //__putc('!');
 494              		.loc 1 67 13 is_stmt 1
  67:src/MemoryAllocator.cpp ****                 //__putc('!');
 495              		.loc 1 67 23 is_stmt 0
 496 0294 83C78401 		lbu	a5,24(s1)
  67:src/MemoryAllocator.cpp ****                 //__putc('!');
 497              		.loc 1 67 13
 498 0298 63980704 		bnez	a5,.L34
  72:src/MemoryAllocator.cpp ****                 mergeNext(curr);
 499              		.loc 1 72 17 is_stmt 1
  72:src/MemoryAllocator.cpp ****                 mergeNext(curr);
 500              		.loc 1 72 27 is_stmt 0
 501 029c 93071000 		li	a5,1
 502 02a0 238CF400 		sb	a5,24(s1)
  73:src/MemoryAllocator.cpp ****                 mergePrev(curr);
 503              		.loc 1 73 17 is_stmt 1
  73:src/MemoryAllocator.cpp ****                 mergePrev(curr);
 504              		.loc 1 73 26 is_stmt 0
 505 02a4 93850400 		mv	a1,s1
 506              	.LVL33:
 507 02a8 13050900 		mv	a0,s2
GAS LISTING /tmp/ccOjd9iB.s 			page 13


 508              	.LVL34:
 509 02ac 97000000 		call	_ZN15MemoryAllocator9mergeNextEP8Fragment
 509      E7800000 
 510              	.LVL35:
  74:src/MemoryAllocator.cpp ****                 //__putc('W');
 511              		.loc 1 74 17 is_stmt 1
  74:src/MemoryAllocator.cpp ****                 //__putc('W');
 512              		.loc 1 74 26 is_stmt 0
 513 02b4 93850400 		mv	a1,s1
 514 02b8 13050900 		mv	a0,s2
 515 02bc 97000000 		call	_ZN15MemoryAllocator9mergePrevEP8Fragment
 515      E7800000 
 516              	.LVL36:
  77:src/MemoryAllocator.cpp ****             }
 517              		.loc 1 77 17 is_stmt 1
  77:src/MemoryAllocator.cpp ****             }
 518              		.loc 1 77 24 is_stmt 0
 519 02c4 13050000 		li	a0,0
 520 02c8 6F008000 		j	.L30
 521              	.LVL37:
 522              	.L33:
 523              	.LBE18:
  82:src/MemoryAllocator.cpp **** }
 524              		.loc 1 82 13
 525 02cc 1305F0FF 		li	a0,-1
 526              	.LVL38:
 527              	.L30:
  83:src/MemoryAllocator.cpp **** 
 528              		.loc 1 83 1
 529 02d0 83308101 		ld	ra,24(sp)
 530              		.cfi_remember_state
 531              		.cfi_restore 1
 532 02d4 03340101 		ld	s0,16(sp)
 533              		.cfi_restore 8
 534              		.cfi_def_cfa 2, 32
 535 02d8 83348100 		ld	s1,8(sp)
 536              		.cfi_restore 9
 537              	.LVL39:
 538 02dc 03390100 		ld	s2,0(sp)
 539              		.cfi_restore 18
 540              	.LVL40:
 541 02e0 13010102 		addi	sp,sp,32
 542              		.cfi_def_cfa_offset 0
 543 02e4 67800000 		jr	ra
 544              	.LVL41:
 545              	.L34:
 546              		.cfi_restore_state
 547              	.LBB19:
  69:src/MemoryAllocator.cpp ****             }
 548              		.loc 1 69 25
 549 02e8 1305F0FF 		li	a0,-1
 550              	.LVL42:
 551 02ec 6FF05FFE 		j	.L30
 552              	.LBE19:
 553              		.cfi_endproc
 554              	.LFE6:
 556              		.section	.sbss,"aw",@nobits
GAS LISTING /tmp/ccOjd9iB.s 			page 14


 557              		.align	3
 560              	_ZGVZN15MemoryAllocator11getInstanceEvE8instance:
 561 0000 00000000 		.zero	8
 561      00000000 
 564              	_ZZN15MemoryAllocator11getInstanceEvE8instance:
 565 0008 00000000 		.zero	8
 565      00000000 
 566              		.text
 567              	.Letext0:
 568              		.file 2 "src/../h/../lib/hw.h"
 569              		.file 3 "src/../h/MemoryAllocator.hpp"
GAS LISTING /tmp/ccOjd9iB.s 			page 15

