GAS LISTING /tmp/ccaXprSS.s 			page 1


   1              		.file	"myTest.cpp"
   2              		.option nopic
   3              		.option norelax
   4              		.attribute arch, "rv64i2p0_m2p0_a2p0"
   5              		.attribute unaligned_access, 0
   6              		.attribute stack_align, 16
   7              		.text
   8              	.Ltext0:
   9              		.align	2
  10              		.globl	_Z3dbgc
  12              	_Z3dbgc:
  13              	.LFB18:
  14              		.file 1 "src/myTest.cpp"
   1:src/myTest.cpp **** #include "../h/syscall_c.hpp"
   2:src/myTest.cpp **** #include "../h/Riscv.hpp"
   3:src/myTest.cpp **** 
   4:src/myTest.cpp **** void dbg(char c) {
  15              		.loc 1 4 18
  16              		.cfi_startproc
  17              	.LVL0:
  18 0000 130101FF 		addi	sp,sp,-16
  19              		.cfi_def_cfa_offset 16
  20 0004 23348100 		sd	s0,8(sp)
  21              		.cfi_offset 8, -8
  22 0008 13040101 		addi	s0,sp,16
  23              		.cfi_def_cfa 8, 0
  24              	.L2:
   5:src/myTest.cpp ****     while (!(*(volatile char*)CONSOLE_STATUS & (1 << 5))) ;
  25              		.loc 1 5 5
  26              		.loc 1 5 12
  27              		.loc 1 5 14 is_stmt 0
  28 000c 97070000 		ld	a5,CONSOLE_STATUS
  28      83B70700 
  29 0014 83C70700 		lbu	a5,0(a5)
  30 0018 93F7F70F 		andi	a5,a5,0xff
  31              		.loc 1 5 12
  32 001c 93F70702 		andi	a5,a5,32
  33 0020 E38607FE 		beqz	a5,.L2
   6:src/myTest.cpp ****     *(volatile char*)CONSOLE_TX_DATA = c;
  34              		.loc 1 6 5 is_stmt 1
  35 0024 97070000 		ld	a5,CONSOLE_TX_DATA
  35      83B70700 
  36              		.loc 1 6 38 is_stmt 0
  37 002c 2380A700 		sb	a0,0(a5)
   7:src/myTest.cpp **** }
  38              		.loc 1 7 1
  39 0030 03348100 		ld	s0,8(sp)
  40              		.cfi_restore 8
  41              		.cfi_def_cfa 2, 16
  42 0034 13010101 		addi	sp,sp,16
  43              		.cfi_def_cfa_offset 0
  44 0038 67800000 		jr	ra
  45              		.cfi_endproc
  46              	.LFE18:
  48              	.Letext0:
  49              		.file 2 "src/../h/../lib/hw.h"
  50              		.file 3 "src/../h/syscall_c.hpp"
GAS LISTING /tmp/ccaXprSS.s 			page 2


GAS LISTING /tmp/ccaXprSS.s 			page 3

