GAS LISTING /tmp/ccIvP0QD.s 			page 1


   1              		.file	"printHelper.cpp"
   2              		.option nopic
   3              		.option norelax
   4              		.attribute arch, "rv64i2p0_m2p0_a2p0"
   5              		.attribute unaligned_access, 0
   6              		.attribute stack_align, 16
   7              		.text
   8              	.Ltext0:
   9              		.align	2
  10              		.globl	_Z11printStringPKc
  12              	_Z11printStringPKc:
  13              	.LFB0:
  14              		.file 1 "src/printHelper.cpp"
   1:src/printHelper.cpp **** 
   2:src/printHelper.cpp **** #include "../h/printHelper.hpp"
   3:src/printHelper.cpp **** #include "../lib/console.h"
   4:src/printHelper.cpp **** 
   5:src/printHelper.cpp **** void printString(char const *string){
  15              		.loc 1 5 37
  16              		.cfi_startproc
  17              	.LVL0:
  18 0000 130101FE 		addi	sp,sp,-32
  19              		.cfi_def_cfa_offset 32
  20 0004 233C1100 		sd	ra,24(sp)
  21 0008 23388100 		sd	s0,16(sp)
  22 000c 23349100 		sd	s1,8(sp)
  23              		.cfi_offset 1, -8
  24              		.cfi_offset 8, -16
  25              		.cfi_offset 9, -24
  26 0010 13040102 		addi	s0,sp,32
  27              		.cfi_def_cfa 8, 0
  28 0014 93040500 		mv	s1,a0
  29              	.LVL1:
  30              	.L3:
   6:src/printHelper.cpp ****     while(*string!='\0'){
  31              		.loc 1 6 5
  32              		.loc 1 6 18
  33              		.loc 1 6 11 is_stmt 0
  34 0018 03C50400 		lbu	a0,0(s1)
  35              		.loc 1 6 18
  36 001c 630A0500 		beqz	a0,.L1
   7:src/printHelper.cpp ****         __putc(*string);
  37              		.loc 1 7 9 is_stmt 1
  38              		.loc 1 7 15 is_stmt 0
  39 0020 97000000 		call	__putc
  39      E7800000 
  40              	.LVL2:
   8:src/printHelper.cpp ****         string++;
  41              		.loc 1 8 9 is_stmt 1
  42              		.loc 1 8 15 is_stmt 0
  43 0028 93841400 		addi	s1,s1,1
  44              	.LVL3:
   6:src/printHelper.cpp ****     while(*string!='\0'){
  45              		.loc 1 6 5
  46 002c 6FF0DFFE 		j	.L3
  47              	.L1:
   9:src/printHelper.cpp ****     }
GAS LISTING /tmp/ccIvP0QD.s 			page 2


  10:src/printHelper.cpp **** 
  11:src/printHelper.cpp **** }
  48              		.loc 1 11 1
  49 0030 83308101 		ld	ra,24(sp)
  50              		.cfi_restore 1
  51 0034 03340101 		ld	s0,16(sp)
  52              		.cfi_restore 8
  53              		.cfi_def_cfa 2, 32
  54 0038 83348100 		ld	s1,8(sp)
  55              		.cfi_restore 9
  56              	.LVL4:
  57 003c 13010102 		addi	sp,sp,32
  58              		.cfi_def_cfa_offset 0
  59 0040 67800000 		jr	ra
  60              		.cfi_endproc
  61              	.LFE0:
  63              		.align	2
  64              		.globl	_Z12printIntegerm
  66              	_Z12printIntegerm:
  67              	.LFB1:
  12:src/printHelper.cpp **** 
  13:src/printHelper.cpp **** void printInteger(uint64 integer){
  68              		.loc 1 13 34 is_stmt 1
  69              		.cfi_startproc
  70              	.LVL5:
  71 0044 130101FD 		addi	sp,sp,-48
  72              		.cfi_def_cfa_offset 48
  73 0048 23341102 		sd	ra,40(sp)
  74 004c 23308102 		sd	s0,32(sp)
  75 0050 233C9100 		sd	s1,24(sp)
  76              		.cfi_offset 1, -8
  77              		.cfi_offset 8, -16
  78              		.cfi_offset 9, -24
  79 0054 13040103 		addi	s0,sp,48
  80              		.cfi_def_cfa 8, 0
  14:src/printHelper.cpp ****     static char digits[]="0123456789";
  81              		.loc 1 14 5
  15:src/printHelper.cpp ****     char buf[16];
  82              		.loc 1 15 5
  16:src/printHelper.cpp ****     int i,neg;
  83              		.loc 1 16 5
  17:src/printHelper.cpp ****     uint x;
  84              		.loc 1 17 5
  18:src/printHelper.cpp **** 
  19:src/printHelper.cpp ****     neg=0;
  85              		.loc 1 19 5
  86              	.LVL6:
  20:src/printHelper.cpp ****     if(integer<0){
  87              		.loc 1 20 5
  21:src/printHelper.cpp ****         neg=1;
  22:src/printHelper.cpp ****         x=-integer;
  23:src/printHelper.cpp ****     }
  24:src/printHelper.cpp ****     else{
  25:src/printHelper.cpp ****         x=integer;
  88              		.loc 1 25 9
  89              		.loc 1 25 10 is_stmt 0
  90 0058 1B050500 		sext.w	a0,a0
GAS LISTING /tmp/ccIvP0QD.s 			page 3


  91              	.LVL7:
  26:src/printHelper.cpp ****     }
  27:src/printHelper.cpp ****     i=0;
  92              		.loc 1 27 5 is_stmt 1
  93              		.loc 1 27 6 is_stmt 0
  94 005c 93040000 		li	s1,0
  95              	.LVL8:
  96              	.L6:
  28:src/printHelper.cpp ****     do{
  97              		.loc 1 28 5 is_stmt 1
  29:src/printHelper.cpp ****         buf[i++]=digits[x%10];
  98              		.loc 1 29 9
  99              		.loc 1 29 26 is_stmt 0
 100 0060 1306A000 		li	a2,10
 101 0064 3B77C502 		remuw	a4,a0,a2
 102              	.LVL9:
 103              		.loc 1 29 29
 104 0068 93160702 		slli	a3,a4,32
 105 006c 93D60602 		srli	a3,a3,32
 106 0070 17070000 		lla	a4,.LANCHOR0
 106      13070700 
 107 0078 3307D700 		add	a4,a4,a3
 108 007c 03470700 		lbu	a4,0(a4)
 109              		.loc 1 29 17
 110 0080 930604FE 		addi	a3,s0,-32
 111 0084 B3879600 		add	a5,a3,s1
 112 0088 9B841400 		addiw	s1,s1,1
 113              	.LVL10:
 114 008c 2388E7FE 		sb	a4,-16(a5)
  30:src/printHelper.cpp ****     } while((x/=10)!=0);
 115              		.loc 1 30 20 is_stmt 1
 116 0090 1B070500 		sext.w	a4,a0
 117              		.loc 1 30 15 is_stmt 0
 118 0094 3B55C502 		divuw	a0,a0,a2
 119              	.LVL11:
 120              		.loc 1 30 20
 121 0098 93079000 		li	a5,9
 122 009c E3E2E7FC 		bgtu	a4,a5,.L6
 123              	.LVL12:
 124              	.L8:
  31:src/printHelper.cpp ****     if(neg){
  32:src/printHelper.cpp ****         buf[i++]='-';
  33:src/printHelper.cpp ****     }
  34:src/printHelper.cpp ****     while(--i>=0){
 125              		.loc 1 34 5 is_stmt 1
 126              		.loc 1 34 14
 127 00a0 9B84F4FF 		addiw	s1,s1,-1
 128              	.LVL13:
 129 00a4 63CE0400 		bltz	s1,.L5
  35:src/printHelper.cpp ****         __putc(buf[i]);
 130              		.loc 1 35 9
 131              		.loc 1 35 15 is_stmt 0
 132 00a8 930704FE 		addi	a5,s0,-32
 133 00ac B3879700 		add	a5,a5,s1
 134 00b0 03C507FF 		lbu	a0,-16(a5)
 135 00b4 97000000 		call	__putc
 135      E7800000 
GAS LISTING /tmp/ccIvP0QD.s 			page 4


 136              	.LVL14:
 137 00bc 6FF05FFE 		j	.L8
 138              	.L5:
  36:src/printHelper.cpp ****     }
  37:src/printHelper.cpp **** 
  38:src/printHelper.cpp **** }...
 139              		.loc 1 38 1
 140 00c0 83308102 		ld	ra,40(sp)
 141              		.cfi_restore 1
 142 00c4 03340102 		ld	s0,32(sp)
 143              		.cfi_restore 8
 144              		.cfi_def_cfa 2, 48
 145 00c8 83348101 		ld	s1,24(sp)
 146              		.cfi_restore 9
 147 00cc 13010103 		addi	sp,sp,48
 148              		.cfi_def_cfa_offset 0
 149 00d0 67800000 		jr	ra
 150              		.cfi_endproc
 151              	.LFE1:
 153              		.section	.rodata
 154              		.align	3
 155              		.set	.LANCHOR0,. + 0
 158              	_ZZ12printIntegermE6digits:
 159 0000 30313233 		.string	"0123456789"
 159      34353637 
 159      383900
 160              		.text
 161              	.Letext0:
 162              		.file 2 "src/../h/../lib/hw.h"
 163              		.file 3 "src/../lib/console.h"
GAS LISTING /tmp/ccIvP0QD.s 			page 5

