GAS LISTING /tmp/ccIvP0QD.s 			page 1


   1              		.file	"printHelper.cpp"
   2              		.option nopic
   3              		.option norelax
   4              		.attribute arch, "rv64i2p0_m2p0_a2p0"
   5              		.attribute unaligned_access, 0
   6              		.attribute stack_align, 16
   7              		.text
   8              	.Ltext0:
   9              		.align	2
  10              		.globl	_Z11printStringPKc
  12              	_Z11printStringPKc:
  13              	.LFB0:
  14              		.file 1 "src/printHelper.cpp"
   1:src/printHelper.cpp **** 
   2:src/printHelper.cpp **** #include "../h/printHelper.hpp"
   3:src/printHelper.cpp **** #include "../lib/console.h"
   4:src/printHelper.cpp **** 
   5:src/printHelper.cpp **** void printString(char const *string){
  15              		.loc 1 5 37
  16              		.cfi_startproc
  17              	.LVL0:
  18 0000 130101FE 		addi	sp,sp,-32
  19              		.cfi_def_cfa_offset 32
  20 0004 233C1100 		sd	ra,24(sp)
  21 0008 23388100 		sd	s0,16(sp)
  22 000c 23349100 		sd	s1,8(sp)
  23              		.cfi_offset 1, -8
  24              		.cfi_offset 8, -16
  25              		.cfi_offset 9, -24
  26 0010 13040102 		addi	s0,sp,32
  27              		.cfi_def_cfa 8, 0
  28 0014 93040500 		mv	s1,a0
  29              	.LVL1:
  30              	.L3:
   6:src/printHelper.cpp ****     while(*string!='\0'){
  31              		.loc 1 6 5
  32              		.loc 1 6 18
  33              		.loc 1 6 11 is_stmt 0
  34 0018 03C50400 		lbu	a0,0(s1)
  35              		.loc 1 6 18
  36 001c 630A0500 		beqz	a0,.L1
   7:src/printHelper.cpp ****         __putc(*string);
  37              		.loc 1 7 9 is_stmt 1
  38              		.loc 1 7 15 is_stmt 0
  39 0020 97000000 		call	__putc
  39      E7800000 
  40              	.LVL2:
   8:src/printHelper.cpp ****         string++;
  41              		.loc 1 8 9 is_stmt 1
  42              		.loc 1 8 15 is_stmt 0
  43 0028 93841400 		addi	s1,s1,1
  44              	.LVL3:
   6:src/printHelper.cpp ****     while(*string!='\0'){
  45              		.loc 1 6 5
  46 002c 6FF0DFFE 		j	.L3
  47              	.L1:
   9:src/printHelper.cpp ****     }
GAS LISTING /tmp/ccIvP0QD.s 			page 2


  10:src/printHelper.cpp **** 
  11:src/printHelper.cpp **** }
  48              		.loc 1 11 1
  49 0030 83308101 		ld	ra,24(sp)
  50              		.cfi_restore 1
  51 0034 03340101 		ld	s0,16(sp)
  52              		.cfi_restore 8
  53              		.cfi_def_cfa 2, 32
  54 0038 83348100 		ld	s1,8(sp)
  55              		.cfi_restore 9
  56              	.LVL4:
  57 003c 13010102 		addi	sp,sp,32
  58              		.cfi_def_cfa_offset 0
  59 0040 67800000 		jr	ra
  60              		.cfi_endproc
  61              	.LFE0:
  63              		.align	2
  64              		.globl	_Z12printIntegerm
  66              	_Z12printIntegerm:
  67              	.LFB1:
  12:src/printHelper.cpp **** 
  13:src/printHelper.cpp **** void printInteger(uint64 integer){
  68              		.loc 1 13 34 is_stmt 1
  69              		.cfi_startproc
  70              	.LVL5:
  71 0044 130101FD 		addi	sp,sp,-48
  72              		.cfi_def_cfa_offset 48
  73 0048 23341102 		sd	ra,40(sp)
  74 004c 23308102 		sd	s0,32(sp)
  75 0050 233C9100 		sd	s1,24(sp)
  76              		.cfi_offset 1, -8
  77              		.cfi_offset 8, -16
  78              		.cfi_offset 9, -24
  79 0054 13040103 		addi	s0,sp,48
  80              		.cfi_def_cfa 8, 0
  14:src/printHelper.cpp ****     static char digits[]="0123456789";
  81              		.loc 1 14 5
  15:src/printHelper.cpp ****     char buf[16];
  82              		.loc 1 15 5
  16:src/printHelper.cpp ****     int i,neg;
  83              		.loc 1 16 5
  17:src/printHelper.cpp ****     uint x;
  84              		.loc 1 17 5
  18:src/printHelper.cpp **** 
  19:src/printHelper.cpp ****     neg=0;
  85              		.loc 1 19 5
  86              	.LVL6:
  20:src/printHelper.cpp ****     if(integer<0){
  87              		.loc 1 20 5
  21:src/printHelper.cpp ****         neg=1;
  22:src/printHelper.cpp ****         x=-integer;
  23:src/printHelper.cpp ****     }
  24:src/printHelper.cpp ****     else{
  25:src/printHelper.cpp ****         x=integer;
  88              		.loc 1 25 9
  89              		.loc 1 25 10 is_stmt 0
  90 0058 1B050500 		sext.w	a0,a0
GAS LISTING /tmp/ccIvP0QD.s 			page 3


  91              	.LVL7:
  26:src/printHelper.cpp ****     }
  27:src/printHelper.cpp ****     i=0;
  92              		.loc 1 27 5 is_stmt 1
  93              		.loc 1 27 6 is_stmt 0
  94 005c 93040000 		li	s1,0
  95              	.LVL8:
  96              	.L6:
  28:src/printHelper.cpp ****     do{
  97              		.loc 1 28 5 is_stmt 1
  29:src/printHelper.cpp ****         buf[i++]=digits[x%10];
  98              		.loc 1 29 9
  99              		.loc 1 29 26 is_stmt 0
 100 0060 1306A000 		li	a2,10
 101 0064 3B77C502 		remuw	a4,a0,a2
 102              	.LVL9:
 103              		.loc 1 29 29
 104 0068 93160702 		slli	a3,a4,32
 105 006c 93D60602 		srli	a3,a3,32
 106 0070 17070000 		lla	a4,.LANCHOR0
 106      13070700 
 107 0078 3307D700 		add	a4,a4,a3
 108 007c 03470700 		lbu	a4,0(a4)
 109              		.loc 1 29 17
 110 0080 930604FE 		addi	a3,s0,-32
 111 0084 B3879600 		add	a5,a3,s1
 112 0088 9B841400 		addiw	s1,s1,1
 113              	.LVL10:
 114 008c 2388E7FE 		sb	a4,-16(a5)
  30:src/printHelper.cpp ****     } while((x/=10)!=0);
 115              		.loc 1 30 20 is_stmt 1
 116 0090 1B070500 		sext.w	a4,a0
 117              		.loc 1 30 15 is_stmt 0
 118 0094 3B55C502 		divuw	a0,a0,a2
 119              	.LVL11:
 120              		.loc 1 30 20
 121 0098 93079000 		li	a5,9
 122 009c E3E2E7FC 		bgtu	a4,a5,.L6
 123              	.LVL12:
 124              	.L8:
  31:src/printHelper.cpp ****     if(neg){
  32:src/printHelper.cpp ****         buf[i++]='-';
  33:src/printHelper.cpp ****     }
  34:src/printHelper.cpp ****     while(--i>=0){
 125              		.loc 1 34 5 is_stmt 1
 126              		.loc 1 34 14
 127 00a0 9B84F4FF 		addiw	s1,s1,-1
 128              	.LVL13:
 129 00a4 63CE0400 		bltz	s1,.L5
  35:src/printHelper.cpp ****         __putc(buf[i]);
 130              		.loc 1 35 9
 131              		.loc 1 35 15 is_stmt 0
 132 00a8 930704FE 		addi	a5,s0,-32
 133 00ac B3879700 		add	a5,a5,s1
 134 00b0 03C507FF 		lbu	a0,-16(a5)
 135 00b4 97000000 		call	__putc
 135      E7800000 
GAS LISTING /tmp/ccIvP0QD.s 			page 4


 136              	.LVL14:
 137 00bc 6FF05FFE 		j	.L8
 138              	.L5:
  36:src/printHelper.cpp ****     }
  37:src/printHelper.cpp **** 
  38:src/printHelper.cpp **** }...
 139              		.loc 1 38 1
 140 00c0 83308102 		ld	ra,40(sp)
 141              		.cfi_restore 1
 142 00c4 03340102 		ld	s0,32(sp)
 143              		.cfi_restore 8
 144              		.cfi_def_cfa 2, 48
 145 00c8 83348101 		ld	s1,24(sp)
 146              		.cfi_restore 9
 147 00cc 13010103 		addi	sp,sp,48
 148              		.cfi_def_cfa_offset 0
 149 00d0 67800000 		jr	ra
 150              		.cfi_endproc
 151              	.LFE1:
 153              		.section	.rodata
 154              		.align	3
 155              		.set	.LANCHOR0,. + 0
 158              	_ZZ12printIntegermE6digits:
 159 0000 30313233 		.string	"0123456789"
 159      34353637 
 159      383900
 160              		.text
 161              	.Letext0:
 162              		.file 2 "src/../h/../lib/hw.h"
 163              		.file 3 "src/../lib/console.h"
GAS LISTING /tmp/ccIvP0QD.s 			page 5


DEFINED SYMBOLS
                            *ABS*:0000000000000000 printHelper.cpp
     /tmp/ccIvP0QD.s:12     .text:0000000000000000 _Z11printStringPKc
     /tmp/ccIvP0QD.s:16     .text:0000000000000000 .L0 
     /tmp/ccIvP0QD.s:18     .text:0000000000000000 .L0 
     /tmp/ccIvP0QD.s:19     .text:0000000000000004 .L0 
     /tmp/ccIvP0QD.s:23     .text:0000000000000010 .L0 
     /tmp/ccIvP0QD.s:24     .text:0000000000000010 .L0 
     /tmp/ccIvP0QD.s:25     .text:0000000000000010 .L0 
     /tmp/ccIvP0QD.s:27     .text:0000000000000014 .L0 
     /tmp/ccIvP0QD.s:32     .text:0000000000000018 .L0 
     /tmp/ccIvP0QD.s:33     .text:0000000000000018 .L0 
     /tmp/ccIvP0QD.s:34     .text:0000000000000018 .L0 
     /tmp/ccIvP0QD.s:36     .text:000000000000001c .L0 
     /tmp/ccIvP0QD.s:38     .text:0000000000000020 .L0 
     /tmp/ccIvP0QD.s:39     .text:0000000000000020 .L0 
     /tmp/ccIvP0QD.s:42     .text:0000000000000028 .L0 
     /tmp/ccIvP0QD.s:43     .text:0000000000000028 .L0 
     /tmp/ccIvP0QD.s:46     .text:000000000000002c .L0 
     /tmp/ccIvP0QD.s:49     .text:0000000000000030 .L0 
     /tmp/ccIvP0QD.s:50     .text:0000000000000034 .L0 
     /tmp/ccIvP0QD.s:52     .text:0000000000000038 .L0 
     /tmp/ccIvP0QD.s:53     .text:0000000000000038 .L0 
     /tmp/ccIvP0QD.s:55     .text:000000000000003c .L0 
     /tmp/ccIvP0QD.s:58     .text:0000000000000040 .L0 
     /tmp/ccIvP0QD.s:60     .text:0000000000000044 .L0 
     /tmp/ccIvP0QD.s:66     .text:0000000000000044 _Z12printIntegerm
     /tmp/ccIvP0QD.s:69     .text:0000000000000044 .L0 
     /tmp/ccIvP0QD.s:71     .text:0000000000000044 .L0 
     /tmp/ccIvP0QD.s:72     .text:0000000000000048 .L0 
     /tmp/ccIvP0QD.s:76     .text:0000000000000054 .L0 
     /tmp/ccIvP0QD.s:77     .text:0000000000000054 .L0 
     /tmp/ccIvP0QD.s:78     .text:0000000000000054 .L0 
     /tmp/ccIvP0QD.s:80     .text:0000000000000058 .L0 
     /tmp/ccIvP0QD.s:82     .text:0000000000000058 .L0 
     /tmp/ccIvP0QD.s:83     .text:0000000000000058 .L0 
     /tmp/ccIvP0QD.s:84     .text:0000000000000058 .L0 
     /tmp/ccIvP0QD.s:85     .text:0000000000000058 .L0 
     /tmp/ccIvP0QD.s:87     .text:0000000000000058 .L0 
     /tmp/ccIvP0QD.s:88     .text:0000000000000058 .L0 
     /tmp/ccIvP0QD.s:89     .text:0000000000000058 .L0 
     /tmp/ccIvP0QD.s:90     .text:0000000000000058 .L0 
     /tmp/ccIvP0QD.s:93     .text:000000000000005c .L0 
     /tmp/ccIvP0QD.s:94     .text:000000000000005c .L0 
     /tmp/ccIvP0QD.s:98     .text:0000000000000060 .L0 
     /tmp/ccIvP0QD.s:99     .text:0000000000000060 .L0 
     /tmp/ccIvP0QD.s:100    .text:0000000000000060 .L0 
     /tmp/ccIvP0QD.s:104    .text:0000000000000068 .L0 
     /tmp/ccIvP0QD.s:110    .text:0000000000000080 .L0 
     /tmp/ccIvP0QD.s:116    .text:0000000000000090 .L0 
     /tmp/ccIvP0QD.s:118    .text:0000000000000094 .L0 
     /tmp/ccIvP0QD.s:121    .text:0000000000000098 .L0 
     /tmp/ccIvP0QD.s:126    .text:00000000000000a0 .L0 
     /tmp/ccIvP0QD.s:127    .text:00000000000000a0 .L0 
     /tmp/ccIvP0QD.s:131    .text:00000000000000a8 .L0 
     /tmp/ccIvP0QD.s:132    .text:00000000000000a8 .L0 
     /tmp/ccIvP0QD.s:140    .text:00000000000000c0 .L0 
GAS LISTING /tmp/ccIvP0QD.s 			page 6


     /tmp/ccIvP0QD.s:141    .text:00000000000000c4 .L0 
     /tmp/ccIvP0QD.s:143    .text:00000000000000c8 .L0 
     /tmp/ccIvP0QD.s:144    .text:00000000000000c8 .L0 
     /tmp/ccIvP0QD.s:146    .text:00000000000000cc .L0 
     /tmp/ccIvP0QD.s:148    .text:00000000000000d0 .L0 
     /tmp/ccIvP0QD.s:150    .text:00000000000000d4 .L0 
     /tmp/ccIvP0QD.s:155    .rodata:0000000000000000 .LANCHOR0
     /tmp/ccIvP0QD.s:158    .rodata:0000000000000000 _ZZ12printIntegermE6digits
     /tmp/ccIvP0QD.s:164    .text:00000000000000d4 .L0 
     /tmp/ccIvP0QD.s:106    .text:0000000000000070 .L0 
     /tmp/ccIvP0QD.s:47     .text:0000000000000030 .L1
     /tmp/ccIvP0QD.s:30     .text:0000000000000018 .L3
     /tmp/ccIvP0QD.s:96     .text:0000000000000060 .L6
     /tmp/ccIvP0QD.s:138    .text:00000000000000c0 .L5
     /tmp/ccIvP0QD.s:124    .text:00000000000000a0 .L8
     /tmp/ccIvP0QD.s:425    .debug_abbrev:0000000000000000 .Ldebug_abbrev0
     /tmp/ccIvP0QD.s:833    .debug_str:000000000000004d .LASF26
     /tmp/ccIvP0QD.s:873    .debug_str:000000000000022b .LASF27
     /tmp/ccIvP0QD.s:867    .debug_str:00000000000001f3 .LASF28
     /tmp/ccIvP0QD.s:8      .text:0000000000000000 .Ltext0
     /tmp/ccIvP0QD.s:161    .text:00000000000000d4 .Letext0
     /tmp/ccIvP0QD.s:817    .debug_line:0000000000000000 .Ldebug_line0
     /tmp/ccIvP0QD.s:821    .debug_str:0000000000000007 .LASF0
     /tmp/ccIvP0QD.s:831    .debug_str:0000000000000048 .LASF3
     /tmp/ccIvP0QD.s:863    .debug_str:00000000000001d0 .LASF1
     /tmp/ccIvP0QD.s:845    .debug_str:0000000000000151 .LASF2
     /tmp/ccIvP0QD.s:841    .debug_str:000000000000013e .LASF4
     /tmp/ccIvP0QD.s:835    .debug_str:0000000000000111 .LASF5
     /tmp/ccIvP0QD.s:827    .debug_str:0000000000000031 .LASF6
     /tmp/ccIvP0QD.s:839    .debug_str:000000000000012b .LASF7
     /tmp/ccIvP0QD.s:861    .debug_str:00000000000001bd .LASF8
     /tmp/ccIvP0QD.s:871    .debug_str:000000000000021b .LASF9
     /tmp/ccIvP0QD.s:823    .debug_str:0000000000000014 .LASF10
     /tmp/ccIvP0QD.s:825    .debug_str:0000000000000022 .LASF11
     /tmp/ccIvP0QD.s:869    .debug_str:000000000000020c .LASF12
     /tmp/ccIvP0QD.s:829    .debug_str:0000000000000038 .LASF13
     /tmp/ccIvP0QD.s:865    .debug_str:00000000000001e3 .LASF14
     /tmp/ccIvP0QD.s:843    .debug_str:0000000000000145 .LASF15
     /tmp/ccIvP0QD.s:857    .debug_str:000000000000019a .LASF16
     /tmp/ccIvP0QD.s:851    .debug_str:000000000000016b .LASF17
     /tmp/ccIvP0QD.s:859    .debug_str:00000000000001b0 .LASF20
     /tmp/ccIvP0QD.s:853    .debug_str:0000000000000181 .LASF22
     /tmp/ccIvP0QD.s:67     .text:0000000000000044 .LFB1
     /tmp/ccIvP0QD.s:151    .text:00000000000000d4 .LFE1
     /tmp/ccIvP0QD.s:837    .debug_str:0000000000000123 .LASF24
     /tmp/ccIvP0QD.s:735    .debug_loc:0000000000000000 .LLST1
     /tmp/ccIvP0QD.s:855    .debug_str:0000000000000193 .LASF18
     /tmp/ccIvP0QD.s:749    .debug_loc:0000000000000039 .LLST2
     /tmp/ccIvP0QD.s:771    .debug_loc:0000000000000098 .LLST3
     /tmp/ccIvP0QD.s:136    .text:00000000000000bc .LVL14
     /tmp/ccIvP0QD.s:847    .debug_str:000000000000015f .LASF19
     /tmp/ccIvP0QD.s:875    .debug_str:000000000000023f .LASF21
     /tmp/ccIvP0QD.s:877    .debug_str:000000000000024b .LASF23
     /tmp/ccIvP0QD.s:13     .text:0000000000000000 .LFB0
     /tmp/ccIvP0QD.s:61     .text:0000000000000044 .LFE0
     /tmp/ccIvP0QD.s:819    .debug_str:0000000000000000 .LASF25
     /tmp/ccIvP0QD.s:793    .debug_loc:00000000000000d9 .LLST0
GAS LISTING /tmp/ccIvP0QD.s 			page 7


     /tmp/ccIvP0QD.s:40     .text:0000000000000028 .LVL2
     /tmp/ccIvP0QD.s:849    .debug_str:0000000000000164 .LASF29
     /tmp/ccIvP0QD.s:70     .text:0000000000000044 .LVL5
     /tmp/ccIvP0QD.s:91     .text:000000000000005c .LVL7
     /tmp/ccIvP0QD.s:95     .text:0000000000000060 .LVL8
     /tmp/ccIvP0QD.s:102    .text:0000000000000068 .LVL9
     /tmp/ccIvP0QD.s:113    .text:000000000000008c .LVL10
     /tmp/ccIvP0QD.s:123    .text:00000000000000a0 .LVL12
     /tmp/ccIvP0QD.s:128    .text:00000000000000a4 .LVL13
     /tmp/ccIvP0QD.s:119    .text:0000000000000098 .LVL11
     /tmp/ccIvP0QD.s:17     .text:0000000000000000 .LVL0
     /tmp/ccIvP0QD.s:29     .text:0000000000000018 .LVL1
     /tmp/ccIvP0QD.s:56     .text:000000000000003c .LVL4
     /tmp/ccIvP0QD.s:165    .debug_info:0000000000000000 .Ldebug_info0

UNDEFINED SYMBOLS
__putc
