GAS LISTING /tmp/ccnycNcq.s 			page 1


   1              		.file	"Riscv.cpp"
   2              		.option nopic
   3              		.option norelax
   4              		.attribute arch, "rv64i2p0_m2p0_a2p0"
   5              		.attribute unaligned_access, 0
   6              		.attribute stack_align, 16
   7              		.text
   8              	.Ltext0:
   9              		.align	2
  10              		.globl	_ZN5Riscv10popSppSpieEv
  12              	_ZN5Riscv10popSppSpieEv:
  13              	.LFB18:
  14              		.file 1 "src/Riscv.cpp"
   1:src/Riscv.cpp **** #include "../h/Riscv.hpp"
   2:src/Riscv.cpp **** 
   3:src/Riscv.cpp **** void Riscv::popSppSpie() {
  15              		.loc 1 3 26
  16              		.cfi_startproc
  17 0000 130101FF 		addi	sp,sp,-16
  18              		.cfi_def_cfa_offset 16
  19 0004 23348100 		sd	s0,8(sp)
  20              		.cfi_offset 8, -8
  21 0008 13040101 		addi	s0,sp,16
  22              		.cfi_def_cfa 8, 0
   4:src/Riscv.cpp ****     __asm__ volatile ("csrw sepc,ra");
  23              		.loc 1 4 5
  24              		.loc 1 4 38 is_stmt 0
  25              	 #APP
  26              	# 4 "src/Riscv.cpp" 1
   5              	    __asm__ volatile ("sret");
  27              		csrw sepc,ra
  28              	# 0 "" 2
  29              		.loc 1 5 5 is_stmt 1
  30              		.loc 1 5 30 is_stmt 0
  31              	# 5 "src/Riscv.cpp" 1
   6              	}
  32              		sret
  33              	# 0 "" 2
  34              		.loc 1 6 1
  35              	 #NO_APP
  36 0014 03348100 		ld	s0,8(sp)
  37              		.cfi_restore 8
  38              		.cfi_def_cfa 2, 16
  39 0018 13010101 		addi	sp,sp,16
  40              		.cfi_def_cfa_offset 0
  41 001c 67800000 		jr	ra
  42              		.cfi_endproc
  43              	.LFE18:
  45              	.Letext0:
  46              		.file 2 "src/../h/../lib/hw.h"
  47              		.file 3 "src/../h/Riscv.hpp"
GAS LISTING /tmp/ccnycNcq.s 			page 2

