GAS LISTING /tmp/ccInc7Kq.s 			page 1


   1              		.file	"Scheduler.cpp"
   2              		.option nopic
   3              		.option norelax
   4              		.attribute arch, "rv64i2p0_m2p0_a2p0"
   5              		.attribute unaligned_access, 0
   6              		.attribute stack_align, 16
   7              		.text
   8              	.Ltext0:
   9              		.align	2
  10              		.globl	_ZN9SchedulerC2Ev
  12              	_ZN9SchedulerC2Ev:
  13              	.LFB10:
  14              		.file 1 "src/Scheduler.cpp"
   1:src/Scheduler.cpp **** #include "../h/Scheduler.hpp"
   2:src/Scheduler.cpp **** 
   3:src/Scheduler.cpp **** 
   4:src/Scheduler.cpp **** Scheduler& Scheduler::getInstance(){
   5:src/Scheduler.cpp ****     static Scheduler instance;
   6:src/Scheduler.cpp ****     return instance;
   7:src/Scheduler.cpp **** }
   8:src/Scheduler.cpp **** 
   9:src/Scheduler.cpp **** Scheduler::Scheduler(){}
  15              		.loc 1 9 1
  16              		.cfi_startproc
  17              	.LVL0:
  18 0000 130101FF 		addi	sp,sp,-16
  19              		.cfi_def_cfa_offset 16
  20 0004 23348100 		sd	s0,8(sp)
  21              		.cfi_offset 8, -8
  22 0008 13040101 		addi	s0,sp,16
  23              		.cfi_def_cfa 8, 0
  24              	.LVL1:
  25              	.LBB14:
  26              	.LBB15:
  27              		.file 2 "src/../h/List.hpp"
   1:src/../h/List.hpp **** #ifndef LIST_HPP
   2:src/../h/List.hpp **** #define LIST_HPP
   3:src/../h/List.hpp **** 
   4:src/../h/List.hpp **** 
   5:src/../h/List.hpp **** template<typename T>
   6:src/../h/List.hpp **** class List{
   7:src/../h/List.hpp **** public:
   8:src/../h/List.hpp ****     List():head(0),tail(0){}
  28              		.loc 2 8 26 is_stmt 0
  29 000c 23300500 		sd	zero,0(a0)
  30 0010 23340500 		sd	zero,8(a0)
  31              	.LVL2:
  32              	.LBE15:
  33              	.LBE14:
  34              		.loc 1 9 24
  35 0014 03348100 		ld	s0,8(sp)
  36              		.cfi_restore 8
  37              		.cfi_def_cfa 2, 16
  38 0018 13010101 		addi	sp,sp,16
  39              		.cfi_def_cfa_offset 0
  40 001c 67800000 		jr	ra
  41              		.cfi_endproc
GAS LISTING /tmp/ccInc7Kq.s 			page 2


  42              	.LFE10:
  44              		.globl	_ZN9SchedulerC1Ev
  45              		.set	_ZN9SchedulerC1Ev,_ZN9SchedulerC2Ev
  46              		.align	2
  47              		.globl	_ZN9Scheduler11getInstanceEv
  49              	_ZN9Scheduler11getInstanceEv:
  50              	.LFB8:
   4:src/Scheduler.cpp ****     static Scheduler instance;
  51              		.loc 1 4 36 is_stmt 1
  52              		.cfi_startproc
   5:src/Scheduler.cpp ****     return instance;
  53              		.loc 1 5 5
   5:src/Scheduler.cpp ****     return instance;
  54              		.loc 1 5 22 is_stmt 0
  55 0020 97070000 		lbu	a5,_ZGVZN9Scheduler11getInstanceEvE8instance
  55      83C70700 
  56 0028 63880700 		beqz	a5,.L9
   6:src/Scheduler.cpp **** }
  57              		.loc 1 6 5 is_stmt 1
   7:src/Scheduler.cpp **** 
  58              		.loc 1 7 1 is_stmt 0
  59 002c 17050000 		lla	a0,.LANCHOR0
  59      13050500 
  60 0034 67800000 		ret
  61              	.L9:
   4:src/Scheduler.cpp ****     static Scheduler instance;
  62              		.loc 1 4 36 discriminator 1
  63 0038 130101FF 		addi	sp,sp,-16
  64              		.cfi_def_cfa_offset 16
  65 003c 23341100 		sd	ra,8(sp)
  66 0040 23308100 		sd	s0,0(sp)
  67              		.cfi_offset 1, -8
  68              		.cfi_offset 8, -16
  69 0044 13040101 		addi	s0,sp,16
  70              		.cfi_def_cfa 8, 0
   5:src/Scheduler.cpp ****     return instance;
  71              		.loc 1 5 22 discriminator 1
  72 0048 17050000 		lla	a0,.LANCHOR0
  72      13050500 
  73 0050 97000000 		call	_ZN9SchedulerC1Ev
  73      E7800000 
  74              	.LVL3:
  75 0058 93071000 		li	a5,1
  76 005c 17070000 		sb	a5,_ZGVZN9Scheduler11getInstanceEvE8instance,a4
  76      2300F700 
   6:src/Scheduler.cpp **** }
  77              		.loc 1 6 5 is_stmt 1 discriminator 1
   7:src/Scheduler.cpp **** 
  78              		.loc 1 7 1 is_stmt 0 discriminator 1
  79 0064 17050000 		lla	a0,.LANCHOR0
  79      13050500 
  80 006c 83308100 		ld	ra,8(sp)
  81              		.cfi_restore 1
  82 0070 03340100 		ld	s0,0(sp)
  83              		.cfi_restore 8
  84              		.cfi_def_cfa 2, 16
  85 0074 13010101 		addi	sp,sp,16
GAS LISTING /tmp/ccInc7Kq.s 			page 3


  86              		.cfi_def_cfa_offset 0
  87 0078 67800000 		jr	ra
  88              		.cfi_endproc
  89              	.LFE8:
  91              		.align	2
  92              		.globl	_ZN9Scheduler3putEP3TCB
  94              	_ZN9Scheduler3putEP3TCB:
  95              	.LFB12:
  10:src/Scheduler.cpp **** 
  11:src/Scheduler.cpp **** void Scheduler::put(TCB* t){
  96              		.loc 1 11 28 is_stmt 1
  97              		.cfi_startproc
  98              	.LVL4:
  12:src/Scheduler.cpp ****     if(t!=nullptr) Scheduler::getInstance().ready.addFirst(t);
  99              		.loc 1 12 5
 100 007c 63080506 		beqz	a0,.L13
  11:src/Scheduler.cpp ****     if(t!=nullptr) Scheduler::getInstance().ready.addFirst(t);
 101              		.loc 1 11 28 is_stmt 0 discriminator 1
 102 0080 130101FE 		addi	sp,sp,-32
 103              		.cfi_def_cfa_offset 32
 104 0084 233C1100 		sd	ra,24(sp)
 105 0088 23388100 		sd	s0,16(sp)
 106 008c 23349100 		sd	s1,8(sp)
 107 0090 23302101 		sd	s2,0(sp)
 108              		.cfi_offset 1, -8
 109              		.cfi_offset 8, -16
 110              		.cfi_offset 9, -24
 111              		.cfi_offset 18, -32
 112 0094 13040102 		addi	s0,sp,32
 113              		.cfi_def_cfa 8, 0
 114 0098 93040500 		mv	s1,a0
 115              		.loc 1 12 20 is_stmt 1 discriminator 1
 116              		.loc 1 12 43 is_stmt 0 discriminator 1
 117 009c 97000000 		call	_ZN9Scheduler11getInstanceEv
 117      E7800000 
 118              	.LVL5:
 119 00a4 13090500 		mv	s2,a0
 120              	.LVL6:
 121              	.LBB16:
 122              	.LBB17:
   9:src/../h/List.hpp **** 
  10:src/../h/List.hpp ****     List(const List<T> &)=delete;
  11:src/../h/List.hpp **** 
  12:src/../h/List.hpp ****     List<T> &operator=(const List<T> &)=delete;
  13:src/../h/List.hpp **** 
  14:src/../h/List.hpp ****     void addFirst(T *data){
  15:src/../h/List.hpp ****         Elem *elem=new Elem(data,head);
 123              		.loc 2 15 20 discriminator 1
 124 00a8 13050001 		li	a0,16
 125              	.LVL7:
 126 00ac 97000000 		call	_Znwm
 126      E7800000 
 127              	.LVL8:
 128 00b4 83370900 		ld	a5,0(s2)
 129              	.LVL9:
 130              	.LBB18:
 131              	.LBB19:
GAS LISTING /tmp/ccInc7Kq.s 			page 4


  16:src/../h/List.hpp ****         head=elem;
  17:src/../h/List.hpp ****         if(!tail) tail=head;
  18:src/../h/List.hpp ****     }
  19:src/../h/List.hpp **** 
  20:src/../h/List.hpp ****     void addLast(T *data){
  21:src/../h/List.hpp ****         Elem *elem=new Elem(data,nullptr);
  22:src/../h/List.hpp ****         if(tail){
  23:src/../h/List.hpp ****             tail->next=elem;
  24:src/../h/List.hpp ****             tail=tail->next;
  25:src/../h/List.hpp ****         }
  26:src/../h/List.hpp ****         else{
  27:src/../h/List.hpp ****             head=tail=elem;
  28:src/../h/List.hpp ****         }
  29:src/../h/List.hpp ****     }
  30:src/../h/List.hpp **** 
  31:src/../h/List.hpp ****     T* removeFirst(){
  32:src/../h/List.hpp ****         if(!head){
  33:src/../h/List.hpp ****             return 0;
  34:src/../h/List.hpp ****         }
  35:src/../h/List.hpp ****         Elem *elem=head;
  36:src/../h/List.hpp ****         head=head->next;
  37:src/../h/List.hpp ****         if(!head) {tail=0;}
  38:src/../h/List.hpp **** 
  39:src/../h/List.hpp ****         T *ret=elem->data;
  40:src/../h/List.hpp ****         delete elem;
  41:src/../h/List.hpp ****         return ret;
  42:src/../h/List.hpp ****     }
  43:src/../h/List.hpp **** 
  44:src/../h/List.hpp ****     T* peekFirst(){
  45:src/../h/List.hpp ****         if(!head) {return 0;}
  46:src/../h/List.hpp ****         return head->data;
  47:src/../h/List.hpp ****     }
  48:src/../h/List.hpp **** 
  49:src/../h/List.hpp ****     T* removeLast(){
  50:src/../h/List.hpp ****         if(!head) {return 0;}
  51:src/../h/List.hpp ****         Elem* prev=0;
  52:src/../h/List.hpp ****         for(Elem* curr=head;curr && curr!=tail;curr=curr->next){
  53:src/../h/List.hpp ****             prev=curr;
  54:src/../h/List.hpp ****         }
  55:src/../h/List.hpp ****         Elem *elem=tail;
  56:src/../h/List.hpp ****         if(prev) {prev->next=0;}
  57:src/../h/List.hpp ****         else{  head=0; }
  58:src/../h/List.hpp ****         tail=prev;
  59:src/../h/List.hpp ****         T* ret=elem->data;
  60:src/../h/List.hpp ****         delete elem;
  61:src/../h/List.hpp ****         return ret;
  62:src/../h/List.hpp **** 
  63:src/../h/List.hpp ****     }
  64:src/../h/List.hpp ****     T *peekLast(){
  65:src/../h/List.hpp ****         if(!tail) {return 0;}
  66:src/../h/List.hpp ****         return tail->data;
  67:src/../h/List.hpp ****     }
  68:src/../h/List.hpp **** private:
  69:src/../h/List.hpp ****     struct Elem{
  70:src/../h/List.hpp ****         T *data;
  71:src/../h/List.hpp ****         Elem *next;
  72:src/../h/List.hpp ****         Elem(T* data,Elem *next):data(data),next(next){}
GAS LISTING /tmp/ccInc7Kq.s 			page 5


 132              		.loc 2 72 54 discriminator 1
 133 00b8 23309500 		sd	s1,0(a0)
 134 00bc 2334F500 		sd	a5,8(a0)
 135              	.LVL10:
 136              	.LBE19:
 137              	.LBE18:
  16:src/../h/List.hpp ****         head=elem;
 138              		.loc 2 16 9 discriminator 1
 139 00c0 2330A900 		sd	a0,0(s2)
  17:src/../h/List.hpp ****     }
 140              		.loc 2 17 13 discriminator 1
 141 00c4 83378900 		ld	a5,8(s2)
  17:src/../h/List.hpp ****     }
 142              		.loc 2 17 9 discriminator 1
 143 00c8 638E0700 		beqz	a5,.L16
 144              	.LVL11:
 145              	.L10:
 146              	.LBE17:
 147              	.LBE16:
  13:src/Scheduler.cpp **** }
 148              		.loc 1 13 1
 149 00cc 83308101 		ld	ra,24(sp)
 150              		.cfi_remember_state
 151              		.cfi_restore 1
 152 00d0 03340101 		ld	s0,16(sp)
 153              		.cfi_restore 8
 154              		.cfi_def_cfa 2, 32
 155 00d4 83348100 		ld	s1,8(sp)
 156              		.cfi_restore 9
 157              	.LVL12:
 158 00d8 03390100 		ld	s2,0(sp)
 159              		.cfi_restore 18
 160 00dc 13010102 		addi	sp,sp,32
 161              		.cfi_def_cfa_offset 0
 162 00e0 67800000 		jr	ra
 163              	.LVL13:
 164              	.L16:
 165              		.cfi_restore_state
 166              	.LBB21:
 167              	.LBB20:
  17:src/../h/List.hpp ****     }
 168              		.loc 2 17 19
 169 00e4 2334A900 		sd	a0,8(s2)
 170              	.LVL14:
 171              	.LBE20:
 172              	.LBE21:
 173              		.loc 1 13 1
 174 00e8 6FF05FFE 		j	.L10
 175              	.LVL15:
 176              	.L13:
 177              		.cfi_def_cfa_register 2
 178              		.cfi_restore 1
 179              		.cfi_restore 8
 180              		.cfi_restore 9
 181              		.cfi_restore 18
 182 00ec 67800000 		ret
 183              		.cfi_endproc
GAS LISTING /tmp/ccInc7Kq.s 			page 6


 184              	.LFE12:
 186              		.align	2
 187              		.globl	_ZN9Scheduler3getEv
 189              	_ZN9Scheduler3getEv:
 190              	.LFB13:
  14:src/Scheduler.cpp **** 
  15:src/Scheduler.cpp **** TCB* Scheduler::get(){
 191              		.loc 1 15 22 is_stmt 1
 192              		.cfi_startproc
 193 00f0 130101FE 		addi	sp,sp,-32
 194              		.cfi_def_cfa_offset 32
 195 00f4 233C1100 		sd	ra,24(sp)
 196 00f8 23388100 		sd	s0,16(sp)
 197 00fc 23349100 		sd	s1,8(sp)
 198              		.cfi_offset 1, -8
 199              		.cfi_offset 8, -16
 200              		.cfi_offset 9, -24
 201 0100 13040102 		addi	s0,sp,32
 202              		.cfi_def_cfa 8, 0
  16:src/Scheduler.cpp ****     //Think about idle thread implements, what happend when the queue is empty
  17:src/Scheduler.cpp ****     return Scheduler::getInstance().ready.removeLast();
 203              		.loc 1 17 5
 204              		.loc 1 17 35 is_stmt 0
 205 0104 97000000 		call	_ZN9Scheduler11getInstanceEv
 205      E7800000 
 206              	.LVL16:
 207              	.LBB25:
 208              	.LBB26:
  50:src/../h/List.hpp ****         Elem* prev=0;
 209              		.loc 2 50 13
 210 010c 83340500 		ld	s1,0(a0)
  50:src/../h/List.hpp ****         Elem* prev=0;
 211              		.loc 2 50 9
 212 0110 63820404 		beqz	s1,.L17
 213 0114 93070500 		mv	a5,a0
  51:src/../h/List.hpp ****         for(Elem* curr=head;curr && curr!=tail;curr=curr->next){
 214              		.loc 2 51 15
 215 0118 13070000 		li	a4,0
 216              	.L20:
 217              	.LVL17:
 218              	.LBB27:
  52:src/../h/List.hpp ****             prev=curr;
 219              		.loc 2 52 34 is_stmt 1
 220 011c 638C0400 		beqz	s1,.L19
  52:src/../h/List.hpp ****             prev=curr;
 221              		.loc 2 52 43 is_stmt 0
 222 0120 83B68700 		ld	a3,8(a5)
  52:src/../h/List.hpp ****             prev=curr;
 223              		.loc 2 52 34
 224 0124 6388D400 		beq	s1,a3,.L19
 225              	.LVL18:
  52:src/../h/List.hpp ****             prev=curr;
 226              		.loc 2 52 9 is_stmt 1
  53:src/../h/List.hpp ****         }
 227              		.loc 2 53 13 is_stmt 0
 228 0128 13870400 		mv	a4,s1
  52:src/../h/List.hpp ****             prev=curr;
GAS LISTING /tmp/ccInc7Kq.s 			page 7


 229              		.loc 2 52 9
 230 012c 83B48400 		ld	s1,8(s1)
 231              	.LVL19:
 232 0130 6FF0DFFE 		j	.L20
 233              	.L19:
 234              	.LBE27:
  55:src/../h/List.hpp ****         if(prev) {prev->next=0;}
 235              		.loc 2 55 15
 236 0134 03B58700 		ld	a0,8(a5)
 237              	.LVL20:
  56:src/../h/List.hpp ****         else{  head=0; }
 238              		.loc 2 56 9
 239 0138 630A0702 		beqz	a4,.L21
  56:src/../h/List.hpp ****         else{  head=0; }
 240              		.loc 2 56 19
 241 013c 23340700 		sd	zero,8(a4)
 242              	.L22:
  58:src/../h/List.hpp ****         T* ret=elem->data;
 243              		.loc 2 58 9
 244 0140 23B4E700 		sd	a4,8(a5)
  59:src/../h/List.hpp ****         delete elem;
 245              		.loc 2 59 12
 246 0144 83340500 		ld	s1,0(a0)
 247              	.LVL21:
  60:src/../h/List.hpp ****         return ret;
 248              		.loc 2 60 9
 249 0148 63060500 		beqz	a0,.L17
 250 014c 97000000 		call	_ZdlPv
 250      E7800000 
 251              	.LVL22:
 252              	.L17:
 253              	.LBE26:
 254              	.LBE25:
  18:src/Scheduler.cpp **** }
 255              		.loc 1 18 1
 256 0154 13850400 		mv	a0,s1
 257 0158 83308101 		ld	ra,24(sp)
 258              		.cfi_remember_state
 259              		.cfi_restore 1
 260 015c 03340101 		ld	s0,16(sp)
 261              		.cfi_restore 8
 262              		.cfi_def_cfa 2, 32
 263 0160 83348100 		ld	s1,8(sp)
 264              		.cfi_restore 9
 265 0164 13010102 		addi	sp,sp,32
 266              		.cfi_def_cfa_offset 0
 267 0168 67800000 		jr	ra
 268              	.LVL23:
 269              	.L21:
 270              		.cfi_restore_state
 271              	.LBB29:
 272              	.LBB28:
  57:src/../h/List.hpp ****         tail=prev;
 273              		.loc 2 57 16
 274 016c 23B00700 		sd	zero,0(a5)
 275 0170 6FF01FFD 		j	.L22
 276              	.LBE28:
GAS LISTING /tmp/ccInc7Kq.s 			page 8


 277              	.LBE29:
 278              		.cfi_endproc
 279              	.LFE13:
 281              		.bss
 282              		.align	3
 283              		.set	.LANCHOR0,. + 0
 286              	_ZZN9Scheduler11getInstanceEvE8instance:
 287 0000 00000000 		.zero	16
 287      00000000 
 287      00000000 
 287      00000000 
 288              		.section	.sbss,"aw",@nobits
 289              		.align	3
 292              	_ZGVZN9Scheduler11getInstanceEvE8instance:
 293 0000 00000000 		.zero	8
 293      00000000 
 294              		.text
 295              	.Letext0:
 296              		.file 3 "src/../h/../lib/hw.h"
 297              		.file 4 "src/../h/Scheduler.hpp"
GAS LISTING /tmp/ccInc7Kq.s 			page 9


DEFINED SYMBOLS
                            *ABS*:0000000000000000 Scheduler.cpp
     /tmp/ccInc7Kq.s:12     .text:0000000000000000 _ZN9SchedulerC2Ev
     /tmp/ccInc7Kq.s:16     .text:0000000000000000 .L0 
     /tmp/ccInc7Kq.s:18     .text:0000000000000000 .L0 
     /tmp/ccInc7Kq.s:19     .text:0000000000000004 .L0 
     /tmp/ccInc7Kq.s:21     .text:0000000000000008 .L0 
     /tmp/ccInc7Kq.s:23     .text:000000000000000c .L0 
     /tmp/ccInc7Kq.s:29     .text:000000000000000c .L0 
     /tmp/ccInc7Kq.s:35     .text:0000000000000014 .L0 
     /tmp/ccInc7Kq.s:36     .text:0000000000000018 .L0 
     /tmp/ccInc7Kq.s:37     .text:0000000000000018 .L0 
     /tmp/ccInc7Kq.s:39     .text:000000000000001c .L0 
     /tmp/ccInc7Kq.s:41     .text:0000000000000020 .L0 
     /tmp/ccInc7Kq.s:12     .text:0000000000000000 _ZN9SchedulerC1Ev
     /tmp/ccInc7Kq.s:49     .text:0000000000000020 _ZN9Scheduler11getInstanceEv
     /tmp/ccInc7Kq.s:52     .text:0000000000000020 .L0 
     /tmp/ccInc7Kq.s:53     .text:0000000000000020 .L0 
     /tmp/ccInc7Kq.s:54     .text:0000000000000020 .L0 
     /tmp/ccInc7Kq.s:292    .sbss:0000000000000000 _ZGVZN9Scheduler11getInstanceEvE8instance
     /tmp/ccInc7Kq.s:55     .text:0000000000000020 .L0 
     /tmp/ccInc7Kq.s:58     .text:000000000000002c .L0 
     /tmp/ccInc7Kq.s:59     .text:000000000000002c .L0 
     /tmp/ccInc7Kq.s:63     .text:0000000000000038 .L0 
     /tmp/ccInc7Kq.s:64     .text:000000000000003c .L0 
     /tmp/ccInc7Kq.s:67     .text:0000000000000044 .L0 
     /tmp/ccInc7Kq.s:68     .text:0000000000000044 .L0 
     /tmp/ccInc7Kq.s:70     .text:0000000000000048 .L0 
     /tmp/ccInc7Kq.s:72     .text:0000000000000048 .L0 
     /tmp/ccInc7Kq.s:78     .text:0000000000000064 .L0 
     /tmp/ccInc7Kq.s:79     .text:0000000000000064 .L0 
     /tmp/ccInc7Kq.s:81     .text:0000000000000070 .L0 
     /tmp/ccInc7Kq.s:83     .text:0000000000000074 .L0 
     /tmp/ccInc7Kq.s:84     .text:0000000000000074 .L0 
     /tmp/ccInc7Kq.s:86     .text:0000000000000078 .L0 
     /tmp/ccInc7Kq.s:88     .text:000000000000007c .L0 
     /tmp/ccInc7Kq.s:94     .text:000000000000007c _ZN9Scheduler3putEP3TCB
     /tmp/ccInc7Kq.s:97     .text:000000000000007c .L0 
     /tmp/ccInc7Kq.s:99     .text:000000000000007c .L0 
     /tmp/ccInc7Kq.s:100    .text:000000000000007c .L0 
     /tmp/ccInc7Kq.s:102    .text:0000000000000080 .L0 
     /tmp/ccInc7Kq.s:103    .text:0000000000000084 .L0 
     /tmp/ccInc7Kq.s:108    .text:0000000000000094 .L0 
     /tmp/ccInc7Kq.s:109    .text:0000000000000094 .L0 
     /tmp/ccInc7Kq.s:110    .text:0000000000000094 .L0 
     /tmp/ccInc7Kq.s:111    .text:0000000000000094 .L0 
     /tmp/ccInc7Kq.s:113    .text:0000000000000098 .L0 
     /tmp/ccInc7Kq.s:116    .text:000000000000009c .L0 
     /tmp/ccInc7Kq.s:117    .text:000000000000009c .L0 
     /tmp/ccInc7Kq.s:124    .text:00000000000000a8 .L0 
     /tmp/ccInc7Kq.s:133    .text:00000000000000b8 .L0 
     /tmp/ccInc7Kq.s:139    .text:00000000000000c0 .L0 
     /tmp/ccInc7Kq.s:141    .text:00000000000000c4 .L0 
     /tmp/ccInc7Kq.s:143    .text:00000000000000c8 .L0 
     /tmp/ccInc7Kq.s:149    .text:00000000000000cc .L0 
     /tmp/ccInc7Kq.s:150    .text:00000000000000d0 .L0 
     /tmp/ccInc7Kq.s:151    .text:00000000000000d0 .L0 
GAS LISTING /tmp/ccInc7Kq.s 			page 10


     /tmp/ccInc7Kq.s:153    .text:00000000000000d4 .L0 
     /tmp/ccInc7Kq.s:154    .text:00000000000000d4 .L0 
     /tmp/ccInc7Kq.s:156    .text:00000000000000d8 .L0 
     /tmp/ccInc7Kq.s:159    .text:00000000000000dc .L0 
     /tmp/ccInc7Kq.s:161    .text:00000000000000e0 .L0 
     /tmp/ccInc7Kq.s:165    .text:00000000000000e4 .L0 
     /tmp/ccInc7Kq.s:169    .text:00000000000000e4 .L0 
     /tmp/ccInc7Kq.s:174    .text:00000000000000e8 .L0 
     /tmp/ccInc7Kq.s:177    .text:00000000000000ec .L0 
     /tmp/ccInc7Kq.s:178    .text:00000000000000ec .L0 
     /tmp/ccInc7Kq.s:179    .text:00000000000000ec .L0 
     /tmp/ccInc7Kq.s:180    .text:00000000000000ec .L0 
     /tmp/ccInc7Kq.s:181    .text:00000000000000ec .L0 
     /tmp/ccInc7Kq.s:183    .text:00000000000000f0 .L0 
     /tmp/ccInc7Kq.s:189    .text:00000000000000f0 _ZN9Scheduler3getEv
     /tmp/ccInc7Kq.s:192    .text:00000000000000f0 .L0 
     /tmp/ccInc7Kq.s:193    .text:00000000000000f0 .L0 
     /tmp/ccInc7Kq.s:194    .text:00000000000000f4 .L0 
     /tmp/ccInc7Kq.s:198    .text:0000000000000100 .L0 
     /tmp/ccInc7Kq.s:199    .text:0000000000000100 .L0 
     /tmp/ccInc7Kq.s:200    .text:0000000000000100 .L0 
     /tmp/ccInc7Kq.s:202    .text:0000000000000104 .L0 
     /tmp/ccInc7Kq.s:204    .text:0000000000000104 .L0 
     /tmp/ccInc7Kq.s:205    .text:0000000000000104 .L0 
     /tmp/ccInc7Kq.s:210    .text:000000000000010c .L0 
     /tmp/ccInc7Kq.s:212    .text:0000000000000110 .L0 
     /tmp/ccInc7Kq.s:215    .text:0000000000000118 .L0 
     /tmp/ccInc7Kq.s:220    .text:000000000000011c .L0 
     /tmp/ccInc7Kq.s:222    .text:0000000000000120 .L0 
     /tmp/ccInc7Kq.s:224    .text:0000000000000124 .L0 
     /tmp/ccInc7Kq.s:227    .text:0000000000000128 .L0 
     /tmp/ccInc7Kq.s:228    .text:0000000000000128 .L0 
     /tmp/ccInc7Kq.s:230    .text:000000000000012c .L0 
     /tmp/ccInc7Kq.s:236    .text:0000000000000134 .L0 
     /tmp/ccInc7Kq.s:239    .text:0000000000000138 .L0 
     /tmp/ccInc7Kq.s:241    .text:000000000000013c .L0 
     /tmp/ccInc7Kq.s:244    .text:0000000000000140 .L0 
     /tmp/ccInc7Kq.s:246    .text:0000000000000144 .L0 
     /tmp/ccInc7Kq.s:249    .text:0000000000000148 .L0 
     /tmp/ccInc7Kq.s:256    .text:0000000000000154 .L0 
     /tmp/ccInc7Kq.s:258    .text:000000000000015c .L0 
     /tmp/ccInc7Kq.s:259    .text:000000000000015c .L0 
     /tmp/ccInc7Kq.s:261    .text:0000000000000160 .L0 
     /tmp/ccInc7Kq.s:262    .text:0000000000000160 .L0 
     /tmp/ccInc7Kq.s:264    .text:0000000000000164 .L0 
     /tmp/ccInc7Kq.s:266    .text:0000000000000168 .L0 
     /tmp/ccInc7Kq.s:270    .text:000000000000016c .L0 
     /tmp/ccInc7Kq.s:274    .text:000000000000016c .L0 
     /tmp/ccInc7Kq.s:278    .text:0000000000000174 .L0 
     /tmp/ccInc7Kq.s:283    .bss:0000000000000000 .LANCHOR0
     /tmp/ccInc7Kq.s:286    .bss:0000000000000000 _ZZN9Scheduler11getInstanceEvE8instance
     /tmp/ccInc7Kq.s:298    .text:0000000000000174 .L0 
     /tmp/ccInc7Kq.s:55     .text:0000000000000020 .L0 
     /tmp/ccInc7Kq.s:59     .text:000000000000002c .L0 
     /tmp/ccInc7Kq.s:72     .text:0000000000000048 .L0 
     /tmp/ccInc7Kq.s:76     .text:000000000000005c .L0 
     /tmp/ccInc7Kq.s:79     .text:0000000000000064 .L0 
GAS LISTING /tmp/ccInc7Kq.s 			page 11


     /tmp/ccInc7Kq.s:61     .text:0000000000000038 .L9
     /tmp/ccInc7Kq.s:176    .text:00000000000000ec .L13
     /tmp/ccInc7Kq.s:164    .text:00000000000000e4 .L16
     /tmp/ccInc7Kq.s:145    .text:00000000000000cc .L10
     /tmp/ccInc7Kq.s:252    .text:0000000000000154 .L17
     /tmp/ccInc7Kq.s:233    .text:0000000000000134 .L19
     /tmp/ccInc7Kq.s:216    .text:000000000000011c .L20
     /tmp/ccInc7Kq.s:269    .text:000000000000016c .L21
     /tmp/ccInc7Kq.s:242    .text:0000000000000140 .L22
     /tmp/ccInc7Kq.s:989    .debug_abbrev:0000000000000000 .Ldebug_abbrev0
     /tmp/ccInc7Kq.s:1976   .debug_str:0000000000000052 .LASF51
     /tmp/ccInc7Kq.s:2034   .debug_str:00000000000002bc .LASF52
     /tmp/ccInc7Kq.s:2048   .debug_str:000000000000031e .LASF53
     /tmp/ccInc7Kq.s:8      .text:0000000000000000 .Ltext0
     /tmp/ccInc7Kq.s:295    .text:0000000000000174 .Letext0
     /tmp/ccInc7Kq.s:1964   .debug_line:0000000000000000 .Ldebug_line0
     /tmp/ccInc7Kq.s:2036   .debug_str:00000000000002ce .LASF0
     /tmp/ccInc7Kq.s:2020   .debug_str:000000000000024e .LASF1
     /tmp/ccInc7Kq.s:2012   .debug_str:000000000000020c .LASF2
     /tmp/ccInc7Kq.s:1982   .debug_str:0000000000000138 .LASF4
     /tmp/ccInc7Kq.s:2018   .debug_str:000000000000023c .LASF3
     /tmp/ccInc7Kq.s:1970   .debug_str:0000000000000032 .LASF5
     /tmp/ccInc7Kq.s:1966   .debug_str:0000000000000000 .LASF6
     /tmp/ccInc7Kq.s:2002   .debug_str:00000000000001bd .LASF7
     /tmp/ccInc7Kq.s:1974   .debug_str:0000000000000042 .LASF8
     /tmp/ccInc7Kq.s:1980   .debug_str:000000000000012a .LASF9
     /tmp/ccInc7Kq.s:2090   .debug_str:0000000000000460 .LASF10
     /tmp/ccInc7Kq.s:2008   .debug_str:00000000000001f3 .LASF11
     /tmp/ccInc7Kq.s:2076   .debug_str:000000000000040d .LASF12
     /tmp/ccInc7Kq.s:2056   .debug_str:0000000000000357 .LASF13
     /tmp/ccInc7Kq.s:2022   .debug_str:0000000000000261 .LASF14
     /tmp/ccInc7Kq.s:1992   .debug_str:000000000000017b .LASF15
     /tmp/ccInc7Kq.s:2050   .debug_str:0000000000000337 .LASF16
     /tmp/ccInc7Kq.s:2000   .debug_str:00000000000001b3 .LASF36
     /tmp/ccInc7Kq.s:1994   .debug_str:0000000000000191 .LASF17
     /tmp/ccInc7Kq.s:1984   .debug_str:000000000000013f .LASF19
     /tmp/ccInc7Kq.s:2044   .debug_str:00000000000002fe .LASF24
     /tmp/ccInc7Kq.s:2078   .debug_str:000000000000041d .LASF54
     /tmp/ccInc7Kq.s:2058   .debug_str:0000000000000367 .LASF55
     /tmp/ccInc7Kq.s:1972   .debug_str:0000000000000039 .LASF18
     /tmp/ccInc7Kq.s:2088   .debug_str:0000000000000443 .LASF20
     /tmp/ccInc7Kq.s:2028   .debug_str:000000000000029d .LASF21
     /tmp/ccInc7Kq.s:2074   .debug_str:00000000000003f1 .LASF22
     /tmp/ccInc7Kq.s:1986   .debug_str:0000000000000152 .LASF23
     /tmp/ccInc7Kq.s:2004   .debug_str:00000000000001d0 .LASF25
     /tmp/ccInc7Kq.s:2010   .debug_str:0000000000000202 .LASF26
     /tmp/ccInc7Kq.s:2066   .debug_str:00000000000003a8 .LASF27
     /tmp/ccInc7Kq.s:1998   .debug_str:00000000000001a8 .LASF28
     /tmp/ccInc7Kq.s:2016   .debug_str:000000000000021f .LASF29
     /tmp/ccInc7Kq.s:2046   .debug_str:0000000000000315 .LASF30
     /tmp/ccInc7Kq.s:2060   .debug_str:000000000000037e .LASF31
     /tmp/ccInc7Kq.s:2052   .debug_str:000000000000034d .LASF56
     /tmp/ccInc7Kq.s:2006   .debug_str:00000000000001ee .LASF32
     /tmp/ccInc7Kq.s:2080   .debug_str:0000000000000427 .LASF33
     /tmp/ccInc7Kq.s:2072   .debug_str:00000000000003d2 .LASF57
     /tmp/ccInc7Kq.s:2030   .debug_str:00000000000002a5 .LASF34
     /tmp/ccInc7Kq.s:2070   .debug_str:00000000000003cd .LASF35
GAS LISTING /tmp/ccInc7Kq.s 			page 12


     /tmp/ccInc7Kq.s:2068   .debug_str:00000000000003c3 .LASF37
     /tmp/ccInc7Kq.s:2082   .debug_str:000000000000042c .LASF38
     /tmp/ccInc7Kq.s:2024   .debug_str:000000000000026d .LASF58
     /tmp/ccInc7Kq.s:1988   .debug_str:000000000000015e .LASF59
     /tmp/ccInc7Kq.s:1978   .debug_str:0000000000000116 .LASF60
     /tmp/ccInc7Kq.s:2032   .debug_str:00000000000002aa .LASF61
     /tmp/ccInc7Kq.s:2038   .debug_str:00000000000002db .LASF39
     /tmp/ccInc7Kq.s:2014   .debug_str:000000000000021a .LASF40
     /tmp/ccInc7Kq.s:1968   .debug_str:0000000000000013 .LASF44
     /tmp/ccInc7Kq.s:2086   .debug_str:000000000000043e .LASF41
     /tmp/ccInc7Kq.s:2054   .debug_str:0000000000000352 .LASF42
     /tmp/ccInc7Kq.s:1990   .debug_str:0000000000000176 .LASF43
     /tmp/ccInc7Kq.s:2026   .debug_str:000000000000028a .LASF45
     /tmp/ccInc7Kq.s:190    .text:00000000000000f0 .LFB13
     /tmp/ccInc7Kq.s:279    .text:0000000000000174 .LFE13
     /tmp/ccInc7Kq.s:207    .text:000000000000010c .LBB25
     /tmp/ccInc7Kq.s:1950   .debug_ranges:0000000000000000 .Ldebug_ranges0
     /tmp/ccInc7Kq.s:1778   .debug_loc:0000000000000000 .LLST8
     /tmp/ccInc7Kq.s:1793   .debug_loc:0000000000000049 .LLST9
     /tmp/ccInc7Kq.s:1812   .debug_loc:00000000000000a5 .LLST10
     /tmp/ccInc7Kq.s:1823   .debug_loc:00000000000000db .LLST11
     /tmp/ccInc7Kq.s:218    .text:000000000000011c .LBB27
     /tmp/ccInc7Kq.s:234    .text:0000000000000134 .LBE27
     /tmp/ccInc7Kq.s:1830   .debug_loc:00000000000000fe .LLST12
     /tmp/ccInc7Kq.s:251    .text:0000000000000154 .LVL22
     /tmp/ccInc7Kq.s:206    .text:000000000000010c .LVL16
     /tmp/ccInc7Kq.s:95     .text:000000000000007c .LFB12
     /tmp/ccInc7Kq.s:184    .text:00000000000000f0 .LFE12
     /tmp/ccInc7Kq.s:1850   .debug_loc:000000000000015b .LLST1
     /tmp/ccInc7Kq.s:121    .text:00000000000000a8 .LBB16
     /tmp/ccInc7Kq.s:1876   .debug_loc:00000000000001cd .LLST2
     /tmp/ccInc7Kq.s:1887   .debug_loc:0000000000000203 .LLST3
     /tmp/ccInc7Kq.s:1902   .debug_loc:000000000000024c .LLST4
     /tmp/ccInc7Kq.s:130    .text:00000000000000b8 .LBB18
     /tmp/ccInc7Kq.s:137    .text:00000000000000c0 .LBE18
     /tmp/ccInc7Kq.s:1909   .debug_loc:000000000000026f .LLST5
     /tmp/ccInc7Kq.s:1916   .debug_loc:0000000000000292 .LLST6
     /tmp/ccInc7Kq.s:1923   .debug_loc:00000000000002b5 .LLST7
     /tmp/ccInc7Kq.s:127    .text:00000000000000b4 .LVL8
     /tmp/ccInc7Kq.s:118    .text:00000000000000a4 .LVL5
     /tmp/ccInc7Kq.s:1996   .debug_str:0000000000000196 .LASF62
     /tmp/ccInc7Kq.s:13     .text:0000000000000000 .LFB10
     /tmp/ccInc7Kq.s:42     .text:0000000000000020 .LFE10
     /tmp/ccInc7Kq.s:25     .text:000000000000000c .LBB14
     /tmp/ccInc7Kq.s:33     .text:0000000000000014 .LBE14
     /tmp/ccInc7Kq.s:1930   .debug_loc:00000000000002d8 .LLST0
     /tmp/ccInc7Kq.s:50     .text:0000000000000020 .LFB8
     /tmp/ccInc7Kq.s:89     .text:000000000000007c .LFE8
     /tmp/ccInc7Kq.s:2062   .debug_str:0000000000000398 .LASF46
     /tmp/ccInc7Kq.s:74     .text:0000000000000058 .LVL3
     /tmp/ccInc7Kq.s:2064   .debug_str:00000000000003a1 .LASF47
     /tmp/ccInc7Kq.s:2040   .debug_str:00000000000002e1 .LASF49
     /tmp/ccInc7Kq.s:2084   .debug_str:0000000000000438 .LASF48
     /tmp/ccInc7Kq.s:2042   .debug_str:00000000000002f1 .LASF50
     /tmp/ccInc7Kq.s:237    .text:0000000000000138 .LVL20
     /tmp/ccInc7Kq.s:268    .text:000000000000016c .LVL23
     /tmp/ccInc7Kq.s:217    .text:000000000000011c .LVL17
GAS LISTING /tmp/ccInc7Kq.s 			page 13


     /tmp/ccInc7Kq.s:225    .text:0000000000000128 .LVL18
     /tmp/ccInc7Kq.s:231    .text:0000000000000130 .LVL19
     /tmp/ccInc7Kq.s:247    .text:0000000000000148 .LVL21
     /tmp/ccInc7Kq.s:98     .text:000000000000007c .LVL4
     /tmp/ccInc7Kq.s:157    .text:00000000000000d8 .LVL12
     /tmp/ccInc7Kq.s:163    .text:00000000000000e4 .LVL13
     /tmp/ccInc7Kq.s:175    .text:00000000000000ec .LVL15
     /tmp/ccInc7Kq.s:120    .text:00000000000000a8 .LVL6
     /tmp/ccInc7Kq.s:144    .text:00000000000000cc .LVL11
     /tmp/ccInc7Kq.s:170    .text:00000000000000e8 .LVL14
     /tmp/ccInc7Kq.s:125    .text:00000000000000ac .LVL7
     /tmp/ccInc7Kq.s:135    .text:00000000000000c0 .LVL10
     /tmp/ccInc7Kq.s:129    .text:00000000000000b8 .LVL9
     /tmp/ccInc7Kq.s:24     .text:000000000000000c .LVL1
     /tmp/ccInc7Kq.s:31     .text:0000000000000014 .LVL2
     /tmp/ccInc7Kq.s:299    .debug_info:0000000000000000 .Ldebug_info0
     /tmp/ccInc7Kq.s:147    .text:00000000000000cc .LBE16
     /tmp/ccInc7Kq.s:166    .text:00000000000000e4 .LBB21
     /tmp/ccInc7Kq.s:172    .text:00000000000000e8 .LBE21
     /tmp/ccInc7Kq.s:254    .text:0000000000000154 .LBE25
     /tmp/ccInc7Kq.s:271    .text:000000000000016c .LBB29
     /tmp/ccInc7Kq.s:277    .text:0000000000000174 .LBE29

UNDEFINED SYMBOLS
_Znwm
_ZdlPv
