GAS LISTING /tmp/ccExF00j.s 			page 1


   1              		.file	"Scheduler.cpp"
   2              		.option nopic
   3              		.option norelax
   4              		.attribute arch, "rv64i2p0_m2p0_a2p0"
   5              		.attribute unaligned_access, 0
   6              		.attribute stack_align, 16
   7              		.text
   8              	.Ltext0:
   9              		.align	2
  10              		.globl	_ZN9Scheduler11getInstanceEv
  12              	_ZN9Scheduler11getInstanceEv:
  13              	.LFB8:
  14              		.file 1 "src/Scheduler.cpp"
   1:src/Scheduler.cpp **** #include "../h/Scheduler.hpp"
   2:src/Scheduler.cpp **** 
   3:src/Scheduler.cpp **** Scheduler& Scheduler::getInstance(){
  15              		.loc 1 3 36
  16              		.cfi_startproc
  17 0000 130101FF 		addi	sp,sp,-16
  18              		.cfi_def_cfa_offset 16
  19 0004 23348100 		sd	s0,8(sp)
  20              		.cfi_offset 8, -8
  21 0008 13040101 		addi	s0,sp,16
  22              		.cfi_def_cfa 8, 0
   4:src/Scheduler.cpp ****     static Scheduler instance;
  23              		.loc 1 4 5
  24              		.loc 1 4 22 is_stmt 0
  25 000c 97070000 		lbu	a5,_ZGVZN9Scheduler11getInstanceEvE8instance
  25      83C70700 
  26 0014 63980700 		bnez	a5,.L2
  27              		.loc 1 4 22 discriminator 1
  28 0018 93071000 		li	a5,1
  29 001c 17070000 		sb	a5,_ZGVZN9Scheduler11getInstanceEvE8instance,a4
  29      2300F700 
  30              	.L2:
   5:src/Scheduler.cpp ****     return instance;
  31              		.loc 1 5 5 is_stmt 1
   6:src/Scheduler.cpp **** }
  32              		.loc 1 6 1 is_stmt 0
  33 0024 17050000 		lla	a0,_ZZN9Scheduler11getInstanceEvE8instance
  33      13050500 
  34 002c 03348100 		ld	s0,8(sp)
  35              		.cfi_restore 8
  36              		.cfi_def_cfa 2, 16
  37 0030 13010101 		addi	sp,sp,16
  38              		.cfi_def_cfa_offset 0
  39 0034 67800000 		jr	ra
  40              		.cfi_endproc
  41              	.LFE8:
  43              		.align	2
  44              		.globl	_ZN9SchedulerC2Ev
  46              	_ZN9SchedulerC2Ev:
  47              	.LFB10:
   7:src/Scheduler.cpp **** 
   8:src/Scheduler.cpp **** Scheduler::Scheduler(){
  48              		.loc 1 8 1 is_stmt 1
  49              		.cfi_startproc
GAS LISTING /tmp/ccExF00j.s 			page 2


  50              	.LVL0:
  51 0038 130101FF 		addi	sp,sp,-16
  52              		.cfi_def_cfa_offset 16
  53 003c 23348100 		sd	s0,8(sp)
  54              		.cfi_offset 8, -8
  55 0040 13040101 		addi	s0,sp,16
  56              		.cfi_def_cfa 8, 0
   9:src/Scheduler.cpp **** 
  10:src/Scheduler.cpp **** }
  57              		.loc 1 10 1 is_stmt 0
  58 0044 03348100 		ld	s0,8(sp)
  59              		.cfi_restore 8
  60              		.cfi_def_cfa 2, 16
  61 0048 13010101 		addi	sp,sp,16
  62              		.cfi_def_cfa_offset 0
  63 004c 67800000 		jr	ra
  64              		.cfi_endproc
  65              	.LFE10:
  67              		.globl	_ZN9SchedulerC1Ev
  68              		.set	_ZN9SchedulerC1Ev,_ZN9SchedulerC2Ev
  69              		.align	2
  70              		.globl	_ZN9Scheduler3putEP3TCB
  72              	_ZN9Scheduler3putEP3TCB:
  73              	.LFB12:
  11:src/Scheduler.cpp **** 
  12:src/Scheduler.cpp **** void Scheduler::put(TCB* t){
  74              		.loc 1 12 28 is_stmt 1
  75              		.cfi_startproc
  76              	.LVL1:
  77 0050 130101FE 		addi	sp,sp,-32
  78              		.cfi_def_cfa_offset 32
  79 0054 233C1100 		sd	ra,24(sp)
  80 0058 23388100 		sd	s0,16(sp)
  81 005c 23349100 		sd	s1,8(sp)
  82              		.cfi_offset 1, -8
  83              		.cfi_offset 8, -16
  84              		.cfi_offset 9, -24
  85 0060 13040102 		addi	s0,sp,32
  86              		.cfi_def_cfa 8, 0
  87 0064 93040500 		mv	s1,a0
  13:src/Scheduler.cpp ****     Scheduler::getInstance().ready.addFirst(t);
  88              		.loc 1 13 5
  89              		.loc 1 13 28 is_stmt 0
  90 0068 97000000 		call	_ZN9Scheduler11getInstanceEv
  90      E7800000 
  91              	.LVL2:
  92              	.LBB10:
  93              	.LBB11:
  94              		.file 2 "src/../h/List.hpp"
   1:src/../h/List.hpp **** #ifndef LIST_HPP
   2:src/../h/List.hpp **** #define LIST_HPP
   3:src/../h/List.hpp **** 
   4:src/../h/List.hpp **** template<typename T>
   5:src/../h/List.hpp **** class List{
   6:src/../h/List.hpp **** public:
   7:src/../h/List.hpp ****     List():head(0),tail(0){}
   8:src/../h/List.hpp **** 
GAS LISTING /tmp/ccExF00j.s 			page 3


   9:src/../h/List.hpp ****     List(const List<T> &)=delete;
  10:src/../h/List.hpp **** 
  11:src/../h/List.hpp ****     List<T> &operator=(const List<T> &)=delete;
  12:src/../h/List.hpp **** 
  13:src/../h/List.hpp ****     void addFirst(T *data){
  14:src/../h/List.hpp ****         Elem *elem=new Elem(data,head);
  95              		.loc 2 14 20
  96 0070 13050001 		li	a0,16
  97 0074 97000000 		call	_Znwm
  97      E7800000 
  98              	.LVL3:
  99 007c 97070000 		lla	a5,_ZN9Scheduler5readyE
  99      93870700 
 100 0084 03B70700 		ld	a4,0(a5)
 101              	.LVL4:
 102              	.LBB12:
 103              	.LBB13:
  15:src/../h/List.hpp ****         head=elem;
  16:src/../h/List.hpp ****         if(!tail) tail=head;
  17:src/../h/List.hpp ****     }
  18:src/../h/List.hpp **** 
  19:src/../h/List.hpp ****     void addLast(T *data){
  20:src/../h/List.hpp ****         Elem *elem=new Elem(data,nullptr);
  21:src/../h/List.hpp ****         if(tail){
  22:src/../h/List.hpp ****             tail->next=elem;
  23:src/../h/List.hpp ****             tail=tail->next;
  24:src/../h/List.hpp ****         }
  25:src/../h/List.hpp ****         else{
  26:src/../h/List.hpp ****             head=tail=elem;
  27:src/../h/List.hpp ****         }
  28:src/../h/List.hpp ****     }
  29:src/../h/List.hpp **** 
  30:src/../h/List.hpp ****     T* removeFirst(){
  31:src/../h/List.hpp ****         if(!head){
  32:src/../h/List.hpp ****             return 0;
  33:src/../h/List.hpp ****         }
  34:src/../h/List.hpp ****         Elem *elem=head;
  35:src/../h/List.hpp ****         head=head->next;
  36:src/../h/List.hpp ****         if(!head) {tail=0;}
  37:src/../h/List.hpp **** 
  38:src/../h/List.hpp ****         T *ret=elem->data;
  39:src/../h/List.hpp ****         delete elem;
  40:src/../h/List.hpp ****         return ret;
  41:src/../h/List.hpp ****     }
  42:src/../h/List.hpp **** 
  43:src/../h/List.hpp ****     T* peekFirst(){
  44:src/../h/List.hpp ****         if(!head) {return 0;}
  45:src/../h/List.hpp ****         return head->data;
  46:src/../h/List.hpp ****     }
  47:src/../h/List.hpp **** 
  48:src/../h/List.hpp ****     T* removeLast(){
  49:src/../h/List.hpp ****         if(!head) {return 0;}
  50:src/../h/List.hpp ****         Elem* prev=0;
  51:src/../h/List.hpp ****         for(Elem* curr=head;curr && curr!=tail;curr=curr->next){
  52:src/../h/List.hpp ****             prev=curr;
  53:src/../h/List.hpp ****         }
  54:src/../h/List.hpp ****         Elem *elem=tail;
GAS LISTING /tmp/ccExF00j.s 			page 4


  55:src/../h/List.hpp ****         if(prev) {prev->next=0;}
  56:src/../h/List.hpp ****         else{  head=0; }
  57:src/../h/List.hpp ****         tail=prev;
  58:src/../h/List.hpp ****         T* ret=elem->data;
  59:src/../h/List.hpp ****         delete elem;
  60:src/../h/List.hpp ****         return ret;
  61:src/../h/List.hpp **** 
  62:src/../h/List.hpp ****     }
  63:src/../h/List.hpp ****     T *peekLast(){
  64:src/../h/List.hpp ****         if(!tail) {return 0;}
  65:src/../h/List.hpp ****         return tail->next;
  66:src/../h/List.hpp ****     }
  67:src/../h/List.hpp **** private:
  68:src/../h/List.hpp ****     struct Elem{
  69:src/../h/List.hpp ****         T *data;
  70:src/../h/List.hpp ****         Elem *next;
  71:src/../h/List.hpp ****         Elem(T* data,Elem *next):data(data),next(next){}
 104              		.loc 2 71 54
 105 0088 23309500 		sd	s1,0(a0)
 106 008c 2334E500 		sd	a4,8(a0)
 107              	.LVL5:
 108              	.LBE13:
 109              	.LBE12:
  15:src/../h/List.hpp ****         head=elem;
 110              		.loc 2 15 9
 111 0090 23B0A700 		sd	a0,0(a5)
  16:src/../h/List.hpp ****     }
 112              		.loc 2 16 13
 113 0094 83B78700 		ld	a5,8(a5)
  16:src/../h/List.hpp ****     }
 114              		.loc 2 16 9
 115 0098 638C0700 		beqz	a5,.L9
 116              	.LVL6:
 117              	.L6:
 118              	.LBE11:
 119              	.LBE10:
  14:src/Scheduler.cpp **** }
 120              		.loc 1 14 1
 121 009c 83308101 		ld	ra,24(sp)
 122              		.cfi_remember_state
 123              		.cfi_restore 1
 124 00a0 03340101 		ld	s0,16(sp)
 125              		.cfi_restore 8
 126              		.cfi_def_cfa 2, 32
 127 00a4 83348100 		ld	s1,8(sp)
 128              		.cfi_restore 9
 129              	.LVL7:
 130 00a8 13010102 		addi	sp,sp,32
 131              		.cfi_def_cfa_offset 0
 132 00ac 67800000 		jr	ra
 133              	.LVL8:
 134              	.L9:
 135              		.cfi_restore_state
 136              	.LBB15:
 137              	.LBB14:
  16:src/../h/List.hpp ****     }
 138              		.loc 2 16 19
GAS LISTING /tmp/ccExF00j.s 			page 5


 139 00b0 97070000 		sd	a0,_ZN9Scheduler5readyE+8,a5
 139      23B0A700 
 140              	.LVL9:
 141              	.LBE14:
 142              	.LBE15:
 143              		.loc 1 14 1
 144 00b8 6FF05FFE 		j	.L6
 145              		.cfi_endproc
 146              	.LFE12:
 148              		.align	2
 149              		.globl	_ZN9Scheduler3getEv
 151              	_ZN9Scheduler3getEv:
 152              	.LFB13:
  15:src/Scheduler.cpp **** 
  16:src/Scheduler.cpp **** TCB* Scheduler::get(){
 153              		.loc 1 16 22 is_stmt 1
 154              		.cfi_startproc
 155 00bc 130101FE 		addi	sp,sp,-32
 156              		.cfi_def_cfa_offset 32
 157 00c0 233C1100 		sd	ra,24(sp)
 158 00c4 23388100 		sd	s0,16(sp)
 159 00c8 23349100 		sd	s1,8(sp)
 160              		.cfi_offset 1, -8
 161              		.cfi_offset 8, -16
 162              		.cfi_offset 9, -24
 163 00cc 13040102 		addi	s0,sp,32
 164              		.cfi_def_cfa 8, 0
  17:src/Scheduler.cpp ****     return Scheduler::getInstance().ready.removeLast();
 165              		.loc 1 17 5
 166              		.loc 1 17 35 is_stmt 0
 167 00d0 97000000 		call	_ZN9Scheduler11getInstanceEv
 167      E7800000 
 168              	.LVL10:
 169              	.LBB19:
 170              	.LBB20:
  49:src/../h/List.hpp ****         Elem* prev=0;
 171              		.loc 2 49 13
 172 00d8 97040000 		ld	s1,_ZN9Scheduler5readyE
 172      83B40400 
  49:src/../h/List.hpp ****         Elem* prev=0;
 173              		.loc 2 49 9
 174 00e0 63860404 		beqz	s1,.L10
  50:src/../h/List.hpp ****         for(Elem* curr=head;curr && curr!=tail;curr=curr->next){
 175              		.loc 2 50 15
 176 00e4 93070000 		li	a5,0
 177              	.L13:
 178              	.LVL11:
 179              	.LBB21:
  51:src/../h/List.hpp ****             prev=curr;
 180              		.loc 2 51 34 is_stmt 1
 181 00e8 638E0400 		beqz	s1,.L12
  51:src/../h/List.hpp ****             prev=curr;
 182              		.loc 2 51 43 is_stmt 0
 183 00ec 17070000 		ld	a4,_ZN9Scheduler5readyE+8
 183      03370700 
  51:src/../h/List.hpp ****             prev=curr;
 184              		.loc 2 51 34
GAS LISTING /tmp/ccExF00j.s 			page 6


 185 00f4 6388E400 		beq	s1,a4,.L12
 186              	.LVL12:
  51:src/../h/List.hpp ****             prev=curr;
 187              		.loc 2 51 9 is_stmt 1
  52:src/../h/List.hpp ****         }
 188              		.loc 2 52 13 is_stmt 0
 189 00f8 93870400 		mv	a5,s1
  51:src/../h/List.hpp ****             prev=curr;
 190              		.loc 2 51 9
 191 00fc 83B48400 		ld	s1,8(s1)
 192              	.LVL13:
 193 0100 6FF09FFE 		j	.L13
 194              	.L12:
 195              	.LBE21:
  54:src/../h/List.hpp ****         if(prev) {prev->next=0;}
 196              		.loc 2 54 15
 197 0104 17050000 		ld	a0,_ZN9Scheduler5readyE+8
 197      03350500 
 198              	.LVL14:
  55:src/../h/List.hpp ****         else{  head=0; }
 199              		.loc 2 55 9
 200 010c 638C0702 		beqz	a5,.L14
  55:src/../h/List.hpp ****         else{  head=0; }
 201              		.loc 2 55 19
 202 0110 23B40700 		sd	zero,8(a5)
 203              	.L15:
  57:src/../h/List.hpp ****         T* ret=elem->data;
 204              		.loc 2 57 9
 205 0114 17070000 		sd	a5,_ZN9Scheduler5readyE+8,a4
 205      2330F700 
  58:src/../h/List.hpp ****         delete elem;
 206              		.loc 2 58 12
 207 011c 83340500 		ld	s1,0(a0)
 208              	.LVL15:
  59:src/../h/List.hpp ****         return ret;
 209              		.loc 2 59 9
 210 0120 63060500 		beqz	a0,.L10
 211 0124 97000000 		call	_ZdlPv
 211      E7800000 
 212              	.LVL16:
 213              	.L10:
 214              	.LBE20:
 215              	.LBE19:
  18:src/Scheduler.cpp **** }
 216              		.loc 1 18 1
 217 012c 13850400 		mv	a0,s1
 218 0130 83308101 		ld	ra,24(sp)
 219              		.cfi_remember_state
 220              		.cfi_restore 1
 221 0134 03340101 		ld	s0,16(sp)
 222              		.cfi_restore 8
 223              		.cfi_def_cfa 2, 32
 224 0138 83348100 		ld	s1,8(sp)
 225              		.cfi_restore 9
 226 013c 13010102 		addi	sp,sp,32
 227              		.cfi_def_cfa_offset 0
 228 0140 67800000 		jr	ra
GAS LISTING /tmp/ccExF00j.s 			page 7


 229              	.LVL17:
 230              	.L14:
 231              		.cfi_restore_state
 232              	.LBB23:
 233              	.LBB22:
  56:src/../h/List.hpp ****         tail=prev;
 234              		.loc 2 56 16
 235 0144 17070000 		sd	zero,_ZN9Scheduler5readyE,a4
 235      23300700 
 236 014c 6FF09FFC 		j	.L15
 237              	.LBE22:
 238              	.LBE23:
 239              		.cfi_endproc
 240              	.LFE13:
 242              		.section	.sbss,"aw",@nobits
 243              		.align	3
 246              	_ZGVZN9Scheduler11getInstanceEvE8instance:
 247 0000 00000000 		.zero	8
 247      00000000 
 250              	_ZZN9Scheduler11getInstanceEvE8instance:
 251 0008 00       		.zero	1
 252              		.text
 253              	.Letext0:
 254              		.file 3 "src/../h/Scheduler.hpp"
GAS LISTING /tmp/ccExF00j.s 			page 8


DEFINED SYMBOLS
                            *ABS*:0000000000000000 Scheduler.cpp
     /tmp/ccExF00j.s:12     .text:0000000000000000 _ZN9Scheduler11getInstanceEv
     /tmp/ccExF00j.s:16     .text:0000000000000000 .L0 
     /tmp/ccExF00j.s:17     .text:0000000000000000 .L0 
     /tmp/ccExF00j.s:18     .text:0000000000000004 .L0 
     /tmp/ccExF00j.s:20     .text:0000000000000008 .L0 
     /tmp/ccExF00j.s:22     .text:000000000000000c .L0 
     /tmp/ccExF00j.s:24     .text:000000000000000c .L0 
     /tmp/ccExF00j.s:246    .sbss:0000000000000000 _ZGVZN9Scheduler11getInstanceEvE8instance
     /tmp/ccExF00j.s:25     .text:000000000000000c .L0 
     /tmp/ccExF00j.s:28     .text:0000000000000018 .L0 
     /tmp/ccExF00j.s:32     .text:0000000000000024 .L0 
     /tmp/ccExF00j.s:250    .sbss:0000000000000008 _ZZN9Scheduler11getInstanceEvE8instance
     /tmp/ccExF00j.s:33     .text:0000000000000024 .L0 
     /tmp/ccExF00j.s:35     .text:0000000000000030 .L0 
     /tmp/ccExF00j.s:36     .text:0000000000000030 .L0 
     /tmp/ccExF00j.s:38     .text:0000000000000034 .L0 
     /tmp/ccExF00j.s:40     .text:0000000000000038 .L0 
     /tmp/ccExF00j.s:46     .text:0000000000000038 _ZN9SchedulerC2Ev
     /tmp/ccExF00j.s:49     .text:0000000000000038 .L0 
     /tmp/ccExF00j.s:51     .text:0000000000000038 .L0 
     /tmp/ccExF00j.s:52     .text:000000000000003c .L0 
     /tmp/ccExF00j.s:54     .text:0000000000000040 .L0 
     /tmp/ccExF00j.s:56     .text:0000000000000044 .L0 
     /tmp/ccExF00j.s:58     .text:0000000000000044 .L0 
     /tmp/ccExF00j.s:59     .text:0000000000000048 .L0 
     /tmp/ccExF00j.s:60     .text:0000000000000048 .L0 
     /tmp/ccExF00j.s:62     .text:000000000000004c .L0 
     /tmp/ccExF00j.s:64     .text:0000000000000050 .L0 
     /tmp/ccExF00j.s:46     .text:0000000000000038 _ZN9SchedulerC1Ev
     /tmp/ccExF00j.s:72     .text:0000000000000050 _ZN9Scheduler3putEP3TCB
     /tmp/ccExF00j.s:75     .text:0000000000000050 .L0 
     /tmp/ccExF00j.s:77     .text:0000000000000050 .L0 
     /tmp/ccExF00j.s:78     .text:0000000000000054 .L0 
     /tmp/ccExF00j.s:82     .text:0000000000000060 .L0 
     /tmp/ccExF00j.s:83     .text:0000000000000060 .L0 
     /tmp/ccExF00j.s:84     .text:0000000000000060 .L0 
     /tmp/ccExF00j.s:86     .text:0000000000000064 .L0 
     /tmp/ccExF00j.s:89     .text:0000000000000068 .L0 
     /tmp/ccExF00j.s:90     .text:0000000000000068 .L0 
     /tmp/ccExF00j.s:96     .text:0000000000000070 .L0 
     /tmp/ccExF00j.s:105    .text:0000000000000088 .L0 
     /tmp/ccExF00j.s:111    .text:0000000000000090 .L0 
     /tmp/ccExF00j.s:113    .text:0000000000000094 .L0 
     /tmp/ccExF00j.s:115    .text:0000000000000098 .L0 
     /tmp/ccExF00j.s:121    .text:000000000000009c .L0 
     /tmp/ccExF00j.s:122    .text:00000000000000a0 .L0 
     /tmp/ccExF00j.s:123    .text:00000000000000a0 .L0 
     /tmp/ccExF00j.s:125    .text:00000000000000a4 .L0 
     /tmp/ccExF00j.s:126    .text:00000000000000a4 .L0 
     /tmp/ccExF00j.s:128    .text:00000000000000a8 .L0 
     /tmp/ccExF00j.s:131    .text:00000000000000ac .L0 
     /tmp/ccExF00j.s:135    .text:00000000000000b0 .L0 
     /tmp/ccExF00j.s:139    .text:00000000000000b0 .L0 
     /tmp/ccExF00j.s:144    .text:00000000000000b8 .L0 
     /tmp/ccExF00j.s:145    .text:00000000000000bc .L0 
GAS LISTING /tmp/ccExF00j.s 			page 9


     /tmp/ccExF00j.s:151    .text:00000000000000bc _ZN9Scheduler3getEv
     /tmp/ccExF00j.s:154    .text:00000000000000bc .L0 
     /tmp/ccExF00j.s:155    .text:00000000000000bc .L0 
     /tmp/ccExF00j.s:156    .text:00000000000000c0 .L0 
     /tmp/ccExF00j.s:160    .text:00000000000000cc .L0 
     /tmp/ccExF00j.s:161    .text:00000000000000cc .L0 
     /tmp/ccExF00j.s:162    .text:00000000000000cc .L0 
     /tmp/ccExF00j.s:164    .text:00000000000000d0 .L0 
     /tmp/ccExF00j.s:166    .text:00000000000000d0 .L0 
     /tmp/ccExF00j.s:167    .text:00000000000000d0 .L0 
     /tmp/ccExF00j.s:172    .text:00000000000000d8 .L0 
     /tmp/ccExF00j.s:174    .text:00000000000000e0 .L0 
     /tmp/ccExF00j.s:176    .text:00000000000000e4 .L0 
     /tmp/ccExF00j.s:181    .text:00000000000000e8 .L0 
     /tmp/ccExF00j.s:183    .text:00000000000000ec .L0 
     /tmp/ccExF00j.s:185    .text:00000000000000f4 .L0 
     /tmp/ccExF00j.s:188    .text:00000000000000f8 .L0 
     /tmp/ccExF00j.s:189    .text:00000000000000f8 .L0 
     /tmp/ccExF00j.s:191    .text:00000000000000fc .L0 
     /tmp/ccExF00j.s:197    .text:0000000000000104 .L0 
     /tmp/ccExF00j.s:200    .text:000000000000010c .L0 
     /tmp/ccExF00j.s:202    .text:0000000000000110 .L0 
     /tmp/ccExF00j.s:205    .text:0000000000000114 .L0 
     /tmp/ccExF00j.s:207    .text:000000000000011c .L0 
     /tmp/ccExF00j.s:210    .text:0000000000000120 .L0 
     /tmp/ccExF00j.s:217    .text:000000000000012c .L0 
     /tmp/ccExF00j.s:219    .text:0000000000000134 .L0 
     /tmp/ccExF00j.s:220    .text:0000000000000134 .L0 
     /tmp/ccExF00j.s:222    .text:0000000000000138 .L0 
     /tmp/ccExF00j.s:223    .text:0000000000000138 .L0 
     /tmp/ccExF00j.s:225    .text:000000000000013c .L0 
     /tmp/ccExF00j.s:227    .text:0000000000000140 .L0 
     /tmp/ccExF00j.s:231    .text:0000000000000144 .L0 
     /tmp/ccExF00j.s:235    .text:0000000000000144 .L0 
     /tmp/ccExF00j.s:239    .text:0000000000000150 .L0 
     /tmp/ccExF00j.s:255    .text:0000000000000150 .L0 
     /tmp/ccExF00j.s:25     .text:000000000000000c .L0 
     /tmp/ccExF00j.s:29     .text:000000000000001c .L0 
     /tmp/ccExF00j.s:33     .text:0000000000000024 .L0 
     /tmp/ccExF00j.s:99     .text:000000000000007c .L0 
     /tmp/ccExF00j.s:139    .text:00000000000000b0 .L0 
     /tmp/ccExF00j.s:172    .text:00000000000000d8 .L0 
     /tmp/ccExF00j.s:183    .text:00000000000000ec .L0 
     /tmp/ccExF00j.s:197    .text:0000000000000104 .L0 
     /tmp/ccExF00j.s:205    .text:0000000000000114 .L0 
     /tmp/ccExF00j.s:235    .text:0000000000000144 .L0 
     /tmp/ccExF00j.s:30     .text:0000000000000024 .L2
     /tmp/ccExF00j.s:134    .text:00000000000000b0 .L9
     /tmp/ccExF00j.s:117    .text:000000000000009c .L6
     /tmp/ccExF00j.s:213    .text:000000000000012c .L10
     /tmp/ccExF00j.s:194    .text:0000000000000104 .L12
     /tmp/ccExF00j.s:177    .text:00000000000000e8 .L13
     /tmp/ccExF00j.s:230    .text:0000000000000144 .L14
     /tmp/ccExF00j.s:203    .text:0000000000000114 .L15
     /tmp/ccExF00j.s:795    .debug_abbrev:0000000000000000 .Ldebug_abbrev0
     /tmp/ccExF00j.s:1639   .debug_str:000000000000002d .LASF30
     /tmp/ccExF00j.s:1677   .debug_str:00000000000001f8 .LASF31
GAS LISTING /tmp/ccExF00j.s 			page 10


     /tmp/ccExF00j.s:1691   .debug_str:0000000000000252 .LASF32
     /tmp/ccExF00j.s:8      .text:0000000000000000 .Ltext0
     /tmp/ccExF00j.s:253    .text:0000000000000150 .Letext0
     /tmp/ccExF00j.s:1631   .debug_line:0000000000000000 .Ldebug_line0
     /tmp/ccExF00j.s:1657   .debug_str:0000000000000166 .LASF1
     /tmp/ccExF00j.s:1693   .debug_str:000000000000026b .LASF0
     /tmp/ccExF00j.s:1669   .debug_str:00000000000001bf .LASF33
     /tmp/ccExF00j.s:1649   .debug_str:000000000000012c .LASF34
     /tmp/ccExF00j.s:1641   .debug_str:00000000000000f1 .LASF35
     /tmp/ccExF00j.s:1675   .debug_str:00000000000001e6 .LASF36
     /tmp/ccExF00j.s:1681   .debug_str:000000000000020f .LASF37
     /tmp/ccExF00j.s:1707   .debug_str:00000000000002d8 .LASF2
     /tmp/ccExF00j.s:1679   .debug_str:000000000000020a .LASF3
     /tmp/ccExF00j.s:1645   .debug_str:000000000000010d .LASF5
     /tmp/ccExF00j.s:1687   .debug_str:0000000000000232 .LASF10
     /tmp/ccExF00j.s:1713   .debug_str:000000000000031d .LASF38
     /tmp/ccExF00j.s:1695   .debug_str:0000000000000277 .LASF39
     /tmp/ccExF00j.s:1635   .debug_str:000000000000001f .LASF4
     /tmp/ccExF00j.s:1721   .debug_str:0000000000000337 .LASF6
     /tmp/ccExF00j.s:1643   .debug_str:0000000000000105 .LASF7
     /tmp/ccExF00j.s:1711   .debug_str:0000000000000301 .LASF8
     /tmp/ccExF00j.s:1647   .debug_str:0000000000000120 .LASF9
     /tmp/ccExF00j.s:1659   .debug_str:0000000000000170 .LASF11
     /tmp/ccExF00j.s:1663   .debug_str:0000000000000193 .LASF12
     /tmp/ccExF00j.s:1703   .debug_str:00000000000002b8 .LASF13
     /tmp/ccExF00j.s:1655   .debug_str:000000000000015b .LASF14
     /tmp/ccExF00j.s:1667   .debug_str:00000000000001a2 .LASF15
     /tmp/ccExF00j.s:1689   .debug_str:0000000000000249 .LASF16
     /tmp/ccExF00j.s:1697   .debug_str:000000000000028e .LASF17
     /tmp/ccExF00j.s:1651   .debug_str:0000000000000144 .LASF40
     /tmp/ccExF00j.s:1661   .debug_str:000000000000018e .LASF18
     /tmp/ccExF00j.s:1715   .debug_str:0000000000000327 .LASF19
     /tmp/ccExF00j.s:1709   .debug_str:00000000000002e2 .LASF41
     /tmp/ccExF00j.s:1673   .debug_str:00000000000001e1 .LASF20
     /tmp/ccExF00j.s:1705   .debug_str:00000000000002d3 .LASF21
     /tmp/ccExF00j.s:1665   .debug_str:000000000000019d .LASF22
     /tmp/ccExF00j.s:1633   .debug_str:0000000000000000 .LASF42
     /tmp/ccExF00j.s:1719   .debug_str:0000000000000332 .LASF23
     /tmp/ccExF00j.s:1671   .debug_str:00000000000001dc .LASF24
     /tmp/ccExF00j.s:1637   .debug_str:0000000000000028 .LASF25
     /tmp/ccExF00j.s:152    .text:00000000000000bc .LFB13
     /tmp/ccExF00j.s:240    .text:0000000000000150 .LFE13
     /tmp/ccExF00j.s:169    .text:00000000000000d8 .LBB19
     /tmp/ccExF00j.s:1617   .debug_ranges:0000000000000000 .Ldebug_ranges0
     /tmp/ccExF00j.s:1493   .debug_loc:0000000000000000 .LLST5
     /tmp/ccExF00j.s:1512   .debug_loc:000000000000005c .LLST6
     /tmp/ccExF00j.s:1523   .debug_loc:0000000000000092 .LLST7
     /tmp/ccExF00j.s:179    .text:00000000000000e8 .LBB21
     /tmp/ccExF00j.s:195    .text:0000000000000104 .LBE21
     /tmp/ccExF00j.s:1530   .debug_loc:00000000000000b5 .LLST8
     /tmp/ccExF00j.s:212    .text:000000000000012c .LVL16
     /tmp/ccExF00j.s:168    .text:00000000000000d8 .LVL10
     /tmp/ccExF00j.s:73     .text:0000000000000050 .LFB12
     /tmp/ccExF00j.s:146    .text:00000000000000bc .LFE12
     /tmp/ccExF00j.s:1550   .debug_loc:0000000000000112 .LLST0
     /tmp/ccExF00j.s:92     .text:0000000000000070 .LBB10
     /tmp/ccExF00j.s:1572   .debug_loc:0000000000000171 .LLST1
GAS LISTING /tmp/ccExF00j.s 			page 11


     /tmp/ccExF00j.s:102    .text:0000000000000088 .LBB12
     /tmp/ccExF00j.s:109    .text:0000000000000090 .LBE12
     /tmp/ccExF00j.s:1583   .debug_loc:00000000000001a7 .LLST2
     /tmp/ccExF00j.s:1590   .debug_loc:00000000000001ca .LLST3
     /tmp/ccExF00j.s:1597   .debug_loc:00000000000001ed .LLST4
     /tmp/ccExF00j.s:98     .text:000000000000007c .LVL3
     /tmp/ccExF00j.s:91     .text:0000000000000070 .LVL2
     /tmp/ccExF00j.s:1653   .debug_str:0000000000000149 .LASF43
     /tmp/ccExF00j.s:47     .text:0000000000000038 .LFB10
     /tmp/ccExF00j.s:65     .text:0000000000000050 .LFE10
     /tmp/ccExF00j.s:13     .text:0000000000000000 .LFB8
     /tmp/ccExF00j.s:41     .text:0000000000000038 .LFE8
     /tmp/ccExF00j.s:1699   .debug_str:00000000000002a8 .LASF44
     /tmp/ccExF00j.s:1701   .debug_str:00000000000002b1 .LASF26
     /tmp/ccExF00j.s:1683   .debug_str:0000000000000215 .LASF28
     /tmp/ccExF00j.s:1717   .debug_str:000000000000032c .LASF27
     /tmp/ccExF00j.s:1685   .debug_str:0000000000000225 .LASF29
     /tmp/ccExF00j.s:178    .text:00000000000000e8 .LVL11
     /tmp/ccExF00j.s:186    .text:00000000000000f8 .LVL12
     /tmp/ccExF00j.s:192    .text:0000000000000100 .LVL13
     /tmp/ccExF00j.s:229    .text:0000000000000144 .LVL17
     /tmp/ccExF00j.s:198    .text:000000000000010c .LVL14
     /tmp/ccExF00j.s:208    .text:0000000000000120 .LVL15
     /tmp/ccExF00j.s:76     .text:0000000000000050 .LVL1
     /tmp/ccExF00j.s:129    .text:00000000000000a8 .LVL7
     /tmp/ccExF00j.s:133    .text:00000000000000b0 .LVL8
     /tmp/ccExF00j.s:116    .text:000000000000009c .LVL6
     /tmp/ccExF00j.s:140    .text:00000000000000b8 .LVL9
     /tmp/ccExF00j.s:101    .text:0000000000000088 .LVL4
     /tmp/ccExF00j.s:107    .text:0000000000000090 .LVL5
     /tmp/ccExF00j.s:256    .debug_info:0000000000000000 .Ldebug_info0
     /tmp/ccExF00j.s:119    .text:000000000000009c .LBE10
     /tmp/ccExF00j.s:136    .text:00000000000000b0 .LBB15
     /tmp/ccExF00j.s:142    .text:00000000000000b8 .LBE15
     /tmp/ccExF00j.s:215    .text:000000000000012c .LBE19
     /tmp/ccExF00j.s:232    .text:0000000000000144 .LBB23
     /tmp/ccExF00j.s:238    .text:0000000000000150 .LBE23

UNDEFINED SYMBOLS
_Znwm
_ZN9Scheduler5readyE
_ZdlPv
