GAS LISTING /tmp/cc62fMTe.s 			page 1


   1              		.file	"Scheduler.cpp"
   2              		.option nopic
   3              		.option norelax
   4              		.attribute arch, "rv64i2p0_m2p0_a2p0"
   5              		.attribute unaligned_access, 0
   6              		.attribute stack_align, 16
   7              		.text
   8              	.Ltext0:
   9              		.align	2
  10              		.globl	_ZN9SchedulerC2Ev
  12              	_ZN9SchedulerC2Ev:
  13              	.LFB35:
  14              		.file 1 "src/Scheduler.cpp"
   1:src/Scheduler.cpp **** #include "../h/Scheduler.hpp"
   2:src/Scheduler.cpp **** 
   3:src/Scheduler.cpp **** 
   4:src/Scheduler.cpp **** Scheduler& Scheduler::getInstance(){
   5:src/Scheduler.cpp ****     static Scheduler instance;
   6:src/Scheduler.cpp ****     return instance;
   7:src/Scheduler.cpp **** }
   8:src/Scheduler.cpp **** 
   9:src/Scheduler.cpp **** Scheduler::Scheduler(){}
  15              		.loc 1 9 1
  16              		.cfi_startproc
  17              	.LVL0:
  18 0000 130101FF 		addi	sp,sp,-16
  19              		.cfi_def_cfa_offset 16
  20 0004 23348100 		sd	s0,8(sp)
  21              		.cfi_offset 8, -8
  22 0008 13040101 		addi	s0,sp,16
  23              		.cfi_def_cfa 8, 0
  24              	.LVL1:
  25              	.LBB59:
  26              	.LBB60:
  27              		.file 2 "src/../h/List.hpp"
   1:src/../h/List.hpp **** #ifndef LIST_HPP
   2:src/../h/List.hpp **** #define LIST_HPP
   3:src/../h/List.hpp **** 
   4:src/../h/List.hpp **** #include "../lib/hw.h"
   5:src/../h/List.hpp **** #include "../h/MemoryAllocator.hpp"
   6:src/../h/List.hpp **** 
   7:src/../h/List.hpp **** template<typename T>
   8:src/../h/List.hpp **** class List{
   9:src/../h/List.hpp **** public:
  10:src/../h/List.hpp ****     List():head(0),tail(0){}
  28              		.loc 2 10 26 is_stmt 0
  29 000c 23300500 		sd	zero,0(a0)
  30 0010 23340500 		sd	zero,8(a0)
  31              	.LVL2:
  32              	.LBE60:
  33              	.LBE59:
  34              	.LBB61:
  35              	.LBB62:
  36              		.file 3 "src/../h/PriorityQueue.hpp"
   1:src/../h/PriorityQueue.hpp **** #ifndef PRIORITYQUEUE_HPP
   2:src/../h/PriorityQueue.hpp **** #define PRIORITYQUEUE_HPP
   3:src/../h/PriorityQueue.hpp **** 
GAS LISTING /tmp/cc62fMTe.s 			page 2


   4:src/../h/PriorityQueue.hpp **** #include "../lib/hw.h"
   5:src/../h/PriorityQueue.hpp **** #include "../h/MemoryAllocator.hpp"
   6:src/../h/PriorityQueue.hpp **** 
   7:src/../h/PriorityQueue.hpp **** template<typename T>
   8:src/../h/PriorityQueue.hpp **** class PriorityQueue{
   9:src/../h/PriorityQueue.hpp **** public:
  10:src/../h/PriorityQueue.hpp ****     PriorityQueue():head(0){}
  37              		.loc 3 10 27
  38 0014 23380500 		sd	zero,16(a0)
  39              	.LVL3:
  40              	.LBE62:
  41              	.LBE61:
  42              		.loc 1 9 24
  43 0018 03348100 		ld	s0,8(sp)
  44              		.cfi_restore 8
  45              		.cfi_def_cfa 2, 16
  46 001c 13010101 		addi	sp,sp,16
  47              		.cfi_def_cfa_offset 0
  48 0020 67800000 		jr	ra
  49              		.cfi_endproc
  50              	.LFE35:
  52              		.globl	_ZN9SchedulerC1Ev
  53              		.set	_ZN9SchedulerC1Ev,_ZN9SchedulerC2Ev
  54              		.align	2
  55              		.globl	_ZN9Scheduler11getInstanceEv
  57              	_ZN9Scheduler11getInstanceEv:
  58              	.LFB33:
   4:src/Scheduler.cpp ****     static Scheduler instance;
  59              		.loc 1 4 36 is_stmt 1
  60              		.cfi_startproc
   5:src/Scheduler.cpp ****     return instance;
  61              		.loc 1 5 5
   5:src/Scheduler.cpp ****     return instance;
  62              		.loc 1 5 22 is_stmt 0
  63 0024 97070000 		lbu	a5,_ZGVZN9Scheduler11getInstanceEvE8instance
  63      83C70700 
  64 002c 63880700 		beqz	a5,.L9
   6:src/Scheduler.cpp **** }
  65              		.loc 1 6 5 is_stmt 1
   7:src/Scheduler.cpp **** 
  66              		.loc 1 7 1 is_stmt 0
  67 0030 17050000 		lla	a0,.LANCHOR0
  67      13050500 
  68 0038 67800000 		ret
  69              	.L9:
   4:src/Scheduler.cpp ****     static Scheduler instance;
  70              		.loc 1 4 36 discriminator 1
  71 003c 130101FF 		addi	sp,sp,-16
  72              		.cfi_def_cfa_offset 16
  73 0040 23341100 		sd	ra,8(sp)
  74 0044 23308100 		sd	s0,0(sp)
  75              		.cfi_offset 1, -8
  76              		.cfi_offset 8, -16
  77 0048 13040101 		addi	s0,sp,16
  78              		.cfi_def_cfa 8, 0
   5:src/Scheduler.cpp ****     return instance;
  79              		.loc 1 5 22 discriminator 1
GAS LISTING /tmp/cc62fMTe.s 			page 3


  80 004c 17050000 		lla	a0,.LANCHOR0
  80      13050500 
  81 0054 97000000 		call	_ZN9SchedulerC1Ev
  81      E7800000 
  82              	.LVL4:
  83 005c 93071000 		li	a5,1
  84 0060 17070000 		sb	a5,_ZGVZN9Scheduler11getInstanceEvE8instance,a4
  84      2300F700 
   6:src/Scheduler.cpp **** }
  85              		.loc 1 6 5 is_stmt 1 discriminator 1
   7:src/Scheduler.cpp **** 
  86              		.loc 1 7 1 is_stmt 0 discriminator 1
  87 0068 17050000 		lla	a0,.LANCHOR0
  87      13050500 
  88 0070 83308100 		ld	ra,8(sp)
  89              		.cfi_restore 1
  90 0074 03340100 		ld	s0,0(sp)
  91              		.cfi_restore 8
  92              		.cfi_def_cfa 2, 16
  93 0078 13010101 		addi	sp,sp,16
  94              		.cfi_def_cfa_offset 0
  95 007c 67800000 		jr	ra
  96              		.cfi_endproc
  97              	.LFE33:
  99              		.align	2
 100              		.globl	_ZN9Scheduler3putEP3TCB
 102              	_ZN9Scheduler3putEP3TCB:
 103              	.LFB37:
  10:src/Scheduler.cpp **** 
  11:src/Scheduler.cpp **** void Scheduler::put(TCB* t){
 104              		.loc 1 11 28 is_stmt 1
 105              		.cfi_startproc
 106              	.LVL5:
  12:src/Scheduler.cpp ****     if(t!=nullptr) Scheduler::getInstance().ready.addFirst(t);
 107              		.loc 1 12 5
 108 0080 630C0506 		beqz	a0,.L14
  11:src/Scheduler.cpp ****     if(t!=nullptr) Scheduler::getInstance().ready.addFirst(t);
 109              		.loc 1 11 28 is_stmt 0 discriminator 1
 110 0084 130101FE 		addi	sp,sp,-32
 111              		.cfi_def_cfa_offset 32
 112 0088 233C1100 		sd	ra,24(sp)
 113 008c 23388100 		sd	s0,16(sp)
 114 0090 23349100 		sd	s1,8(sp)
 115 0094 23302101 		sd	s2,0(sp)
 116              		.cfi_offset 1, -8
 117              		.cfi_offset 8, -16
 118              		.cfi_offset 9, -24
 119              		.cfi_offset 18, -32
 120 0098 13040102 		addi	s0,sp,32
 121              		.cfi_def_cfa 8, 0
 122 009c 93040500 		mv	s1,a0
 123              		.loc 1 12 20 is_stmt 1 discriminator 1
 124              		.loc 1 12 43 is_stmt 0 discriminator 1
 125 00a0 97000000 		call	_ZN9Scheduler11getInstanceEv
 125      E7800000 
 126              	.LVL6:
 127 00a8 13090500 		mv	s2,a0
GAS LISTING /tmp/cc62fMTe.s 			page 4


 128              	.LVL7:
 129              	.LBB70:
 130              	.LBB71:
 131              	.LBB72:
 132              	.LBB73:
  11:src/../h/List.hpp **** 
  12:src/../h/List.hpp ****     List(const List<T> &)=delete;
  13:src/../h/List.hpp **** 
  14:src/../h/List.hpp ****     List<T> &operator=(const List<T> &)=delete;
  15:src/../h/List.hpp **** 
  16:src/../h/List.hpp ****     void addFirst(T *data){
  17:src/../h/List.hpp ****         Elem *elem=new Elem(data,head);
  18:src/../h/List.hpp ****         head=elem;
  19:src/../h/List.hpp ****         if(!tail) tail=head;
  20:src/../h/List.hpp ****     }
  21:src/../h/List.hpp **** 
  22:src/../h/List.hpp ****     void addLast(T *data){
  23:src/../h/List.hpp ****         Elem *elem=new Elem(data,nullptr);
  24:src/../h/List.hpp ****         if(tail){
  25:src/../h/List.hpp ****             tail->next=elem;
  26:src/../h/List.hpp ****             tail=tail->next;
  27:src/../h/List.hpp ****         }
  28:src/../h/List.hpp ****         else{
  29:src/../h/List.hpp ****             head=tail=elem;
  30:src/../h/List.hpp ****         }
  31:src/../h/List.hpp ****     }
  32:src/../h/List.hpp **** 
  33:src/../h/List.hpp ****     T* removeFirst(){
  34:src/../h/List.hpp ****         if(!head){
  35:src/../h/List.hpp ****             return 0;
  36:src/../h/List.hpp ****         }
  37:src/../h/List.hpp ****         Elem *elem=head;
  38:src/../h/List.hpp ****         head=head->next;
  39:src/../h/List.hpp ****         if(!head) {tail=0;}
  40:src/../h/List.hpp **** 
  41:src/../h/List.hpp ****         T *ret=elem->data;
  42:src/../h/List.hpp ****         delete elem;
  43:src/../h/List.hpp ****         return ret;
  44:src/../h/List.hpp ****     }
  45:src/../h/List.hpp **** 
  46:src/../h/List.hpp ****     T* peekFirst(){
  47:src/../h/List.hpp ****         if(!head) {return 0;}
  48:src/../h/List.hpp ****         return head->data;
  49:src/../h/List.hpp ****     }
  50:src/../h/List.hpp **** 
  51:src/../h/List.hpp ****     T* removeLast(){
  52:src/../h/List.hpp ****         if(!head) {return 0;}
  53:src/../h/List.hpp ****         Elem* prev=0;
  54:src/../h/List.hpp ****         for(Elem* curr=head;curr && curr!=tail;curr=curr->next){
  55:src/../h/List.hpp ****             prev=curr;
  56:src/../h/List.hpp ****         }
  57:src/../h/List.hpp ****         Elem *elem=tail;
  58:src/../h/List.hpp ****         if(prev) {prev->next=0;}
  59:src/../h/List.hpp ****         else{  head=0; }
  60:src/../h/List.hpp ****         tail=prev;
  61:src/../h/List.hpp ****         T* ret=elem->data;
  62:src/../h/List.hpp ****         delete elem;
GAS LISTING /tmp/cc62fMTe.s 			page 5


  63:src/../h/List.hpp ****         return ret;
  64:src/../h/List.hpp **** 
  65:src/../h/List.hpp ****     }
  66:src/../h/List.hpp ****     T *peekLast(){
  67:src/../h/List.hpp ****         if(!tail) {return 0;}
  68:src/../h/List.hpp ****         return tail->data;
  69:src/../h/List.hpp ****     }
  70:src/../h/List.hpp **** 
  71:src/../h/List.hpp ****     bool empty(){
  72:src/../h/List.hpp ****         return head ? false : true;
  73:src/../h/List.hpp ****     }
  74:src/../h/List.hpp **** private:
  75:src/../h/List.hpp ****     struct Elem{
  76:src/../h/List.hpp ****         T *data;
  77:src/../h/List.hpp ****         Elem *next;
  78:src/../h/List.hpp ****         Elem(T* data,Elem *next):data(data),next(next){}
  79:src/../h/List.hpp ****         void* operator new(size_t n)   { return MemoryAllocator::getInstance().memAlloc(n); }
 133              		.loc 2 79 78 discriminator 1
 134 00ac 97000000 		call	_ZN15MemoryAllocator11getInstanceEv
 134      E7800000 
 135              	.LVL8:
 136              		.loc 2 79 88 discriminator 1
 137 00b4 93050001 		li	a1,16
 138 00b8 97000000 		call	_ZN15MemoryAllocator8memAllocEm
 138      E7800000 
 139              	.LVL9:
 140              	.LBE73:
 141              	.LBE72:
  17:src/../h/List.hpp ****         head=elem;
 142              		.loc 2 17 20 discriminator 1
 143 00c0 83370900 		ld	a5,0(s2)
 144              	.LVL10:
 145              	.LBB74:
 146              	.LBB75:
  78:src/../h/List.hpp ****         void* operator new(size_t n)   { return MemoryAllocator::getInstance().memAlloc(n); }
 147              		.loc 2 78 54 discriminator 1
 148 00c4 23309500 		sd	s1,0(a0)
 149 00c8 2334F500 		sd	a5,8(a0)
 150              	.LVL11:
 151              	.LBE75:
 152              	.LBE74:
  18:src/../h/List.hpp ****         if(!tail) tail=head;
 153              		.loc 2 18 9 discriminator 1
 154 00cc 2330A900 		sd	a0,0(s2)
  19:src/../h/List.hpp ****     }
 155              		.loc 2 19 13 discriminator 1
 156 00d0 83378900 		ld	a5,8(s2)
  19:src/../h/List.hpp ****     }
 157              		.loc 2 19 9 discriminator 1
 158 00d4 638E0700 		beqz	a5,.L17
 159              	.LVL12:
 160              	.L10:
 161              	.LBE71:
 162              	.LBE70:
  13:src/Scheduler.cpp **** }
 163              		.loc 1 13 1
 164 00d8 83308101 		ld	ra,24(sp)
GAS LISTING /tmp/cc62fMTe.s 			page 6


 165              		.cfi_remember_state
 166              		.cfi_restore 1
 167 00dc 03340101 		ld	s0,16(sp)
 168              		.cfi_restore 8
 169              		.cfi_def_cfa 2, 32
 170 00e0 83348100 		ld	s1,8(sp)
 171              		.cfi_restore 9
 172              	.LVL13:
 173 00e4 03390100 		ld	s2,0(sp)
 174              		.cfi_restore 18
 175 00e8 13010102 		addi	sp,sp,32
 176              		.cfi_def_cfa_offset 0
 177 00ec 67800000 		jr	ra
 178              	.LVL14:
 179              	.L17:
 180              		.cfi_restore_state
 181              	.LBB77:
 182              	.LBB76:
  19:src/../h/List.hpp ****     }
 183              		.loc 2 19 19
 184 00f0 2334A900 		sd	a0,8(s2)
 185              	.LVL15:
 186              	.LBE76:
 187              	.LBE77:
 188              		.loc 1 13 1
 189 00f4 6FF05FFE 		j	.L10
 190              	.LVL16:
 191              	.L14:
 192              		.cfi_def_cfa_register 2
 193              		.cfi_restore 1
 194              		.cfi_restore 8
 195              		.cfi_restore 9
 196              		.cfi_restore 18
 197 00f8 67800000 		ret
 198              		.cfi_endproc
 199              	.LFE37:
 201              		.align	2
 202              		.globl	_ZN9Scheduler3getEv
 204              	_ZN9Scheduler3getEv:
 205              	.LFB38:
  14:src/Scheduler.cpp **** 
  15:src/Scheduler.cpp **** TCB* Scheduler::get(){
 206              		.loc 1 15 22 is_stmt 1
 207              		.cfi_startproc
 208 00fc 130101FE 		addi	sp,sp,-32
 209              		.cfi_def_cfa_offset 32
 210 0100 233C1100 		sd	ra,24(sp)
 211 0104 23388100 		sd	s0,16(sp)
 212 0108 23349100 		sd	s1,8(sp)
 213 010c 23302101 		sd	s2,0(sp)
 214              		.cfi_offset 1, -8
 215              		.cfi_offset 8, -16
 216              		.cfi_offset 9, -24
 217              		.cfi_offset 18, -32
 218 0110 13040102 		addi	s0,sp,32
 219              		.cfi_def_cfa 8, 0
  16:src/Scheduler.cpp ****     return Scheduler::getInstance().ready.removeLast();
GAS LISTING /tmp/cc62fMTe.s 			page 7


 220              		.loc 1 16 5
 221              		.loc 1 16 35 is_stmt 0
 222 0114 97000000 		call	_ZN9Scheduler11getInstanceEv
 222      E7800000 
 223              	.LVL17:
 224              	.LBB83:
 225              	.LBB84:
  52:src/../h/List.hpp ****         Elem* prev=0;
 226              		.loc 2 52 13
 227 011c 83340500 		ld	s1,0(a0)
  52:src/../h/List.hpp ****         Elem* prev=0;
 228              		.loc 2 52 9
 229 0120 63860404 		beqz	s1,.L18
  53:src/../h/List.hpp ****         for(Elem* curr=head;curr && curr!=tail;curr=curr->next){
 230              		.loc 2 53 15
 231 0124 93070000 		li	a5,0
 232              	.L21:
 233              	.LVL18:
 234              	.LBB85:
  54:src/../h/List.hpp ****             prev=curr;
 235              		.loc 2 54 34 is_stmt 1
 236 0128 638C0400 		beqz	s1,.L20
  54:src/../h/List.hpp ****             prev=curr;
 237              		.loc 2 54 43 is_stmt 0
 238 012c 03378500 		ld	a4,8(a0)
  54:src/../h/List.hpp ****             prev=curr;
 239              		.loc 2 54 34
 240 0130 6388E400 		beq	s1,a4,.L20
 241              	.LVL19:
  54:src/../h/List.hpp ****             prev=curr;
 242              		.loc 2 54 9 is_stmt 1
  55:src/../h/List.hpp ****         }
 243              		.loc 2 55 13 is_stmt 0
 244 0134 93870400 		mv	a5,s1
  54:src/../h/List.hpp ****             prev=curr;
 245              		.loc 2 54 9
 246 0138 83B48400 		ld	s1,8(s1)
 247              	.LVL20:
 248 013c 6FF0DFFE 		j	.L21
 249              	.L20:
 250              	.LBE85:
  57:src/../h/List.hpp ****         if(prev) {prev->next=0;}
 251              		.loc 2 57 15
 252 0140 03398500 		ld	s2,8(a0)
 253              	.LVL21:
  58:src/../h/List.hpp ****         else{  head=0; }
 254              		.loc 2 58 9
 255 0144 63820704 		beqz	a5,.L22
  58:src/../h/List.hpp ****         else{  head=0; }
 256              		.loc 2 58 19
 257 0148 23B40700 		sd	zero,8(a5)
 258              	.L23:
  60:src/../h/List.hpp ****         T* ret=elem->data;
 259              		.loc 2 60 9
 260 014c 2334F500 		sd	a5,8(a0)
  61:src/../h/List.hpp ****         delete elem;
 261              		.loc 2 61 12
GAS LISTING /tmp/cc62fMTe.s 			page 8


 262 0150 83340900 		ld	s1,0(s2)
 263              	.LVL22:
  62:src/../h/List.hpp ****         return ret;
 264              		.loc 2 62 9
 265 0154 630C0900 		beqz	s2,.L18
 266              	.LVL23:
 267              	.LBB86:
 268              	.LBB87:
  80:src/../h/List.hpp ****         void  operator delete(void* p) { MemoryAllocator::getInstance().free(p); }
 269              		.loc 2 80 71
 270 0158 97000000 		call	_ZN15MemoryAllocator11getInstanceEv
 270      E7800000 
 271              	.LVL24:
 272              		.loc 2 80 77
 273 0160 93050900 		mv	a1,s2
 274 0164 97000000 		call	_ZN15MemoryAllocator4freeEPv
 274      E7800000 
 275              	.LVL25:
 276              	.L18:
 277              	.LBE87:
 278              	.LBE86:
 279              	.LBE84:
 280              	.LBE83:
  17:src/Scheduler.cpp **** 
  18:src/Scheduler.cpp **** }
 281              		.loc 1 18 1
 282 016c 13850400 		mv	a0,s1
 283 0170 83308101 		ld	ra,24(sp)
 284              		.cfi_remember_state
 285              		.cfi_restore 1
 286 0174 03340101 		ld	s0,16(sp)
 287              		.cfi_restore 8
 288              		.cfi_def_cfa 2, 32
 289 0178 83348100 		ld	s1,8(sp)
 290              		.cfi_restore 9
 291 017c 03390100 		ld	s2,0(sp)
 292              		.cfi_restore 18
 293 0180 13010102 		addi	sp,sp,32
 294              		.cfi_def_cfa_offset 0
 295 0184 67800000 		jr	ra
 296              	.LVL26:
 297              	.L22:
 298              		.cfi_restore_state
 299              	.LBB89:
 300              	.LBB88:
  59:src/../h/List.hpp ****         tail=prev;
 301              		.loc 2 59 16
 302 0188 23300500 		sd	zero,0(a0)
 303 018c 6FF01FFC 		j	.L23
 304              	.LBE88:
 305              	.LBE89:
 306              		.cfi_endproc
 307              	.LFE38:
 309              		.align	2
 310              		.globl	_ZN9Scheduler8putSleepEP3TCB
 312              	_ZN9Scheduler8putSleepEP3TCB:
 313              	.LFB39:
GAS LISTING /tmp/cc62fMTe.s 			page 9


  19:src/Scheduler.cpp **** 
  20:src/Scheduler.cpp **** void Scheduler::putSleep(TCB* t){
 314              		.loc 1 20 33 is_stmt 1
 315              		.cfi_startproc
 316              	.LVL27:
  21:src/Scheduler.cpp ****     if(t!=nullptr) Scheduler::getInstance().sleep.add(t);
 317              		.loc 1 21 5
 318 0190 6300050E 		beqz	a0,.L36
  20:src/Scheduler.cpp ****     if(t!=nullptr) Scheduler::getInstance().sleep.add(t);
 319              		.loc 1 20 33 is_stmt 0 discriminator 1
 320 0194 130101FE 		addi	sp,sp,-32
 321              		.cfi_def_cfa_offset 32
 322 0198 233C1100 		sd	ra,24(sp)
 323 019c 23388100 		sd	s0,16(sp)
 324 01a0 23349100 		sd	s1,8(sp)
 325 01a4 23302101 		sd	s2,0(sp)
 326              		.cfi_offset 1, -8
 327              		.cfi_offset 8, -16
 328              		.cfi_offset 9, -24
 329              		.cfi_offset 18, -32
 330 01a8 13040102 		addi	s0,sp,32
 331              		.cfi_def_cfa 8, 0
 332 01ac 93040500 		mv	s1,a0
 333              		.loc 1 21 20 is_stmt 1 discriminator 1
 334              		.loc 1 21 43 is_stmt 0 discriminator 1
 335 01b0 97000000 		call	_ZN9Scheduler11getInstanceEv
 335      E7800000 
 336              	.LVL28:
 337 01b8 13090500 		mv	s2,a0
 338              	.LVL29:
 339              	.LBB115:
 340              	.LBB116:
 341              	.LBB117:
 342              	.LBB118:
  11:src/../h/PriorityQueue.hpp **** 
  12:src/../h/PriorityQueue.hpp ****     PriorityQueue(const PriorityQueue<T> &)=delete;
  13:src/../h/PriorityQueue.hpp **** 
  14:src/../h/PriorityQueue.hpp ****     PriorityQueue<T> &operator=(const PriorityQueue<T> &)=delete;
  15:src/../h/PriorityQueue.hpp **** 
  16:src/../h/PriorityQueue.hpp ****     void add(T *data) {
  17:src/../h/PriorityQueue.hpp ****         Elem *elem = new Elem(data, nullptr);
  18:src/../h/PriorityQueue.hpp ****         time_t sleepTime = data->getSleepingTime();
  19:src/../h/PriorityQueue.hpp ****         if (!head || sleepTime < head->data->getSleepingTime()) {
  20:src/../h/PriorityQueue.hpp ****             if (head) {
  21:src/../h/PriorityQueue.hpp ****                 head->data->setSleepingTime(head->data->getSleepingTime() - sleepTime);
  22:src/../h/PriorityQueue.hpp ****             }
  23:src/../h/PriorityQueue.hpp ****             elem->next = head;
  24:src/../h/PriorityQueue.hpp ****             head = elem;
  25:src/../h/PriorityQueue.hpp ****         }
  26:src/../h/PriorityQueue.hpp ****         else{
  27:src/../h/PriorityQueue.hpp ****             Elem *prev = nullptr;
  28:src/../h/PriorityQueue.hpp ****             Elem *curr = head;
  29:src/../h/PriorityQueue.hpp ****             while (curr && sleepTime >= curr->data->getSleepingTime()) {
  30:src/../h/PriorityQueue.hpp ****                 sleepTime -= curr->data->getSleepingTime();
  31:src/../h/PriorityQueue.hpp ****                 prev = curr;
  32:src/../h/PriorityQueue.hpp ****                 curr = curr->next;
  33:src/../h/PriorityQueue.hpp ****             }
GAS LISTING /tmp/cc62fMTe.s 			page 10


  34:src/../h/PriorityQueue.hpp ****             elem->data->setSleepingTime(sleepTime);
  35:src/../h/PriorityQueue.hpp ****             prev->next = elem;
  36:src/../h/PriorityQueue.hpp ****             elem->next = curr;
  37:src/../h/PriorityQueue.hpp ****             if (curr) {
  38:src/../h/PriorityQueue.hpp ****                 curr->data->setSleepingTime(curr->data->getSleepingTime() - sleepTime);
  39:src/../h/PriorityQueue.hpp ****             }
  40:src/../h/PriorityQueue.hpp ****         }
  41:src/../h/PriorityQueue.hpp ****     }
  42:src/../h/PriorityQueue.hpp **** 
  43:src/../h/PriorityQueue.hpp ****     T* remove() {
  44:src/../h/PriorityQueue.hpp ****         if (!head){
  45:src/../h/PriorityQueue.hpp ****             return nullptr;
  46:src/../h/PriorityQueue.hpp ****         }
  47:src/../h/PriorityQueue.hpp ****         if (head->data->getSleepingTime()==0) {
  48:src/../h/PriorityQueue.hpp ****             Elem *elem=head;
  49:src/../h/PriorityQueue.hpp ****             head=head->next;
  50:src/../h/PriorityQueue.hpp ****             T *ret=elem->data;
  51:src/../h/PriorityQueue.hpp ****             delete elem;
  52:src/../h/PriorityQueue.hpp ****             return ret;
  53:src/../h/PriorityQueue.hpp ****         }
  54:src/../h/PriorityQueue.hpp ****         return nullptr;
  55:src/../h/PriorityQueue.hpp ****     }
  56:src/../h/PriorityQueue.hpp **** 
  57:src/../h/PriorityQueue.hpp ****     T *peek(){
  58:src/../h/PriorityQueue.hpp ****         if(!head) {return 0;}
  59:src/../h/PriorityQueue.hpp ****         return head->data;
  60:src/../h/PriorityQueue.hpp ****     }
  61:src/../h/PriorityQueue.hpp **** 
  62:src/../h/PriorityQueue.hpp ****     bool empty(){
  63:src/../h/PriorityQueue.hpp ****         return head ? false : true;
  64:src/../h/PriorityQueue.hpp ****     }
  65:src/../h/PriorityQueue.hpp **** private:
  66:src/../h/PriorityQueue.hpp ****     struct Elem{
  67:src/../h/PriorityQueue.hpp ****         T *data;
  68:src/../h/PriorityQueue.hpp ****         Elem *next;
  69:src/../h/PriorityQueue.hpp ****         Elem(T* data,Elem *next):data(data),next(next){}
  70:src/../h/PriorityQueue.hpp ****         void* operator new(size_t n)   { return MemoryAllocator::getInstance().memAlloc(n); }
 343              		.loc 3 70 78 discriminator 1
 344 01bc 97000000 		call	_ZN15MemoryAllocator11getInstanceEv
 344      E7800000 
 345              	.LVL30:
 346              		.loc 3 70 88 discriminator 1
 347 01c4 93050001 		li	a1,16
 348 01c8 97000000 		call	_ZN15MemoryAllocator8memAllocEm
 348      E7800000 
 349              	.LVL31:
 350              	.LBE118:
 351              	.LBE117:
 352              	.LBB119:
 353              	.LBB120:
  69:src/../h/PriorityQueue.hpp ****         void* operator new(size_t n)   { return MemoryAllocator::getInstance().memAlloc(n); }
 354              		.loc 3 69 54 discriminator 1
 355 01d0 23309500 		sd	s1,0(a0)
 356 01d4 23340500 		sd	zero,8(a0)
 357              	.LVL32:
 358              	.LBE120:
 359              	.LBE119:
GAS LISTING /tmp/cc62fMTe.s 			page 11


 360              	.LBB121:
 361              	.LBB122:
 362              		.file 4 "src/../h/../h/TCB.hpp"
   1:src/../h/../h/TCB.hpp **** #ifndef TCB_HPP
   2:src/../h/../h/TCB.hpp **** #define TCB_HPP
   3:src/../h/../h/TCB.hpp **** 
   4:src/../h/../h/TCB.hpp **** #include "../lib/hw.h"
   5:src/../h/../h/TCB.hpp **** #include "../h/MemoryAllocator.hpp"
   6:src/../h/../h/TCB.hpp **** class Scheduler;
   7:src/../h/../h/TCB.hpp **** 
   8:src/../h/../h/TCB.hpp **** class TCB{
   9:src/../h/../h/TCB.hpp **** public:
  10:src/../h/../h/TCB.hpp ****     ~TCB(){ MemoryAllocator::getInstance().free(stack); }
  11:src/../h/../h/TCB.hpp ****     using Body = void (*)(void *);
  12:src/../h/../h/TCB.hpp ****     static TCB *create_thread(Body body,void* args,bool kernelThread);
  13:src/../h/../h/TCB.hpp ****     uint64 getTimeSlice() const{ return timeSlice;}
  14:src/../h/../h/TCB.hpp **** 
  15:src/../h/../h/TCB.hpp ****     bool isFinished() const {return finished;}
  16:src/../h/../h/TCB.hpp ****     void setFinished(bool finished) {this->finished=finished;}
  17:src/../h/../h/TCB.hpp ****     uint64 getSemWaiting() const {return semWaiting;}
  18:src/../h/../h/TCB.hpp ****     void setSemWaiting(uint64 waiting) {this->semWaiting=waiting;}
  19:src/../h/../h/TCB.hpp **** 	time_t getSleepingTime() const {return sleepingTime;}
 363              		.loc 4 19 34 is_stmt 1 discriminator 1
 364              		.loc 4 19 41 is_stmt 0 discriminator 1
 365 01d8 03B78404 		ld	a4,72(s1)
 366              	.LVL33:
 367              	.LBE122:
 368              	.LBE121:
 369              	.LBB123:
  19:src/../h/PriorityQueue.hpp ****             if (head) {
 370              		.loc 3 19 14 discriminator 1
 371 01dc 83370901 		ld	a5,16(s2)
  19:src/../h/PriorityQueue.hpp ****             if (head) {
 372              		.loc 3 19 19 discriminator 1
 373 01e0 63880700 		beqz	a5,.L27
  19:src/../h/PriorityQueue.hpp ****             if (head) {
 374              		.loc 3 19 40
 375 01e4 83B60700 		ld	a3,0(a5)
 376              	.LVL34:
 377              	.LBB124:
 378              	.LBB125:
 379              		.loc 4 19 34 is_stmt 1
 380              		.loc 4 19 41 is_stmt 0
 381 01e8 83B68604 		ld	a3,72(a3)
 382              	.LVL35:
 383              	.LBE125:
 384              	.LBE124:
  19:src/../h/PriorityQueue.hpp ****             if (head) {
 385              		.loc 3 19 19
 386 01ec 637ED702 		bgeu	a4,a3,.L34
 387              	.L27:
  20:src/../h/PriorityQueue.hpp ****                 head->data->setSleepingTime(head->data->getSleepingTime() - sleepTime);
 388              		.loc 3 20 13
 389 01f0 638A0700 		beqz	a5,.L29
  21:src/../h/PriorityQueue.hpp ****             }
 390              		.loc 3 21 23
 391 01f4 83B60700 		ld	a3,0(a5)
GAS LISTING /tmp/cc62fMTe.s 			page 12


 392              	.LVL36:
 393              	.LBB126:
 394              	.LBB127:
 395              		.loc 4 19 34 is_stmt 1
 396              		.loc 4 19 41 is_stmt 0
 397 01f8 83B78604 		ld	a5,72(a3)
 398              	.LVL37:
 399              	.LBE127:
 400              	.LBE126:
  21:src/../h/PriorityQueue.hpp ****             }
 401              		.loc 3 21 17
 402 01fc 3387E740 		sub	a4,a5,a4
 403              	.LVL38:
 404              	.LBB128:
 405              	.LBB129:
  20:src/../h/../h/TCB.hpp ****     void setSleepingTime(uint64 sleepingTime) {this->sleepingTime=sleepingTime;}
 406              		.loc 4 20 48 is_stmt 1
 407              		.loc 4 20 66 is_stmt 0
 408 0200 23B4E604 		sd	a4,72(a3)
 409              	.LVL39:
 410              	.L29:
 411              	.LBE129:
 412              	.LBE128:
  23:src/../h/PriorityQueue.hpp ****             head = elem;
 413              		.loc 3 23 26
 414 0204 83370901 		ld	a5,16(s2)
  23:src/../h/PriorityQueue.hpp ****             head = elem;
 415              		.loc 3 23 13
 416 0208 2334F500 		sd	a5,8(a0)
  24:src/../h/PriorityQueue.hpp ****         }
 417              		.loc 3 24 13
 418 020c 2338A900 		sd	a0,16(s2)
 419              	.LVL40:
 420              	.L25:
 421              	.LBE123:
 422              	.LBE116:
 423              	.LBE115:
  22:src/Scheduler.cpp **** }
 424              		.loc 1 22 1
 425 0210 83308101 		ld	ra,24(sp)
 426              		.cfi_remember_state
 427              		.cfi_restore 1
 428 0214 03340101 		ld	s0,16(sp)
 429              		.cfi_restore 8
 430              		.cfi_def_cfa 2, 32
 431 0218 83348100 		ld	s1,8(sp)
 432              		.cfi_restore 9
 433              	.LVL41:
 434 021c 03390100 		ld	s2,0(sp)
 435              		.cfi_restore 18
 436 0220 13010102 		addi	sp,sp,32
 437              		.cfi_def_cfa_offset 0
 438 0224 67800000 		jr	ra
 439              	.LVL42:
 440              	.L34:
 441              		.cfi_restore_state
 442              	.LBB144:
GAS LISTING /tmp/cc62fMTe.s 			page 13


 443              	.LBB142:
 444              	.LBB140:
 445              	.LBB130:
  27:src/../h/PriorityQueue.hpp ****             Elem *curr = head;
 446              		.loc 3 27 19
 447 0228 13060000 		li	a2,0
 448              	.L28:
 449              	.LVL43:
  29:src/../h/PriorityQueue.hpp ****                 sleepTime -= curr->data->getSleepingTime();
 450              		.loc 3 29 25 is_stmt 1
 451 022c 63800702 		beqz	a5,.L31
  29:src/../h/PriorityQueue.hpp ****                 sleepTime -= curr->data->getSleepingTime();
 452              		.loc 3 29 47 is_stmt 0
 453 0230 83B60700 		ld	a3,0(a5)
 454              	.LVL44:
 455              	.LBB131:
 456              	.LBB132:
  19:src/../h/../h/TCB.hpp ****     void setSleepingTime(uint64 sleepingTime) {this->sleepingTime=sleepingTime;}
 457              		.loc 4 19 34 is_stmt 1
  19:src/../h/../h/TCB.hpp ****     void setSleepingTime(uint64 sleepingTime) {this->sleepingTime=sleepingTime;}
 458              		.loc 4 19 41 is_stmt 0
 459 0234 83B68604 		ld	a3,72(a3)
 460              	.LVL45:
 461              	.LBE132:
 462              	.LBE131:
  29:src/../h/PriorityQueue.hpp ****                 sleepTime -= curr->data->getSleepingTime();
 463              		.loc 3 29 25
 464 0238 636AD700 		bgtu	a3,a4,.L31
 465              	.LVL46:
 466              	.LBE130:
 467              	.LBE140:
 468              	.LBE142:
 469              	.LBE144:
  19:src/../h/../h/TCB.hpp ****     void setSleepingTime(uint64 sleepingTime) {this->sleepingTime=sleepingTime;}
 470              		.loc 4 19 34 is_stmt 1
 471              	.LBB145:
 472              	.LBB143:
 473              	.LBB141:
 474              	.LBB139:
  30:src/../h/PriorityQueue.hpp ****                 prev = curr;
 475              		.loc 3 30 17 is_stmt 0
 476 023c 3307D740 		sub	a4,a4,a3
 477              	.LVL47:
  31:src/../h/PriorityQueue.hpp ****                 curr = curr->next;
 478              		.loc 3 31 17
 479 0240 13860700 		mv	a2,a5
  32:src/../h/PriorityQueue.hpp ****             }
 480              		.loc 3 32 17
 481 0244 83B78700 		ld	a5,8(a5)
 482              	.LVL48:
  29:src/../h/PriorityQueue.hpp ****                 sleepTime -= curr->data->getSleepingTime();
 483              		.loc 3 29 13
 484 0248 6FF05FFE 		j	.L28
 485              	.L31:
 486              	.LVL49:
 487              	.LBB133:
 488              	.LBB134:
GAS LISTING /tmp/cc62fMTe.s 			page 14


 489              		.loc 4 20 48 is_stmt 1
 490              		.loc 4 20 66 is_stmt 0
 491 024c 23B4E404 		sd	a4,72(s1)
 492              	.LVL50:
 493              	.LBE134:
 494              	.LBE133:
  35:src/../h/PriorityQueue.hpp ****             elem->next = curr;
 495              		.loc 3 35 13
 496 0250 2334A600 		sd	a0,8(a2)
  36:src/../h/PriorityQueue.hpp ****             if (curr) {
 497              		.loc 3 36 13
 498 0254 2334F500 		sd	a5,8(a0)
  37:src/../h/PriorityQueue.hpp ****                 curr->data->setSleepingTime(curr->data->getSleepingTime() - sleepTime);
 499              		.loc 3 37 13
 500 0258 E38C07FA 		beqz	a5,.L25
  38:src/../h/PriorityQueue.hpp ****             }
 501              		.loc 3 38 23
 502 025c 83B60700 		ld	a3,0(a5)
 503              	.LVL51:
 504              	.LBB135:
 505              	.LBB136:
  19:src/../h/../h/TCB.hpp ****     void setSleepingTime(uint64 sleepingTime) {this->sleepingTime=sleepingTime;}
 506              		.loc 4 19 34 is_stmt 1
  19:src/../h/../h/TCB.hpp ****     void setSleepingTime(uint64 sleepingTime) {this->sleepingTime=sleepingTime;}
 507              		.loc 4 19 41 is_stmt 0
 508 0260 83B78604 		ld	a5,72(a3)
 509              	.LVL52:
 510              	.LBE136:
 511              	.LBE135:
  38:src/../h/PriorityQueue.hpp ****             }
 512              		.loc 3 38 17
 513 0264 3387E740 		sub	a4,a5,a4
 514              	.LVL53:
 515              	.LBB137:
 516              	.LBB138:
 517              		.loc 4 20 48 is_stmt 1
 518              		.loc 4 20 66 is_stmt 0
 519 0268 23B4E604 		sd	a4,72(a3)
 520              	.LVL54:
 521              	.LBE138:
 522              	.LBE137:
 523              	.LBE139:
 524              	.LBE141:
 525              	.LBE143:
 526              	.LBE145:
 527              		.loc 1 22 1
 528 026c 6FF05FFA 		j	.L25
 529              	.LVL55:
 530              	.L36:
 531              		.cfi_def_cfa_register 2
 532              		.cfi_restore 1
 533              		.cfi_restore 8
 534              		.cfi_restore 9
 535              		.cfi_restore 18
 536 0270 67800000 		ret
 537              		.cfi_endproc
 538              	.LFE39:
GAS LISTING /tmp/cc62fMTe.s 			page 15


 540              		.align	2
 541              		.globl	_ZN9Scheduler11updateSleepEv
 543              	_ZN9Scheduler11updateSleepEv:
 544              	.LFB40:
  23:src/Scheduler.cpp **** 
  24:src/Scheduler.cpp **** void Scheduler::updateSleep(){
 545              		.loc 1 24 30 is_stmt 1
 546              		.cfi_startproc
 547 0274 130101FD 		addi	sp,sp,-48
 548              		.cfi_def_cfa_offset 48
 549 0278 23341102 		sd	ra,40(sp)
 550 027c 23308102 		sd	s0,32(sp)
 551 0280 233C9100 		sd	s1,24(sp)
 552 0284 23382101 		sd	s2,16(sp)
 553 0288 23343101 		sd	s3,8(sp)
 554              		.cfi_offset 1, -8
 555              		.cfi_offset 8, -16
 556              		.cfi_offset 9, -24
 557              		.cfi_offset 18, -32
 558              		.cfi_offset 19, -40
 559 028c 13040103 		addi	s0,sp,48
 560              		.cfi_def_cfa 8, 0
  25:src/Scheduler.cpp ****     Scheduler& scheduler=getInstance();
 561              		.loc 1 25 5
 562              		.loc 1 25 38 is_stmt 0
 563 0290 97000000 		call	_ZN9Scheduler11getInstanceEv
 563      E7800000 
 564              	.LVL56:
  26:src/Scheduler.cpp ****     if (scheduler.sleep.empty()) return;
 565              		.loc 1 26 5 is_stmt 1
 566              	.LBB163:
 567              	.LBB164:
  63:src/../h/PriorityQueue.hpp ****     }
 568              		.loc 3 63 16 is_stmt 0
 569 0298 83370501 		ld	a5,16(a0)
 570              	.LVL57:
 571              	.LBE164:
 572              	.LBE163:
 573              		.loc 1 26 5
 574 029c 638A0706 		beqz	a5,.L39
 575 02a0 93090500 		mv	s3,a0
  27:src/Scheduler.cpp ****     time_t cur = scheduler.sleep.peek()->getSleepingTime();
 576              		.loc 1 27 5 is_stmt 1
 577              	.LVL58:
 578              	.LBB165:
 579              	.LBB166:
  59:src/../h/PriorityQueue.hpp ****     }
 580              		.loc 3 59 22 is_stmt 0
 581 02a4 03B70700 		ld	a4,0(a5)
 582              	.LVL59:
 583              	.LBE166:
 584              	.LBE165:
 585              	.LBB167:
 586              	.LBB168:
  19:src/../h/../h/TCB.hpp ****     void setSleepingTime(uint64 sleepingTime) {this->sleepingTime=sleepingTime;}
 587              		.loc 4 19 34 is_stmt 1
  19:src/../h/../h/TCB.hpp ****     void setSleepingTime(uint64 sleepingTime) {this->sleepingTime=sleepingTime;}
GAS LISTING /tmp/cc62fMTe.s 			page 16


 588              		.loc 4 19 41 is_stmt 0
 589 02a8 83378704 		ld	a5,72(a4)
 590              	.LVL60:
 591              	.LBE168:
 592              	.LBE167:
  28:src/Scheduler.cpp ****     if (cur > 0) scheduler.sleep.peek()->setSleepingTime(cur - 1);
 593              		.loc 1 28 5 is_stmt 1
 594 02ac 63800704 		beqz	a5,.L43
 595              		.loc 1 28 18
 596              		.loc 1 28 57 is_stmt 0
 597 02b0 9387F7FF 		addi	a5,a5,-1
 598              	.LVL61:
 599              	.LBB169:
 600              	.LBB170:
 601              		.loc 4 20 48 is_stmt 1
 602              		.loc 4 20 66 is_stmt 0
 603 02b4 2334F704 		sd	a5,72(a4)
 604              	.LVL62:
 605              		.loc 4 20 80
 606 02b8 6F004003 		j	.L43
 607              	.LVL63:
 608              	.L47:
 609              	.LBE170:
 610              	.LBE169:
 611              	.LBB171:
 612              	.LBB172:
 613              	.LBB173:
 614              	.LBB174:
 615              	.LBB175:
  49:src/../h/PriorityQueue.hpp ****             T *ret=elem->data;
 616              		.loc 3 49 24
 617 02bc 83B78400 		ld	a5,8(s1)
  49:src/../h/PriorityQueue.hpp ****             T *ret=elem->data;
 618              		.loc 3 49 13
 619 02c0 23B8F900 		sd	a5,16(s3)
  50:src/../h/PriorityQueue.hpp ****             delete elem;
 620              		.loc 3 50 16
 621 02c4 03B90400 		ld	s2,0(s1)
 622              	.LVL64:
 623              	.LBB176:
 624              	.LBB177:
  71:src/../h/PriorityQueue.hpp ****         void  operator delete(void* p) { MemoryAllocator::getInstance().free(p); }
 625              		.loc 3 71 71
 626 02c8 97000000 		call	_ZN15MemoryAllocator11getInstanceEv
 626      E7800000 
 627              	.LVL65:
 628              		.loc 3 71 77
 629 02d0 93850400 		mv	a1,s1
 630 02d4 97000000 		call	_ZN15MemoryAllocator4freeEPv
 630      E7800000 
 631              	.LVL66:
 632              	.L42:
 633              	.LBE177:
 634              	.LBE176:
 635              	.LBE175:
 636              	.LBE174:
 637              	.LBE173:
GAS LISTING /tmp/cc62fMTe.s 			page 17


 638              	.LBE172:
  29:src/Scheduler.cpp ****     while (TCB* t = scheduler.sleep.remove()) {
 639              		.loc 1 29 44
 640 02dc 630A0902 		beqz	s2,.L39
  30:src/Scheduler.cpp ****         Scheduler::put(t);
 641              		.loc 1 30 9 is_stmt 1
 642              		.loc 1 30 23 is_stmt 0
 643 02e0 13050900 		mv	a0,s2
 644 02e4 97000000 		call	_ZN9Scheduler3putEP3TCB
 644      E7800000 
 645              	.LVL67:
 646              	.LBE171:
  29:src/Scheduler.cpp ****     while (TCB* t = scheduler.sleep.remove()) {
 647              		.loc 1 29 5 is_stmt 1
 648              	.L43:
  29:src/Scheduler.cpp ****     while (TCB* t = scheduler.sleep.remove()) {
 649              		.loc 1 29 5
 650              	.LBB183:
 651              	.LBB182:
 652              	.LBB181:
  44:src/../h/PriorityQueue.hpp ****             return nullptr;
 653              		.loc 3 44 14 is_stmt 0
 654 02ec 83B40901 		ld	s1,16(s3)
  44:src/../h/PriorityQueue.hpp ****             return nullptr;
 655              		.loc 3 44 9
 656 02f0 638C0400 		beqz	s1,.L44
 657              	.LBB180:
  47:src/../h/PriorityQueue.hpp ****             Elem *elem=head;
 658              		.loc 3 47 19
 659 02f4 83B70400 		ld	a5,0(s1)
 660              	.LVL68:
 661              	.LBB178:
 662              	.LBB179:
  19:src/../h/../h/TCB.hpp ****     void setSleepingTime(uint64 sleepingTime) {this->sleepingTime=sleepingTime;}
 663              		.loc 4 19 34 is_stmt 1
  19:src/../h/../h/TCB.hpp ****     void setSleepingTime(uint64 sleepingTime) {this->sleepingTime=sleepingTime;}
 664              		.loc 4 19 41 is_stmt 0
 665 02f8 83B78704 		ld	a5,72(a5)
 666              	.LVL69:
 667              	.LBE179:
 668              	.LBE178:
  47:src/../h/PriorityQueue.hpp ****             Elem *elem=head;
 669              		.loc 3 47 9
 670 02fc E38007FC 		beqz	a5,.L47
 671              	.LBE180:
  54:src/../h/PriorityQueue.hpp ****     }
 672              		.loc 3 54 16
 673 0300 13090000 		li	s2,0
 674 0304 6FF09FFD 		j	.L42
 675              	.L44:
  45:src/../h/PriorityQueue.hpp ****         }
 676              		.loc 3 45 20
 677 0308 13890400 		mv	s2,s1
 678 030c 6FF01FFD 		j	.L42
 679              	.LVL70:
 680              	.L39:
 681              	.LBE181:
GAS LISTING /tmp/cc62fMTe.s 			page 18


 682              	.LBE182:
 683              	.LBE183:
  31:src/Scheduler.cpp ****     }
  32:src/Scheduler.cpp **** }...
 684              		.loc 1 32 1
 685 0310 83308102 		ld	ra,40(sp)
 686              		.cfi_restore 1
 687 0314 03340102 		ld	s0,32(sp)
 688              		.cfi_restore 8
 689              		.cfi_def_cfa 2, 48
 690 0318 83348101 		ld	s1,24(sp)
 691              		.cfi_restore 9
 692 031c 03390101 		ld	s2,16(sp)
 693              		.cfi_restore 18
 694 0320 83398100 		ld	s3,8(sp)
 695              		.cfi_restore 19
 696 0324 13010103 		addi	sp,sp,48
 697              		.cfi_def_cfa_offset 0
 698 0328 67800000 		jr	ra
 699              		.cfi_endproc
 700              	.LFE40:
 702              		.bss
 703              		.align	3
 704              		.set	.LANCHOR0,. + 0
 707              	_ZZN9Scheduler11getInstanceEvE8instance:
 708 0000 00000000 		.zero	24
 708      00000000 
 708      00000000 
 708      00000000 
 708      00000000 
 709              		.section	.sbss,"aw",@nobits
 710              		.align	3
 713              	_ZGVZN9Scheduler11getInstanceEvE8instance:
 714 0000 00000000 		.zero	8
 714      00000000 
 715              		.text
 716              	.Letext0:
 717              		.file 5 "src/../h/../lib/hw.h"
 718              		.file 6 "src/../h/../h/MemoryAllocator.hpp"
 719              		.file 7 "src/../h/Scheduler.hpp"
GAS LISTING /tmp/cc62fMTe.s 			page 19

