GAS LISTING /tmp/cctram5e.s 			page 1


   1              		.file	"syscall_cpp.cpp"
   2              		.option nopic
   3              		.option norelax
   4              		.attribute arch, "rv64i2p0_m2p0_a2p0"
   5              		.attribute unaligned_access, 0
   6              		.attribute stack_align, 16
   7              		.text
   8              	.Ltext0:
   9              		.section	.text._ZN6Thread3runEv,"axG",@progbits,_ZN6Thread3runEv,comdat
  10              		.align	2
  11              		.weak	_ZN6Thread3runEv
  13              	_ZN6Thread3runEv:
  14              	.LFB0:
  15              		.file 1 "src/../h/syscall_cpp.hpp"
   1:src/../h/syscall_cpp.hpp **** #ifndef _syscall_cpp
   2:src/../h/syscall_cpp.hpp **** #define _syscall_cpp
   3:src/../h/syscall_cpp.hpp **** 
   4:src/../h/syscall_cpp.hpp **** #include "syscall_c.hpp"
   5:src/../h/syscall_cpp.hpp **** 
   6:src/../h/syscall_cpp.hpp **** void* operator new (size_t size);
   7:src/../h/syscall_cpp.hpp **** void  operator delete (void* addr);
   8:src/../h/syscall_cpp.hpp **** 
   9:src/../h/syscall_cpp.hpp **** class Thread {
  10:src/../h/syscall_cpp.hpp **** public:
  11:src/../h/syscall_cpp.hpp ****     Thread (void (*body)(void*), void* arg);
  12:src/../h/syscall_cpp.hpp ****     virtual ~Thread ();
  13:src/../h/syscall_cpp.hpp ****     int start ();
  14:src/../h/syscall_cpp.hpp ****     static void dispatch ();
  15:src/../h/syscall_cpp.hpp ****     static int sleep (time_t);
  16:src/../h/syscall_cpp.hpp **** protected:
  17:src/../h/syscall_cpp.hpp ****     Thread ();
  18:src/../h/syscall_cpp.hpp ****     virtual void run () {}
  16              		.loc 1 18 18
  17              		.cfi_startproc
  18              	.LVL0:
  19 0000 130101FF 		addi	sp,sp,-16
  20              		.cfi_def_cfa_offset 16
  21 0004 23348100 		sd	s0,8(sp)
  22              		.cfi_offset 8, -8
  23 0008 13040101 		addi	s0,sp,16
  24              		.cfi_def_cfa 8, 0
  25              		.loc 1 18 26 is_stmt 0
  26 000c 03348100 		ld	s0,8(sp)
  27              		.cfi_restore 8
  28              		.cfi_def_cfa 2, 16
  29 0010 13010101 		addi	sp,sp,16
  30              		.cfi_def_cfa_offset 0
  31 0014 67800000 		jr	ra
  32              		.cfi_endproc
  33              	.LFE0:
  35              		.section	.text._ZN14PeriodicThread18periodicActivationEv,"axG",@progbits,_ZN14PeriodicThread18peri
  36              		.align	2
  37              		.weak	_ZN14PeriodicThread18periodicActivationEv
  39              	_ZN14PeriodicThread18periodicActivationEv:
  40              	.LFB1:
  19:src/../h/syscall_cpp.hpp **** private:
  20:src/../h/syscall_cpp.hpp ****     static void threadWrapper(void* arg);
GAS LISTING /tmp/cctram5e.s 			page 2


  21:src/../h/syscall_cpp.hpp ****     thread_t myHandle;
  22:src/../h/syscall_cpp.hpp ****     void (*body)(void*); void* arg;
  23:src/../h/syscall_cpp.hpp **** };
  24:src/../h/syscall_cpp.hpp **** 
  25:src/../h/syscall_cpp.hpp **** class Semaphore {
  26:src/../h/syscall_cpp.hpp **** public:
  27:src/../h/syscall_cpp.hpp ****     Semaphore (unsigned init = 1);
  28:src/../h/syscall_cpp.hpp ****     virtual ~Semaphore ();
  29:src/../h/syscall_cpp.hpp ****     int wait ();
  30:src/../h/syscall_cpp.hpp ****     int signal ();
  31:src/../h/syscall_cpp.hpp **** private:
  32:src/../h/syscall_cpp.hpp ****     sem_t myHandle;
  33:src/../h/syscall_cpp.hpp **** };
  34:src/../h/syscall_cpp.hpp **** 
  35:src/../h/syscall_cpp.hpp **** class PeriodicThread:public Thread {
  36:src/../h/syscall_cpp.hpp **** public:
  37:src/../h/syscall_cpp.hpp ****     void terminate();
  38:src/../h/syscall_cpp.hpp **** protected:
  39:src/../h/syscall_cpp.hpp ****     PeriodicThread(time_t period);
  40:src/../h/syscall_cpp.hpp ****     virtual void periodicActivation(){}
  41              		.loc 1 40 18 is_stmt 1
  42              		.cfi_startproc
  43              	.LVL1:
  44 0000 130101FF 		addi	sp,sp,-16
  45              		.cfi_def_cfa_offset 16
  46 0004 23348100 		sd	s0,8(sp)
  47              		.cfi_offset 8, -8
  48 0008 13040101 		addi	s0,sp,16
  49              		.cfi_def_cfa 8, 0
  50              		.loc 1 40 39 is_stmt 0
  51 000c 03348100 		ld	s0,8(sp)
  52              		.cfi_restore 8
  53              		.cfi_def_cfa 2, 16
  54 0010 13010101 		addi	sp,sp,16
  55              		.cfi_def_cfa_offset 0
  56 0014 67800000 		jr	ra
  57              		.cfi_endproc
  58              	.LFE1:
  60              		.text
  61              		.align	2
  62              		.globl	_ZN6ThreadD2Ev
  64              	_ZN6ThreadD2Ev:
  65              	.LFB8:
  66              		.file 2 "src/syscall_cpp.cpp"
   1:src/syscall_cpp.cpp **** #include "../h/syscall_cpp.hpp"
   2:src/syscall_cpp.cpp **** #include "../h/syscall_c.hpp"
   3:src/syscall_cpp.cpp **** 
   4:src/syscall_cpp.cpp **** void* operator new(size_t size){
   5:src/syscall_cpp.cpp ****     return mem_alloc(size);
   6:src/syscall_cpp.cpp **** }
   7:src/syscall_cpp.cpp **** 
   8:src/syscall_cpp.cpp **** void operator delete(void* addr){
   9:src/syscall_cpp.cpp ****     mem_free(addr);
  10:src/syscall_cpp.cpp **** }
  11:src/syscall_cpp.cpp **** 
  12:src/syscall_cpp.cpp **** Thread::Thread(void (*body)(void*),void* arg){
  13:src/syscall_cpp.cpp ****     this->body=body;
GAS LISTING /tmp/cctram5e.s 			page 3


  14:src/syscall_cpp.cpp ****     this->arg=arg;
  15:src/syscall_cpp.cpp **** }
  16:src/syscall_cpp.cpp **** 
  17:src/syscall_cpp.cpp **** Thread::~Thread(){}
  67              		.loc 2 17 1 is_stmt 1
  68              		.cfi_startproc
  69              	.LVL2:
  70 0000 130101FF 		addi	sp,sp,-16
  71              		.cfi_def_cfa_offset 16
  72 0004 23348100 		sd	s0,8(sp)
  73              		.cfi_offset 8, -8
  74 0008 13040101 		addi	s0,sp,16
  75              		.cfi_def_cfa 8, 0
  76              		.loc 2 17 19 is_stmt 0
  77 000c 03348100 		ld	s0,8(sp)
  78              		.cfi_restore 8
  79              		.cfi_def_cfa 2, 16
  80 0010 13010101 		addi	sp,sp,16
  81              		.cfi_def_cfa_offset 0
  82 0014 67800000 		jr	ra
  83              		.cfi_endproc
  84              	.LFE8:
  86              		.globl	_ZN6ThreadD1Ev
  87              		.set	_ZN6ThreadD1Ev,_ZN6ThreadD2Ev
  88              		.align	2
  89              		.globl	_ZN6Thread13threadWrapperEPv
  91              	_ZN6Thread13threadWrapperEPv:
  92              	.LFB17:
  18:src/syscall_cpp.cpp **** 
  19:src/syscall_cpp.cpp **** int Thread::start(){
  20:src/syscall_cpp.cpp ****     if(body==nullptr){
  21:src/syscall_cpp.cpp ****         return thread_create(&this->myHandle,threadWrapper,this);
  22:src/syscall_cpp.cpp ****     }
  23:src/syscall_cpp.cpp ****     else{
  24:src/syscall_cpp.cpp ****         return thread_create(&this->myHandle,this->body,this->arg);
  25:src/syscall_cpp.cpp ****     }
  26:src/syscall_cpp.cpp **** }
  27:src/syscall_cpp.cpp **** 
  28:src/syscall_cpp.cpp **** void Thread::dispatch(){
  29:src/syscall_cpp.cpp ****     thread_dispatch();
  30:src/syscall_cpp.cpp **** }
  31:src/syscall_cpp.cpp **** 
  32:src/syscall_cpp.cpp **** int Thread::sleep(time_t t){
  33:src/syscall_cpp.cpp ****     return time_sleep(t);
  34:src/syscall_cpp.cpp **** }
  35:src/syscall_cpp.cpp **** 
  36:src/syscall_cpp.cpp **** Thread::Thread(){
  37:src/syscall_cpp.cpp ****     this->body=nullptr;
  38:src/syscall_cpp.cpp ****     this->arg=nullptr;
  39:src/syscall_cpp.cpp **** }
  40:src/syscall_cpp.cpp **** 
  41:src/syscall_cpp.cpp **** void Thread::threadWrapper(void* arg){
  93              		.loc 2 41 38 is_stmt 1
  94              		.cfi_startproc
  95              	.LVL3:
  96 0018 130101FF 		addi	sp,sp,-16
  97              		.cfi_def_cfa_offset 16
GAS LISTING /tmp/cctram5e.s 			page 4


  98 001c 23341100 		sd	ra,8(sp)
  99 0020 23308100 		sd	s0,0(sp)
 100              		.cfi_offset 1, -8
 101              		.cfi_offset 8, -16
 102 0024 13040101 		addi	s0,sp,16
 103              		.cfi_def_cfa 8, 0
  42:src/syscall_cpp.cpp ****     ((Thread*)arg)->run();
 104              		.loc 2 42 5
 105              		.loc 2 42 25 is_stmt 0
 106 0028 83370500 		ld	a5,0(a0)
 107 002c 83B70701 		ld	a5,16(a5)
 108              		.loc 2 42 24
 109 0030 E7800700 		jalr	a5
 110              	.LVL4:
  43:src/syscall_cpp.cpp **** }
 111              		.loc 2 43 1
 112 0034 83308100 		ld	ra,8(sp)
 113              		.cfi_restore 1
 114 0038 03340100 		ld	s0,0(sp)
 115              		.cfi_restore 8
 116              		.cfi_def_cfa 2, 16
 117 003c 13010101 		addi	sp,sp,16
 118              		.cfi_def_cfa_offset 0
 119 0040 67800000 		jr	ra
 120              		.cfi_endproc
 121              	.LFE17:
 123              		.section	.text._ZN14PeriodicThreadD2Ev,"axG",@progbits,_ZN14PeriodicThreadD5Ev,comdat
 124              		.align	2
 125              		.weak	_ZN14PeriodicThreadD2Ev
 127              	_ZN14PeriodicThreadD2Ev:
 128              	.LFB35:
  35:src/../h/syscall_cpp.hpp **** public:
 129              		.loc 1 35 7 is_stmt 1
 130              		.cfi_startproc
 131              	.LVL5:
 132 0000 130101FF 		addi	sp,sp,-16
 133              		.cfi_def_cfa_offset 16
 134 0004 23348100 		sd	s0,8(sp)
 135              		.cfi_offset 8, -8
 136 0008 13040101 		addi	s0,sp,16
 137              		.cfi_def_cfa 8, 0
 138              	.LBB5:
  35:src/../h/syscall_cpp.hpp **** public:
 139              		.loc 1 35 7 is_stmt 0
 140 000c 97070000 		lla	a5,_ZTV14PeriodicThread+16
 140      93870700 
 141 0014 2330F500 		sd	a5,0(a0)
 142              	.LBE5:
 143 0018 03348100 		ld	s0,8(sp)
 144              		.cfi_restore 8
 145              		.cfi_def_cfa 2, 16
 146 001c 13010101 		addi	sp,sp,16
 147              		.cfi_def_cfa_offset 0
 148 0020 67800000 		jr	ra
 149              		.cfi_endproc
 150              	.LFE35:
 152              		.weak	_ZN14PeriodicThreadD1Ev
GAS LISTING /tmp/cctram5e.s 			page 5


 153              		.set	_ZN14PeriodicThreadD1Ev,_ZN14PeriodicThreadD2Ev
 154              		.text
 155              		.align	2
 156              		.globl	_ZN14PeriodicThread3runEv
 158              	_ZN14PeriodicThread3runEv:
 159              	.LFB31:
  44:src/syscall_cpp.cpp **** 
  45:src/syscall_cpp.cpp **** Semaphore::Semaphore(unsigned init){
  46:src/syscall_cpp.cpp ****     sem_open(&myHandle,init);
  47:src/syscall_cpp.cpp **** }
  48:src/syscall_cpp.cpp **** 
  49:src/syscall_cpp.cpp **** int Semaphore::wait(){
  50:src/syscall_cpp.cpp ****     return sem_wait(myHandle);
  51:src/syscall_cpp.cpp **** }
  52:src/syscall_cpp.cpp **** 
  53:src/syscall_cpp.cpp **** int Semaphore::signal(){
  54:src/syscall_cpp.cpp ****     return sem_signal(myHandle);
  55:src/syscall_cpp.cpp **** }
  56:src/syscall_cpp.cpp **** 
  57:src/syscall_cpp.cpp **** Semaphore::~Semaphore(){
  58:src/syscall_cpp.cpp ****     sem_close(myHandle);
  59:src/syscall_cpp.cpp **** }
  60:src/syscall_cpp.cpp **** 
  61:src/syscall_cpp.cpp **** void PeriodicThread::terminate(){
  62:src/syscall_cpp.cpp ****     thread_exit();
  63:src/syscall_cpp.cpp **** }
  64:src/syscall_cpp.cpp **** 
  65:src/syscall_cpp.cpp **** PeriodicThread::PeriodicThread(time_t period){
  66:src/syscall_cpp.cpp ****     this->period=period;
  67:src/syscall_cpp.cpp **** }
  68:src/syscall_cpp.cpp **** 
  69:src/syscall_cpp.cpp **** void PeriodicThread::run(){
 160              		.loc 2 69 27 is_stmt 1
 161              		.cfi_startproc
 162              	.LVL6:
 163 0044 130101FE 		addi	sp,sp,-32
 164              		.cfi_def_cfa_offset 32
 165 0048 233C1100 		sd	ra,24(sp)
 166 004c 23388100 		sd	s0,16(sp)
 167 0050 23349100 		sd	s1,8(sp)
 168              		.cfi_offset 1, -8
 169              		.cfi_offset 8, -16
 170              		.cfi_offset 9, -24
 171 0054 13040102 		addi	s0,sp,32
 172              		.cfi_def_cfa 8, 0
 173 0058 93040500 		mv	s1,a0
 174              	.LVL7:
 175              	.L12:
  70:src/syscall_cpp.cpp ****     while (1){
 176              		.loc 2 70 5 discriminator 1
  71:src/syscall_cpp.cpp ****         periodicActivation();
 177              		.loc 2 71 9 discriminator 1
 178              		.loc 2 71 28 is_stmt 0 discriminator 1
 179 005c 83B70400 		ld	a5,0(s1)
 180 0060 83B78701 		ld	a5,24(a5)
 181              		.loc 2 71 27 discriminator 1
 182 0064 13850400 		mv	a0,s1
GAS LISTING /tmp/cctram5e.s 			page 6


 183 0068 E7800700 		jalr	a5
 184              	.LVL8:
  72:src/syscall_cpp.cpp ****         time_sleep(period);
 185              		.loc 2 72 9 is_stmt 1 discriminator 1
 186              		.loc 2 72 19 is_stmt 0 discriminator 1
 187 006c 03B50402 		ld	a0,32(s1)
 188 0070 97000000 		call	_Z10time_sleepm
 188      E7800000 
 189              	.LVL9:
  70:src/syscall_cpp.cpp ****     while (1){
 190              		.loc 2 70 5 is_stmt 1 discriminator 1
 191 0078 6FF05FFE 		j	.L12
 192              		.cfi_endproc
 193              	.LFE31:
 195              		.align	2
 196              		.globl	_ZN9SemaphoreD2Ev
 198              	_ZN9SemaphoreD2Ev:
 199              	.LFB24:
  57:src/syscall_cpp.cpp ****     sem_close(myHandle);
 200              		.loc 2 57 1
 201              		.cfi_startproc
 202              		.cfi_personality 0x9b,DW.ref.__gxx_personality_v0
 203              		.cfi_lsda 0x1b,.LLSDA24
 204              	.LVL10:
 205 007c 130101FF 		addi	sp,sp,-16
 206              		.cfi_def_cfa_offset 16
 207 0080 23341100 		sd	ra,8(sp)
 208 0084 23308100 		sd	s0,0(sp)
 209              		.cfi_offset 1, -8
 210              		.cfi_offset 8, -16
 211 0088 13040101 		addi	s0,sp,16
 212              		.cfi_def_cfa 8, 0
 213              	.LBB6:
  57:src/syscall_cpp.cpp ****     sem_close(myHandle);
 214              		.loc 2 57 23 is_stmt 0
 215 008c 97070000 		lla	a5,_ZTV9Semaphore+16
 215      93870700 
 216 0094 2330F500 		sd	a5,0(a0)
  58:src/syscall_cpp.cpp **** }
 217              		.loc 2 58 5 is_stmt 1
  58:src/syscall_cpp.cpp **** }
 218              		.loc 2 58 14 is_stmt 0
 219 0098 03358500 		ld	a0,8(a0)
 220              	.LVL11:
 221 009c 97000000 		call	_Z9sem_closeP4_sem
 221      E7800000 
 222              	.LVL12:
 223              	.LBE6:
  59:src/syscall_cpp.cpp **** 
 224              		.loc 2 59 1
 225 00a4 83308100 		ld	ra,8(sp)
 226              		.cfi_restore 1
 227 00a8 03340100 		ld	s0,0(sp)
 228              		.cfi_restore 8
 229              		.cfi_def_cfa 2, 16
 230 00ac 13010101 		addi	sp,sp,16
 231              		.cfi_def_cfa_offset 0
GAS LISTING /tmp/cctram5e.s 			page 7


 232 00b0 67800000 		jr	ra
 233              		.cfi_endproc
 234              	.LFE24:
 235              		.globl	__gxx_personality_v0
 236              		.section	.gcc_except_table,"aw",@progbits
 237              	.LLSDA24:
 238 0000 FF       		.byte	0xff
 239 0001 FF       		.byte	0xff
 240 0002 03       		.byte	0x3
 241 0003 00       		.byte	0
 242              		.text
 244              		.globl	_ZN9SemaphoreD1Ev
 245              		.set	_ZN9SemaphoreD1Ev,_ZN9SemaphoreD2Ev
 246              		.align	2
 247              		.globl	_Znwm
 249              	_Znwm:
 250              	.LFB2:
   4:src/syscall_cpp.cpp ****     return mem_alloc(size);
 251              		.loc 2 4 32 is_stmt 1
 252              		.cfi_startproc
 253              	.LVL13:
 254 00b4 130101FF 		addi	sp,sp,-16
 255              		.cfi_def_cfa_offset 16
 256 00b8 23341100 		sd	ra,8(sp)
 257 00bc 23308100 		sd	s0,0(sp)
 258              		.cfi_offset 1, -8
 259              		.cfi_offset 8, -16
 260 00c0 13040101 		addi	s0,sp,16
 261              		.cfi_def_cfa 8, 0
   5:src/syscall_cpp.cpp **** }
 262              		.loc 2 5 5
   5:src/syscall_cpp.cpp **** }
 263              		.loc 2 5 21 is_stmt 0
 264 00c4 97000000 		call	_Z9mem_allocm
 264      E7800000 
 265              	.LVL14:
   6:src/syscall_cpp.cpp **** 
 266              		.loc 2 6 1
 267 00cc 83308100 		ld	ra,8(sp)
 268              		.cfi_restore 1
 269 00d0 03340100 		ld	s0,0(sp)
 270              		.cfi_restore 8
 271              		.cfi_def_cfa 2, 16
 272 00d4 13010101 		addi	sp,sp,16
 273              		.cfi_def_cfa_offset 0
 274 00d8 67800000 		jr	ra
 275              		.cfi_endproc
 276              	.LFE2:
 278              		.align	2
 279              		.globl	_ZdlPv
 281              	_ZdlPv:
 282              	.LFB3:
   8:src/syscall_cpp.cpp ****     mem_free(addr);
 283              		.loc 2 8 33 is_stmt 1
 284              		.cfi_startproc
 285              	.LVL15:
 286 00dc 130101FF 		addi	sp,sp,-16
GAS LISTING /tmp/cctram5e.s 			page 8


 287              		.cfi_def_cfa_offset 16
 288 00e0 23341100 		sd	ra,8(sp)
 289 00e4 23308100 		sd	s0,0(sp)
 290              		.cfi_offset 1, -8
 291              		.cfi_offset 8, -16
 292 00e8 13040101 		addi	s0,sp,16
 293              		.cfi_def_cfa 8, 0
   9:src/syscall_cpp.cpp **** }
 294              		.loc 2 9 5
   9:src/syscall_cpp.cpp **** }
 295              		.loc 2 9 13 is_stmt 0
 296 00ec 97000000 		call	_Z8mem_freePv
 296      E7800000 
 297              	.LVL16:
  10:src/syscall_cpp.cpp **** 
 298              		.loc 2 10 1
 299 00f4 83308100 		ld	ra,8(sp)
 300              		.cfi_restore 1
 301 00f8 03340100 		ld	s0,0(sp)
 302              		.cfi_restore 8
 303              		.cfi_def_cfa 2, 16
 304 00fc 13010101 		addi	sp,sp,16
 305              		.cfi_def_cfa_offset 0
 306 0100 67800000 		jr	ra
 307              		.cfi_endproc
 308              	.LFE3:
 310              		.align	2
 311              		.globl	_ZN6ThreadD0Ev
 313              	_ZN6ThreadD0Ev:
 314              	.LFB10:
  17:src/syscall_cpp.cpp **** 
 315              		.loc 2 17 1 is_stmt 1
 316              		.cfi_startproc
 317              	.LVL17:
 318 0104 130101FF 		addi	sp,sp,-16
 319              		.cfi_def_cfa_offset 16
 320 0108 23341100 		sd	ra,8(sp)
 321 010c 23308100 		sd	s0,0(sp)
 322              		.cfi_offset 1, -8
 323              		.cfi_offset 8, -16
 324 0110 13040101 		addi	s0,sp,16
 325              		.cfi_def_cfa 8, 0
  17:src/syscall_cpp.cpp **** 
 326              		.loc 2 17 19 is_stmt 0
 327 0114 97000000 		call	_ZdlPv
 327      E7800000 
 328              	.LVL18:
 329 011c 83308100 		ld	ra,8(sp)
 330              		.cfi_restore 1
 331 0120 03340100 		ld	s0,0(sp)
 332              		.cfi_restore 8
 333              		.cfi_def_cfa 2, 16
 334 0124 13010101 		addi	sp,sp,16
 335              		.cfi_def_cfa_offset 0
 336 0128 67800000 		jr	ra
 337              		.cfi_endproc
 338              	.LFE10:
GAS LISTING /tmp/cctram5e.s 			page 9


 340              		.align	2
 341              		.globl	_ZN9SemaphoreD0Ev
 343              	_ZN9SemaphoreD0Ev:
 344              	.LFB26:
  57:src/syscall_cpp.cpp ****     sem_close(myHandle);
 345              		.loc 2 57 1 is_stmt 1
 346              		.cfi_startproc
 347              	.LVL19:
 348 012c 130101FE 		addi	sp,sp,-32
 349              		.cfi_def_cfa_offset 32
 350 0130 233C1100 		sd	ra,24(sp)
 351 0134 23388100 		sd	s0,16(sp)
 352 0138 23349100 		sd	s1,8(sp)
 353              		.cfi_offset 1, -8
 354              		.cfi_offset 8, -16
 355              		.cfi_offset 9, -24
 356 013c 13040102 		addi	s0,sp,32
 357              		.cfi_def_cfa 8, 0
 358 0140 93040500 		mv	s1,a0
  59:src/syscall_cpp.cpp **** 
 359              		.loc 2 59 1 is_stmt 0
 360 0144 97000000 		call	_ZN9SemaphoreD1Ev
 360      E7800000 
 361              	.LVL20:
 362 014c 13850400 		mv	a0,s1
 363 0150 97000000 		call	_ZdlPv
 363      E7800000 
 364              	.LVL21:
 365 0158 83308101 		ld	ra,24(sp)
 366              		.cfi_restore 1
 367 015c 03340101 		ld	s0,16(sp)
 368              		.cfi_restore 8
 369              		.cfi_def_cfa 2, 32
 370 0160 83348100 		ld	s1,8(sp)
 371              		.cfi_restore 9
 372              	.LVL22:
 373 0164 13010102 		addi	sp,sp,32
 374              		.cfi_def_cfa_offset 0
 375 0168 67800000 		jr	ra
 376              		.cfi_endproc
 377              	.LFE26:
 379              		.section	.text._ZN14PeriodicThreadD0Ev,"axG",@progbits,_ZN14PeriodicThreadD5Ev,comdat
 380              		.align	2
 381              		.weak	_ZN14PeriodicThreadD0Ev
 383              	_ZN14PeriodicThreadD0Ev:
 384              	.LFB37:
  35:src/../h/syscall_cpp.hpp **** public:
 385              		.loc 1 35 7 is_stmt 1
 386              		.cfi_startproc
 387              	.LVL23:
 388 0000 130101FF 		addi	sp,sp,-16
 389              		.cfi_def_cfa_offset 16
 390 0004 23341100 		sd	ra,8(sp)
 391 0008 23308100 		sd	s0,0(sp)
 392              		.cfi_offset 1, -8
 393              		.cfi_offset 8, -16
 394 000c 13040101 		addi	s0,sp,16
GAS LISTING /tmp/cctram5e.s 			page 10


 395              		.cfi_def_cfa 8, 0
 396              	.LVL24:
 397              	.LBB7:
 398              	.LBB8:
  35:src/../h/syscall_cpp.hpp **** public:
 399              		.loc 1 35 7 is_stmt 0
 400 0010 97070000 		lla	a5,_ZTV14PeriodicThread+16
 400      93870700 
 401 0018 2330F500 		sd	a5,0(a0)
 402              	.LVL25:
 403              	.LBE8:
 404              	.LBE7:
 405 001c 97000000 		call	_ZdlPv
 405      E7800000 
 406              	.LVL26:
 407 0024 83308100 		ld	ra,8(sp)
 408              		.cfi_restore 1
 409 0028 03340100 		ld	s0,0(sp)
 410              		.cfi_restore 8
 411              		.cfi_def_cfa 2, 16
 412 002c 13010101 		addi	sp,sp,16
 413              		.cfi_def_cfa_offset 0
 414 0030 67800000 		jr	ra
 415              		.cfi_endproc
 416              	.LFE37:
 418              		.text
 419              		.align	2
 420              		.globl	_ZN6ThreadC2EPFvPvES0_
 422              	_ZN6ThreadC2EPFvPvES0_:
 423              	.LFB5:
  12:src/syscall_cpp.cpp ****     this->body=body;
 424              		.loc 2 12 1 is_stmt 1
 425              		.cfi_startproc
 426              	.LVL27:
 427 016c 130101FF 		addi	sp,sp,-16
 428              		.cfi_def_cfa_offset 16
 429 0170 23348100 		sd	s0,8(sp)
 430              		.cfi_offset 8, -8
 431 0174 13040101 		addi	s0,sp,16
 432              		.cfi_def_cfa 8, 0
 433              	.LBB9:
  12:src/syscall_cpp.cpp ****     this->body=body;
 434              		.loc 2 12 45 is_stmt 0
 435 0178 97070000 		lla	a5,_ZTV6Thread+16
 435      93870700 
 436 0180 2330F500 		sd	a5,0(a0)
  13:src/syscall_cpp.cpp ****     this->arg=arg;
 437              		.loc 2 13 5 is_stmt 1
  13:src/syscall_cpp.cpp ****     this->arg=arg;
 438              		.loc 2 13 15 is_stmt 0
 439 0184 2338B500 		sd	a1,16(a0)
  14:src/syscall_cpp.cpp **** }
 440              		.loc 2 14 5 is_stmt 1
  14:src/syscall_cpp.cpp **** }
 441              		.loc 2 14 14 is_stmt 0
 442 0188 233CC500 		sd	a2,24(a0)
 443              	.LBE9:
GAS LISTING /tmp/cctram5e.s 			page 11


  15:src/syscall_cpp.cpp **** 
 444              		.loc 2 15 1
 445 018c 03348100 		ld	s0,8(sp)
 446              		.cfi_restore 8
 447              		.cfi_def_cfa 2, 16
 448 0190 13010101 		addi	sp,sp,16
 449              		.cfi_def_cfa_offset 0
 450 0194 67800000 		jr	ra
 451              		.cfi_endproc
 452              	.LFE5:
 454              		.globl	_ZN6ThreadC1EPFvPvES0_
 455              		.set	_ZN6ThreadC1EPFvPvES0_,_ZN6ThreadC2EPFvPvES0_
 456              		.align	2
 457              		.globl	_ZN6Thread5startEv
 459              	_ZN6Thread5startEv:
 460              	.LFB11:
  19:src/syscall_cpp.cpp ****     if(body==nullptr){
 461              		.loc 2 19 20 is_stmt 1
 462              		.cfi_startproc
 463              	.LVL28:
 464 0198 130101FF 		addi	sp,sp,-16
 465              		.cfi_def_cfa_offset 16
 466 019c 23341100 		sd	ra,8(sp)
 467 01a0 23308100 		sd	s0,0(sp)
 468              		.cfi_offset 1, -8
 469              		.cfi_offset 8, -16
 470 01a4 13040101 		addi	s0,sp,16
 471              		.cfi_def_cfa 8, 0
  20:src/syscall_cpp.cpp ****         return thread_create(&this->myHandle,threadWrapper,this);
 472              		.loc 2 20 5
  20:src/syscall_cpp.cpp ****         return thread_create(&this->myHandle,threadWrapper,this);
 473              		.loc 2 20 8 is_stmt 0
 474 01a8 83350501 		ld	a1,16(a0)
  20:src/syscall_cpp.cpp ****         return thread_create(&this->myHandle,threadWrapper,this);
 475              		.loc 2 20 5
 476 01ac 63820502 		beqz	a1,.L32
  24:src/syscall_cpp.cpp ****     }
 477              		.loc 2 24 9 is_stmt 1
  24:src/syscall_cpp.cpp ****     }
 478              		.loc 2 24 29 is_stmt 0
 479 01b0 03368501 		ld	a2,24(a0)
 480 01b4 13058500 		addi	a0,a0,8
 481              	.LVL29:
 482 01b8 97000000 		call	_Z13thread_createPP7_threadPFvPvES2_
 482      E7800000 
 483              	.LVL30:
 484              	.L30:
  26:src/syscall_cpp.cpp **** 
 485              		.loc 2 26 1
 486 01c0 83308100 		ld	ra,8(sp)
 487              		.cfi_remember_state
 488              		.cfi_restore 1
 489 01c4 03340100 		ld	s0,0(sp)
 490              		.cfi_restore 8
 491              		.cfi_def_cfa 2, 16
 492 01c8 13010101 		addi	sp,sp,16
 493              		.cfi_def_cfa_offset 0
GAS LISTING /tmp/cctram5e.s 			page 12


 494 01cc 67800000 		jr	ra
 495              	.LVL31:
 496              	.L32:
 497              		.cfi_restore_state
  21:src/syscall_cpp.cpp ****     }
 498              		.loc 2 21 9 is_stmt 1
  21:src/syscall_cpp.cpp ****     }
 499              		.loc 2 21 29 is_stmt 0
 500 01d0 13060500 		mv	a2,a0
 501 01d4 97050000 		lla	a1,_ZN6Thread13threadWrapperEPv
 501      93850500 
 502 01dc 13058500 		addi	a0,a0,8
 503              	.LVL32:
 504 01e0 97000000 		call	_Z13thread_createPP7_threadPFvPvES2_
 504      E7800000 
 505              	.LVL33:
  21:src/syscall_cpp.cpp ****     }
 506              		.loc 2 21 64
 507 01e8 6FF09FFD 		j	.L30
 508              		.cfi_endproc
 509              	.LFE11:
 511              		.align	2
 512              		.globl	_ZN6Thread8dispatchEv
 514              	_ZN6Thread8dispatchEv:
 515              	.LFB12:
  28:src/syscall_cpp.cpp ****     thread_dispatch();
 516              		.loc 2 28 24 is_stmt 1
 517              		.cfi_startproc
 518 01ec 130101FF 		addi	sp,sp,-16
 519              		.cfi_def_cfa_offset 16
 520 01f0 23341100 		sd	ra,8(sp)
 521 01f4 23308100 		sd	s0,0(sp)
 522              		.cfi_offset 1, -8
 523              		.cfi_offset 8, -16
 524 01f8 13040101 		addi	s0,sp,16
 525              		.cfi_def_cfa 8, 0
  29:src/syscall_cpp.cpp **** }
 526              		.loc 2 29 5
  29:src/syscall_cpp.cpp **** }
 527              		.loc 2 29 20 is_stmt 0
 528 01fc 97000000 		call	_Z15thread_dispatchv
 528      E7800000 
 529              	.LVL34:
  30:src/syscall_cpp.cpp **** 
 530              		.loc 2 30 1
 531 0204 83308100 		ld	ra,8(sp)
 532              		.cfi_restore 1
 533 0208 03340100 		ld	s0,0(sp)
 534              		.cfi_restore 8
 535              		.cfi_def_cfa 2, 16
 536 020c 13010101 		addi	sp,sp,16
 537              		.cfi_def_cfa_offset 0
 538 0210 67800000 		jr	ra
 539              		.cfi_endproc
 540              	.LFE12:
 542              		.align	2
 543              		.globl	_ZN6Thread5sleepEm
GAS LISTING /tmp/cctram5e.s 			page 13


 545              	_ZN6Thread5sleepEm:
 546              	.LFB13:
  32:src/syscall_cpp.cpp ****     return time_sleep(t);
 547              		.loc 2 32 28 is_stmt 1
 548              		.cfi_startproc
 549              	.LVL35:
 550 0214 130101FF 		addi	sp,sp,-16
 551              		.cfi_def_cfa_offset 16
 552 0218 23341100 		sd	ra,8(sp)
 553 021c 23308100 		sd	s0,0(sp)
 554              		.cfi_offset 1, -8
 555              		.cfi_offset 8, -16
 556 0220 13040101 		addi	s0,sp,16
 557              		.cfi_def_cfa 8, 0
  33:src/syscall_cpp.cpp **** }
 558              		.loc 2 33 5
  33:src/syscall_cpp.cpp **** }
 559              		.loc 2 33 22 is_stmt 0
 560 0224 97000000 		call	_Z10time_sleepm
 560      E7800000 
 561              	.LVL36:
  34:src/syscall_cpp.cpp **** 
 562              		.loc 2 34 1
 563 022c 83308100 		ld	ra,8(sp)
 564              		.cfi_restore 1
 565 0230 03340100 		ld	s0,0(sp)
 566              		.cfi_restore 8
 567              		.cfi_def_cfa 2, 16
 568 0234 13010101 		addi	sp,sp,16
 569              		.cfi_def_cfa_offset 0
 570 0238 67800000 		jr	ra
 571              		.cfi_endproc
 572              	.LFE13:
 574              		.align	2
 575              		.globl	_ZN6ThreadC2Ev
 577              	_ZN6ThreadC2Ev:
 578              	.LFB15:
  36:src/syscall_cpp.cpp ****     this->body=nullptr;
 579              		.loc 2 36 1 is_stmt 1
 580              		.cfi_startproc
 581              	.LVL37:
 582 023c 130101FF 		addi	sp,sp,-16
 583              		.cfi_def_cfa_offset 16
 584 0240 23348100 		sd	s0,8(sp)
 585              		.cfi_offset 8, -8
 586 0244 13040101 		addi	s0,sp,16
 587              		.cfi_def_cfa 8, 0
 588              	.LBB10:
  36:src/syscall_cpp.cpp ****     this->body=nullptr;
 589              		.loc 2 36 16 is_stmt 0
 590 0248 97070000 		lla	a5,_ZTV6Thread+16
 590      93870700 
 591 0250 2330F500 		sd	a5,0(a0)
  37:src/syscall_cpp.cpp ****     this->arg=nullptr;
 592              		.loc 2 37 5 is_stmt 1
  37:src/syscall_cpp.cpp ****     this->arg=nullptr;
 593              		.loc 2 37 15 is_stmt 0
GAS LISTING /tmp/cctram5e.s 			page 14


 594 0254 23380500 		sd	zero,16(a0)
  38:src/syscall_cpp.cpp **** }
 595              		.loc 2 38 5 is_stmt 1
  38:src/syscall_cpp.cpp **** }
 596              		.loc 2 38 14 is_stmt 0
 597 0258 233C0500 		sd	zero,24(a0)
 598              	.LBE10:
  39:src/syscall_cpp.cpp **** 
 599              		.loc 2 39 1
 600 025c 03348100 		ld	s0,8(sp)
 601              		.cfi_restore 8
 602              		.cfi_def_cfa 2, 16
 603 0260 13010101 		addi	sp,sp,16
 604              		.cfi_def_cfa_offset 0
 605 0264 67800000 		jr	ra
 606              		.cfi_endproc
 607              	.LFE15:
 609              		.globl	_ZN6ThreadC1Ev
 610              		.set	_ZN6ThreadC1Ev,_ZN6ThreadC2Ev
 611              		.align	2
 612              		.globl	_ZN9SemaphoreC2Ej
 614              	_ZN9SemaphoreC2Ej:
 615              	.LFB19:
  45:src/syscall_cpp.cpp ****     sem_open(&myHandle,init);
 616              		.loc 2 45 1 is_stmt 1
 617              		.cfi_startproc
 618              	.LVL38:
 619 0268 130101FF 		addi	sp,sp,-16
 620              		.cfi_def_cfa_offset 16
 621 026c 23341100 		sd	ra,8(sp)
 622 0270 23308100 		sd	s0,0(sp)
 623              		.cfi_offset 1, -8
 624              		.cfi_offset 8, -16
 625 0274 13040101 		addi	s0,sp,16
 626              		.cfi_def_cfa 8, 0
 627              	.LBB11:
  45:src/syscall_cpp.cpp ****     sem_open(&myHandle,init);
 628              		.loc 2 45 35 is_stmt 0
 629 0278 97070000 		lla	a5,_ZTV9Semaphore+16
 629      93870700 
 630 0280 2330F500 		sd	a5,0(a0)
  46:src/syscall_cpp.cpp **** }
 631              		.loc 2 46 5 is_stmt 1
  46:src/syscall_cpp.cpp **** }
 632              		.loc 2 46 13 is_stmt 0
 633 0284 13058500 		addi	a0,a0,8
 634              	.LVL39:
 635 0288 97000000 		call	_Z8sem_openPP4_semj
 635      E7800000 
 636              	.LVL40:
 637              	.LBE11:
  47:src/syscall_cpp.cpp **** 
 638              		.loc 2 47 1
 639 0290 83308100 		ld	ra,8(sp)
 640              		.cfi_restore 1
 641 0294 03340100 		ld	s0,0(sp)
 642              		.cfi_restore 8
GAS LISTING /tmp/cctram5e.s 			page 15


 643              		.cfi_def_cfa 2, 16
 644 0298 13010101 		addi	sp,sp,16
 645              		.cfi_def_cfa_offset 0
 646 029c 67800000 		jr	ra
 647              		.cfi_endproc
 648              	.LFE19:
 650              		.globl	_ZN9SemaphoreC1Ej
 651              		.set	_ZN9SemaphoreC1Ej,_ZN9SemaphoreC2Ej
 652              		.align	2
 653              		.globl	_ZN9Semaphore4waitEv
 655              	_ZN9Semaphore4waitEv:
 656              	.LFB21:
  49:src/syscall_cpp.cpp ****     return sem_wait(myHandle);
 657              		.loc 2 49 22 is_stmt 1
 658              		.cfi_startproc
 659              	.LVL41:
 660 02a0 130101FF 		addi	sp,sp,-16
 661              		.cfi_def_cfa_offset 16
 662 02a4 23341100 		sd	ra,8(sp)
 663 02a8 23308100 		sd	s0,0(sp)
 664              		.cfi_offset 1, -8
 665              		.cfi_offset 8, -16
 666 02ac 13040101 		addi	s0,sp,16
 667              		.cfi_def_cfa 8, 0
  50:src/syscall_cpp.cpp **** }
 668              		.loc 2 50 5
  50:src/syscall_cpp.cpp **** }
 669              		.loc 2 50 20 is_stmt 0
 670 02b0 03358500 		ld	a0,8(a0)
 671              	.LVL42:
 672 02b4 97000000 		call	_Z8sem_waitP4_sem
 672      E7800000 
 673              	.LVL43:
  51:src/syscall_cpp.cpp **** 
 674              		.loc 2 51 1
 675 02bc 83308100 		ld	ra,8(sp)
 676              		.cfi_restore 1
 677 02c0 03340100 		ld	s0,0(sp)
 678              		.cfi_restore 8
 679              		.cfi_def_cfa 2, 16
 680 02c4 13010101 		addi	sp,sp,16
 681              		.cfi_def_cfa_offset 0
 682 02c8 67800000 		jr	ra
 683              		.cfi_endproc
 684              	.LFE21:
 686              		.align	2
 687              		.globl	_ZN9Semaphore6signalEv
 689              	_ZN9Semaphore6signalEv:
 690              	.LFB22:
  53:src/syscall_cpp.cpp ****     return sem_signal(myHandle);
 691              		.loc 2 53 24 is_stmt 1
 692              		.cfi_startproc
 693              	.LVL44:
 694 02cc 130101FF 		addi	sp,sp,-16
 695              		.cfi_def_cfa_offset 16
 696 02d0 23341100 		sd	ra,8(sp)
 697 02d4 23308100 		sd	s0,0(sp)
GAS LISTING /tmp/cctram5e.s 			page 16


 698              		.cfi_offset 1, -8
 699              		.cfi_offset 8, -16
 700 02d8 13040101 		addi	s0,sp,16
 701              		.cfi_def_cfa 8, 0
  54:src/syscall_cpp.cpp **** }
 702              		.loc 2 54 5
  54:src/syscall_cpp.cpp **** }
 703              		.loc 2 54 22 is_stmt 0
 704 02dc 03358500 		ld	a0,8(a0)
 705              	.LVL45:
 706 02e0 97000000 		call	_Z10sem_signalP4_sem
 706      E7800000 
 707              	.LVL46:
  55:src/syscall_cpp.cpp **** 
 708              		.loc 2 55 1
 709 02e8 83308100 		ld	ra,8(sp)
 710              		.cfi_restore 1
 711 02ec 03340100 		ld	s0,0(sp)
 712              		.cfi_restore 8
 713              		.cfi_def_cfa 2, 16
 714 02f0 13010101 		addi	sp,sp,16
 715              		.cfi_def_cfa_offset 0
 716 02f4 67800000 		jr	ra
 717              		.cfi_endproc
 718              	.LFE22:
 720              		.align	2
 721              		.globl	_ZN14PeriodicThread9terminateEv
 723              	_ZN14PeriodicThread9terminateEv:
 724              	.LFB27:
  61:src/syscall_cpp.cpp ****     thread_exit();
 725              		.loc 2 61 33 is_stmt 1
 726              		.cfi_startproc
 727              	.LVL47:
 728 02f8 130101FF 		addi	sp,sp,-16
 729              		.cfi_def_cfa_offset 16
 730 02fc 23341100 		sd	ra,8(sp)
 731 0300 23308100 		sd	s0,0(sp)
 732              		.cfi_offset 1, -8
 733              		.cfi_offset 8, -16
 734 0304 13040101 		addi	s0,sp,16
 735              		.cfi_def_cfa 8, 0
  62:src/syscall_cpp.cpp **** }
 736              		.loc 2 62 5
  62:src/syscall_cpp.cpp **** }
 737              		.loc 2 62 16 is_stmt 0
 738 0308 97000000 		call	_Z11thread_exitv
 738      E7800000 
 739              	.LVL48:
  63:src/syscall_cpp.cpp **** 
 740              		.loc 2 63 1
 741 0310 83308100 		ld	ra,8(sp)
 742              		.cfi_restore 1
 743 0314 03340100 		ld	s0,0(sp)
 744              		.cfi_restore 8
 745              		.cfi_def_cfa 2, 16
 746 0318 13010101 		addi	sp,sp,16
 747              		.cfi_def_cfa_offset 0
GAS LISTING /tmp/cctram5e.s 			page 17


 748 031c 67800000 		jr	ra
 749              		.cfi_endproc
 750              	.LFE27:
 752              		.align	2
 753              		.globl	_ZN14PeriodicThreadC2Em
 755              	_ZN14PeriodicThreadC2Em:
 756              	.LFB29:
  65:src/syscall_cpp.cpp ****     this->period=period;
 757              		.loc 2 65 1 is_stmt 1
 758              		.cfi_startproc
 759              	.LVL49:
 760 0320 130101FE 		addi	sp,sp,-32
 761              		.cfi_def_cfa_offset 32
 762 0324 233C1100 		sd	ra,24(sp)
 763 0328 23388100 		sd	s0,16(sp)
 764 032c 23349100 		sd	s1,8(sp)
 765 0330 23302101 		sd	s2,0(sp)
 766              		.cfi_offset 1, -8
 767              		.cfi_offset 8, -16
 768              		.cfi_offset 9, -24
 769              		.cfi_offset 18, -32
 770 0334 13040102 		addi	s0,sp,32
 771              		.cfi_def_cfa 8, 0
 772 0338 93040500 		mv	s1,a0
 773 033c 13890500 		mv	s2,a1
 774              	.LBB12:
  65:src/syscall_cpp.cpp ****     this->period=period;
 775              		.loc 2 65 45 is_stmt 0
 776 0340 97000000 		call	_ZN6ThreadC2Ev
 776      E7800000 
 777              	.LVL50:
 778 0348 97070000 		lla	a5,_ZTV14PeriodicThread+16
 778      93870700 
 779 0350 23B0F400 		sd	a5,0(s1)
  66:src/syscall_cpp.cpp **** }
 780              		.loc 2 66 5 is_stmt 1
  66:src/syscall_cpp.cpp **** }
 781              		.loc 2 66 17 is_stmt 0
 782 0354 23B02403 		sd	s2,32(s1)
 783              	.LBE12:
  67:src/syscall_cpp.cpp **** 
 784              		.loc 2 67 1
 785 0358 83308101 		ld	ra,24(sp)
 786              		.cfi_restore 1
 787 035c 03340101 		ld	s0,16(sp)
 788              		.cfi_restore 8
 789              		.cfi_def_cfa 2, 32
 790 0360 83348100 		ld	s1,8(sp)
 791              		.cfi_restore 9
 792              	.LVL51:
 793 0364 03390100 		ld	s2,0(sp)
 794              		.cfi_restore 18
 795              	.LVL52:
 796 0368 13010102 		addi	sp,sp,32
 797              		.cfi_def_cfa_offset 0
 798 036c 67800000 		jr	ra
 799              		.cfi_endproc
GAS LISTING /tmp/cctram5e.s 			page 18


 800              	.LFE29:
 802              		.globl	_ZN14PeriodicThreadC1Em
 803              		.set	_ZN14PeriodicThreadC1Em,_ZN14PeriodicThreadC2Em
 804              		.align	2
 805              		.globl	_ZN7Console4getcEv
 807              	_ZN7Console4getcEv:
 808              	.LFB32:
  73:src/syscall_cpp.cpp ****     }
  74:src/syscall_cpp.cpp **** }
  75:src/syscall_cpp.cpp **** 
  76:src/syscall_cpp.cpp **** char Console::getc(){
 809              		.loc 2 76 21 is_stmt 1
 810              		.cfi_startproc
 811 0370 130101FF 		addi	sp,sp,-16
 812              		.cfi_def_cfa_offset 16
 813 0374 23341100 		sd	ra,8(sp)
 814 0378 23308100 		sd	s0,0(sp)
 815              		.cfi_offset 1, -8
 816              		.cfi_offset 8, -16
 817 037c 13040101 		addi	s0,sp,16
 818              		.cfi_def_cfa 8, 0
  77:src/syscall_cpp.cpp ****     return ::getc();
 819              		.loc 2 77 5
 820              		.loc 2 77 18 is_stmt 0
 821 0380 97000000 		call	_Z4getcv
 821      E7800000 
 822              	.LVL53:
  78:src/syscall_cpp.cpp **** }
 823              		.loc 2 78 1
 824 0388 83308100 		ld	ra,8(sp)
 825              		.cfi_restore 1
 826 038c 03340100 		ld	s0,0(sp)
 827              		.cfi_restore 8
 828              		.cfi_def_cfa 2, 16
 829 0390 13010101 		addi	sp,sp,16
 830              		.cfi_def_cfa_offset 0
 831 0394 67800000 		jr	ra
 832              		.cfi_endproc
 833              	.LFE32:
 835              		.align	2
 836              		.globl	_ZN7Console4putcEc
 838              	_ZN7Console4putcEc:
 839              	.LFB33:
  79:src/syscall_cpp.cpp **** 
  80:src/syscall_cpp.cpp **** void Console::putc(char c){
 840              		.loc 2 80 27 is_stmt 1
 841              		.cfi_startproc
 842              	.LVL54:
 843 0398 130101FF 		addi	sp,sp,-16
 844              		.cfi_def_cfa_offset 16
 845 039c 23341100 		sd	ra,8(sp)
 846 03a0 23308100 		sd	s0,0(sp)
 847              		.cfi_offset 1, -8
 848              		.cfi_offset 8, -16
 849 03a4 13040101 		addi	s0,sp,16
 850              		.cfi_def_cfa 8, 0
  81:src/syscall_cpp.cpp ****     ::putc(c);
GAS LISTING /tmp/cctram5e.s 			page 19


 851              		.loc 2 81 5
 852              		.loc 2 81 11 is_stmt 0
 853 03a8 97000000 		call	_Z4putcc
 853      E7800000 
 854              	.LVL55:
  82:src/syscall_cpp.cpp **** }
 855              		.loc 2 82 1
 856 03b0 83308100 		ld	ra,8(sp)
 857              		.cfi_restore 1
 858 03b4 03340100 		ld	s0,0(sp)
 859              		.cfi_restore 8
 860              		.cfi_def_cfa 2, 16
 861 03b8 13010101 		addi	sp,sp,16
 862              		.cfi_def_cfa_offset 0
 863 03bc 67800000 		jr	ra
 864              		.cfi_endproc
 865              	.LFE33:
 867              		.weak	_ZTV6Thread
 868              		.section	.rodata._ZTV6Thread,"aG",@progbits,_ZTV6Thread,comdat
 869              		.align	3
 872              	_ZTV6Thread:
 873 0000 00000000 		.dword	0
 873      00000000 
 874 0008 00000000 		.dword	0
 874      00000000 
 875 0010 00000000 		.dword	_ZN6ThreadD1Ev
 875      00000000 
 876 0018 00000000 		.dword	_ZN6ThreadD0Ev
 876      00000000 
 877 0020 00000000 		.dword	_ZN6Thread3runEv
 877      00000000 
 878              		.weak	_ZTV9Semaphore
 879              		.section	.rodata._ZTV9Semaphore,"aG",@progbits,_ZTV9Semaphore,comdat
 880              		.align	3
 883              	_ZTV9Semaphore:
 884 0000 00000000 		.dword	0
 884      00000000 
 885 0008 00000000 		.dword	0
 885      00000000 
 886 0010 00000000 		.dword	_ZN9SemaphoreD1Ev
 886      00000000 
 887 0018 00000000 		.dword	_ZN9SemaphoreD0Ev
 887      00000000 
 888              		.weak	_ZTV14PeriodicThread
 889              		.section	.rodata._ZTV14PeriodicThread,"aG",@progbits,_ZTV14PeriodicThread,comdat
 890              		.align	3
 893              	_ZTV14PeriodicThread:
 894 0000 00000000 		.dword	0
 894      00000000 
 895 0008 00000000 		.dword	0
 895      00000000 
 896 0010 00000000 		.dword	_ZN14PeriodicThreadD1Ev
 896      00000000 
 897 0018 00000000 		.dword	_ZN14PeriodicThreadD0Ev
 897      00000000 
 898 0020 00000000 		.dword	_ZN14PeriodicThread3runEv
 898      00000000 
GAS LISTING /tmp/cctram5e.s 			page 20


 899 0028 00000000 		.dword	_ZN14PeriodicThread18periodicActivationEv
 899      00000000 
 900              		.text
 901              	.Letext0:
 902              		.file 3 "src/../h/../lib/hw.h"
 903              		.file 4 "src/../h/syscall_c.hpp"
 3813              		.align	3
 3816              	DW.ref.__gxx_personality_v0:
 3817 0000 00000000 		.dword	__gxx_personality_v0
 3817      00000000 
 3818              		.ident	"GCC: () 9.3.0"
GAS LISTING /tmp/cctram5e.s 			page 21


DEFINED SYMBOLS
                            *ABS*:0000000000000000 syscall_cpp.cpp
     /tmp/cctram5e.s:13     .text._ZN6Thread3runEv:0000000000000000 _ZN6Thread3runEv
     /tmp/cctram5e.s:17     .text._ZN6Thread3runEv:0000000000000000 .L0 
     /tmp/cctram5e.s:19     .text._ZN6Thread3runEv:0000000000000000 .L0 
     /tmp/cctram5e.s:20     .text._ZN6Thread3runEv:0000000000000004 .L0 
     /tmp/cctram5e.s:22     .text._ZN6Thread3runEv:0000000000000008 .L0 
     /tmp/cctram5e.s:24     .text._ZN6Thread3runEv:000000000000000c .L0 
     /tmp/cctram5e.s:26     .text._ZN6Thread3runEv:000000000000000c .L0 
     /tmp/cctram5e.s:27     .text._ZN6Thread3runEv:0000000000000010 .L0 
     /tmp/cctram5e.s:28     .text._ZN6Thread3runEv:0000000000000010 .L0 
     /tmp/cctram5e.s:30     .text._ZN6Thread3runEv:0000000000000014 .L0 
     /tmp/cctram5e.s:32     .text._ZN6Thread3runEv:0000000000000018 .L0 
     /tmp/cctram5e.s:39     .text._ZN14PeriodicThread18periodicActivationEv:0000000000000000 _ZN14PeriodicThread18periodicActivationEv
     /tmp/cctram5e.s:42     .text._ZN14PeriodicThread18periodicActivationEv:0000000000000000 .L0 
     /tmp/cctram5e.s:44     .text._ZN14PeriodicThread18periodicActivationEv:0000000000000000 .L0 
     /tmp/cctram5e.s:45     .text._ZN14PeriodicThread18periodicActivationEv:0000000000000004 .L0 
     /tmp/cctram5e.s:47     .text._ZN14PeriodicThread18periodicActivationEv:0000000000000008 .L0 
     /tmp/cctram5e.s:49     .text._ZN14PeriodicThread18periodicActivationEv:000000000000000c .L0 
     /tmp/cctram5e.s:51     .text._ZN14PeriodicThread18periodicActivationEv:000000000000000c .L0 
     /tmp/cctram5e.s:52     .text._ZN14PeriodicThread18periodicActivationEv:0000000000000010 .L0 
     /tmp/cctram5e.s:53     .text._ZN14PeriodicThread18periodicActivationEv:0000000000000010 .L0 
     /tmp/cctram5e.s:55     .text._ZN14PeriodicThread18periodicActivationEv:0000000000000014 .L0 
     /tmp/cctram5e.s:57     .text._ZN14PeriodicThread18periodicActivationEv:0000000000000018 .L0 
     /tmp/cctram5e.s:64     .text:0000000000000000 _ZN6ThreadD2Ev
     /tmp/cctram5e.s:68     .text:0000000000000000 .L0 
     /tmp/cctram5e.s:70     .text:0000000000000000 .L0 
     /tmp/cctram5e.s:71     .text:0000000000000004 .L0 
     /tmp/cctram5e.s:73     .text:0000000000000008 .L0 
     /tmp/cctram5e.s:75     .text:000000000000000c .L0 
     /tmp/cctram5e.s:77     .text:000000000000000c .L0 
     /tmp/cctram5e.s:78     .text:0000000000000010 .L0 
     /tmp/cctram5e.s:79     .text:0000000000000010 .L0 
     /tmp/cctram5e.s:81     .text:0000000000000014 .L0 
     /tmp/cctram5e.s:83     .text:0000000000000018 .L0 
     /tmp/cctram5e.s:64     .text:0000000000000000 _ZN6ThreadD1Ev
     /tmp/cctram5e.s:91     .text:0000000000000018 _ZN6Thread13threadWrapperEPv
     /tmp/cctram5e.s:94     .text:0000000000000018 .L0 
     /tmp/cctram5e.s:96     .text:0000000000000018 .L0 
     /tmp/cctram5e.s:97     .text:000000000000001c .L0 
     /tmp/cctram5e.s:100    .text:0000000000000024 .L0 
     /tmp/cctram5e.s:101    .text:0000000000000024 .L0 
     /tmp/cctram5e.s:103    .text:0000000000000028 .L0 
     /tmp/cctram5e.s:105    .text:0000000000000028 .L0 
     /tmp/cctram5e.s:106    .text:0000000000000028 .L0 
     /tmp/cctram5e.s:109    .text:0000000000000030 .L0 
     /tmp/cctram5e.s:112    .text:0000000000000034 .L0 
     /tmp/cctram5e.s:113    .text:0000000000000038 .L0 
     /tmp/cctram5e.s:115    .text:000000000000003c .L0 
     /tmp/cctram5e.s:116    .text:000000000000003c .L0 
     /tmp/cctram5e.s:118    .text:0000000000000040 .L0 
     /tmp/cctram5e.s:120    .text:0000000000000044 .L0 
     /tmp/cctram5e.s:127    .text._ZN14PeriodicThreadD2Ev:0000000000000000 _ZN14PeriodicThreadD2Ev
     /tmp/cctram5e.s:130    .text._ZN14PeriodicThreadD2Ev:0000000000000000 .L0 
     /tmp/cctram5e.s:132    .text._ZN14PeriodicThreadD2Ev:0000000000000000 .L0 
     /tmp/cctram5e.s:133    .text._ZN14PeriodicThreadD2Ev:0000000000000004 .L0 
     /tmp/cctram5e.s:135    .text._ZN14PeriodicThreadD2Ev:0000000000000008 .L0 
GAS LISTING /tmp/cctram5e.s 			page 22


     /tmp/cctram5e.s:137    .text._ZN14PeriodicThreadD2Ev:000000000000000c .L0 
     /tmp/cctram5e.s:893    .rodata._ZTV14PeriodicThread:0000000000000000 _ZTV14PeriodicThread
     /tmp/cctram5e.s:140    .text._ZN14PeriodicThreadD2Ev:000000000000000c .L0 
     /tmp/cctram5e.s:144    .text._ZN14PeriodicThreadD2Ev:000000000000001c .L0 
     /tmp/cctram5e.s:145    .text._ZN14PeriodicThreadD2Ev:000000000000001c .L0 
     /tmp/cctram5e.s:147    .text._ZN14PeriodicThreadD2Ev:0000000000000020 .L0 
     /tmp/cctram5e.s:149    .text._ZN14PeriodicThreadD2Ev:0000000000000024 .L0 
     /tmp/cctram5e.s:127    .text._ZN14PeriodicThreadD2Ev:0000000000000000 _ZN14PeriodicThreadD1Ev
     /tmp/cctram5e.s:158    .text:0000000000000044 _ZN14PeriodicThread3runEv
     /tmp/cctram5e.s:161    .text:0000000000000044 .L0 
     /tmp/cctram5e.s:163    .text:0000000000000044 .L0 
     /tmp/cctram5e.s:164    .text:0000000000000048 .L0 
     /tmp/cctram5e.s:168    .text:0000000000000054 .L0 
     /tmp/cctram5e.s:169    .text:0000000000000054 .L0 
     /tmp/cctram5e.s:170    .text:0000000000000054 .L0 
     /tmp/cctram5e.s:172    .text:0000000000000058 .L0 
     /tmp/cctram5e.s:177    .text:000000000000005c .L0 
     /tmp/cctram5e.s:178    .text:000000000000005c .L0 
     /tmp/cctram5e.s:179    .text:000000000000005c .L0 
     /tmp/cctram5e.s:182    .text:0000000000000064 .L0 
     /tmp/cctram5e.s:186    .text:000000000000006c .L0 
     /tmp/cctram5e.s:187    .text:000000000000006c .L0 
     /tmp/cctram5e.s:191    .text:0000000000000078 .L0 
     /tmp/cctram5e.s:192    .text:000000000000007c .L0 
     /tmp/cctram5e.s:198    .text:000000000000007c _ZN9SemaphoreD2Ev
     /tmp/cctram5e.s:201    .text:000000000000007c .L0 
     /tmp/cctram5e.s:3816   .sdata.DW.ref.__gxx_personality_v0:0000000000000000 DW.ref.__gxx_personality_v0
     /tmp/cctram5e.s:205    .text:000000000000007c .L0 
     /tmp/cctram5e.s:206    .text:0000000000000080 .L0 
     /tmp/cctram5e.s:209    .text:0000000000000088 .L0 
     /tmp/cctram5e.s:210    .text:0000000000000088 .L0 
     /tmp/cctram5e.s:212    .text:000000000000008c .L0 
     /tmp/cctram5e.s:883    .rodata._ZTV9Semaphore:0000000000000000 _ZTV9Semaphore
     /tmp/cctram5e.s:215    .text:000000000000008c .L0 
     /tmp/cctram5e.s:218    .text:0000000000000098 .L0 
     /tmp/cctram5e.s:219    .text:0000000000000098 .L0 
     /tmp/cctram5e.s:225    .text:00000000000000a4 .L0 
     /tmp/cctram5e.s:226    .text:00000000000000a8 .L0 
     /tmp/cctram5e.s:228    .text:00000000000000ac .L0 
     /tmp/cctram5e.s:229    .text:00000000000000ac .L0 
     /tmp/cctram5e.s:231    .text:00000000000000b0 .L0 
     /tmp/cctram5e.s:233    .text:00000000000000b4 .L0 
     /tmp/cctram5e.s:198    .text:000000000000007c _ZN9SemaphoreD1Ev
     /tmp/cctram5e.s:249    .text:00000000000000b4 _Znwm
     /tmp/cctram5e.s:252    .text:00000000000000b4 .L0 
     /tmp/cctram5e.s:254    .text:00000000000000b4 .L0 
     /tmp/cctram5e.s:255    .text:00000000000000b8 .L0 
     /tmp/cctram5e.s:258    .text:00000000000000c0 .L0 
     /tmp/cctram5e.s:259    .text:00000000000000c0 .L0 
     /tmp/cctram5e.s:261    .text:00000000000000c4 .L0 
     /tmp/cctram5e.s:263    .text:00000000000000c4 .L0 
     /tmp/cctram5e.s:264    .text:00000000000000c4 .L0 
     /tmp/cctram5e.s:267    .text:00000000000000cc .L0 
     /tmp/cctram5e.s:268    .text:00000000000000d0 .L0 
     /tmp/cctram5e.s:270    .text:00000000000000d4 .L0 
     /tmp/cctram5e.s:271    .text:00000000000000d4 .L0 
     /tmp/cctram5e.s:273    .text:00000000000000d8 .L0 
GAS LISTING /tmp/cctram5e.s 			page 23


     /tmp/cctram5e.s:275    .text:00000000000000dc .L0 
     /tmp/cctram5e.s:281    .text:00000000000000dc _ZdlPv
     /tmp/cctram5e.s:284    .text:00000000000000dc .L0 
     /tmp/cctram5e.s:286    .text:00000000000000dc .L0 
     /tmp/cctram5e.s:287    .text:00000000000000e0 .L0 
     /tmp/cctram5e.s:290    .text:00000000000000e8 .L0 
     /tmp/cctram5e.s:291    .text:00000000000000e8 .L0 
     /tmp/cctram5e.s:293    .text:00000000000000ec .L0 
     /tmp/cctram5e.s:295    .text:00000000000000ec .L0 
     /tmp/cctram5e.s:296    .text:00000000000000ec .L0 
     /tmp/cctram5e.s:299    .text:00000000000000f4 .L0 
     /tmp/cctram5e.s:300    .text:00000000000000f8 .L0 
     /tmp/cctram5e.s:302    .text:00000000000000fc .L0 
     /tmp/cctram5e.s:303    .text:00000000000000fc .L0 
     /tmp/cctram5e.s:305    .text:0000000000000100 .L0 
     /tmp/cctram5e.s:307    .text:0000000000000104 .L0 
     /tmp/cctram5e.s:313    .text:0000000000000104 _ZN6ThreadD0Ev
     /tmp/cctram5e.s:316    .text:0000000000000104 .L0 
     /tmp/cctram5e.s:318    .text:0000000000000104 .L0 
     /tmp/cctram5e.s:319    .text:0000000000000108 .L0 
     /tmp/cctram5e.s:322    .text:0000000000000110 .L0 
     /tmp/cctram5e.s:323    .text:0000000000000110 .L0 
     /tmp/cctram5e.s:325    .text:0000000000000114 .L0 
     /tmp/cctram5e.s:327    .text:0000000000000114 .L0 
     /tmp/cctram5e.s:330    .text:0000000000000120 .L0 
     /tmp/cctram5e.s:332    .text:0000000000000124 .L0 
     /tmp/cctram5e.s:333    .text:0000000000000124 .L0 
     /tmp/cctram5e.s:335    .text:0000000000000128 .L0 
     /tmp/cctram5e.s:337    .text:000000000000012c .L0 
     /tmp/cctram5e.s:343    .text:000000000000012c _ZN9SemaphoreD0Ev
     /tmp/cctram5e.s:346    .text:000000000000012c .L0 
     /tmp/cctram5e.s:348    .text:000000000000012c .L0 
     /tmp/cctram5e.s:349    .text:0000000000000130 .L0 
     /tmp/cctram5e.s:353    .text:000000000000013c .L0 
     /tmp/cctram5e.s:354    .text:000000000000013c .L0 
     /tmp/cctram5e.s:355    .text:000000000000013c .L0 
     /tmp/cctram5e.s:357    .text:0000000000000140 .L0 
     /tmp/cctram5e.s:360    .text:0000000000000144 .L0 
     /tmp/cctram5e.s:366    .text:000000000000015c .L0 
     /tmp/cctram5e.s:368    .text:0000000000000160 .L0 
     /tmp/cctram5e.s:369    .text:0000000000000160 .L0 
     /tmp/cctram5e.s:371    .text:0000000000000164 .L0 
     /tmp/cctram5e.s:374    .text:0000000000000168 .L0 
     /tmp/cctram5e.s:376    .text:000000000000016c .L0 
     /tmp/cctram5e.s:383    .text._ZN14PeriodicThreadD0Ev:0000000000000000 _ZN14PeriodicThreadD0Ev
     /tmp/cctram5e.s:386    .text._ZN14PeriodicThreadD0Ev:0000000000000000 .L0 
     /tmp/cctram5e.s:388    .text._ZN14PeriodicThreadD0Ev:0000000000000000 .L0 
     /tmp/cctram5e.s:389    .text._ZN14PeriodicThreadD0Ev:0000000000000004 .L0 
     /tmp/cctram5e.s:392    .text._ZN14PeriodicThreadD0Ev:000000000000000c .L0 
     /tmp/cctram5e.s:393    .text._ZN14PeriodicThreadD0Ev:000000000000000c .L0 
     /tmp/cctram5e.s:395    .text._ZN14PeriodicThreadD0Ev:0000000000000010 .L0 
     /tmp/cctram5e.s:400    .text._ZN14PeriodicThreadD0Ev:0000000000000010 .L0 
     /tmp/cctram5e.s:408    .text._ZN14PeriodicThreadD0Ev:0000000000000028 .L0 
     /tmp/cctram5e.s:410    .text._ZN14PeriodicThreadD0Ev:000000000000002c .L0 
     /tmp/cctram5e.s:411    .text._ZN14PeriodicThreadD0Ev:000000000000002c .L0 
     /tmp/cctram5e.s:413    .text._ZN14PeriodicThreadD0Ev:0000000000000030 .L0 
     /tmp/cctram5e.s:415    .text._ZN14PeriodicThreadD0Ev:0000000000000034 .L0 
GAS LISTING /tmp/cctram5e.s 			page 24


     /tmp/cctram5e.s:422    .text:000000000000016c _ZN6ThreadC2EPFvPvES0_
     /tmp/cctram5e.s:425    .text:000000000000016c .L0 
     /tmp/cctram5e.s:427    .text:000000000000016c .L0 
     /tmp/cctram5e.s:428    .text:0000000000000170 .L0 
     /tmp/cctram5e.s:430    .text:0000000000000174 .L0 
     /tmp/cctram5e.s:432    .text:0000000000000178 .L0 
     /tmp/cctram5e.s:872    .rodata._ZTV6Thread:0000000000000000 _ZTV6Thread
     /tmp/cctram5e.s:435    .text:0000000000000178 .L0 
     /tmp/cctram5e.s:438    .text:0000000000000184 .L0 
     /tmp/cctram5e.s:439    .text:0000000000000184 .L0 
     /tmp/cctram5e.s:441    .text:0000000000000188 .L0 
     /tmp/cctram5e.s:442    .text:0000000000000188 .L0 
     /tmp/cctram5e.s:445    .text:000000000000018c .L0 
     /tmp/cctram5e.s:446    .text:0000000000000190 .L0 
     /tmp/cctram5e.s:447    .text:0000000000000190 .L0 
     /tmp/cctram5e.s:449    .text:0000000000000194 .L0 
     /tmp/cctram5e.s:451    .text:0000000000000198 .L0 
     /tmp/cctram5e.s:422    .text:000000000000016c _ZN6ThreadC1EPFvPvES0_
     /tmp/cctram5e.s:459    .text:0000000000000198 _ZN6Thread5startEv
     /tmp/cctram5e.s:462    .text:0000000000000198 .L0 
     /tmp/cctram5e.s:464    .text:0000000000000198 .L0 
     /tmp/cctram5e.s:465    .text:000000000000019c .L0 
     /tmp/cctram5e.s:468    .text:00000000000001a4 .L0 
     /tmp/cctram5e.s:469    .text:00000000000001a4 .L0 
     /tmp/cctram5e.s:471    .text:00000000000001a8 .L0 
     /tmp/cctram5e.s:473    .text:00000000000001a8 .L0 
     /tmp/cctram5e.s:474    .text:00000000000001a8 .L0 
     /tmp/cctram5e.s:476    .text:00000000000001ac .L0 
     /tmp/cctram5e.s:478    .text:00000000000001b0 .L0 
     /tmp/cctram5e.s:479    .text:00000000000001b0 .L0 
     /tmp/cctram5e.s:486    .text:00000000000001c0 .L0 
     /tmp/cctram5e.s:487    .text:00000000000001c4 .L0 
     /tmp/cctram5e.s:488    .text:00000000000001c4 .L0 
     /tmp/cctram5e.s:490    .text:00000000000001c8 .L0 
     /tmp/cctram5e.s:491    .text:00000000000001c8 .L0 
     /tmp/cctram5e.s:493    .text:00000000000001cc .L0 
     /tmp/cctram5e.s:497    .text:00000000000001d0 .L0 
     /tmp/cctram5e.s:499    .text:00000000000001d0 .L0 
     /tmp/cctram5e.s:500    .text:00000000000001d0 .L0 
     /tmp/cctram5e.s:507    .text:00000000000001e8 .L0 
     /tmp/cctram5e.s:508    .text:00000000000001ec .L0 
     /tmp/cctram5e.s:514    .text:00000000000001ec _ZN6Thread8dispatchEv
     /tmp/cctram5e.s:517    .text:00000000000001ec .L0 
     /tmp/cctram5e.s:518    .text:00000000000001ec .L0 
     /tmp/cctram5e.s:519    .text:00000000000001f0 .L0 
     /tmp/cctram5e.s:522    .text:00000000000001f8 .L0 
     /tmp/cctram5e.s:523    .text:00000000000001f8 .L0 
     /tmp/cctram5e.s:525    .text:00000000000001fc .L0 
     /tmp/cctram5e.s:527    .text:00000000000001fc .L0 
     /tmp/cctram5e.s:528    .text:00000000000001fc .L0 
     /tmp/cctram5e.s:531    .text:0000000000000204 .L0 
     /tmp/cctram5e.s:532    .text:0000000000000208 .L0 
     /tmp/cctram5e.s:534    .text:000000000000020c .L0 
     /tmp/cctram5e.s:535    .text:000000000000020c .L0 
     /tmp/cctram5e.s:537    .text:0000000000000210 .L0 
     /tmp/cctram5e.s:539    .text:0000000000000214 .L0 
     /tmp/cctram5e.s:545    .text:0000000000000214 _ZN6Thread5sleepEm
GAS LISTING /tmp/cctram5e.s 			page 25


     /tmp/cctram5e.s:548    .text:0000000000000214 .L0 
     /tmp/cctram5e.s:550    .text:0000000000000214 .L0 
     /tmp/cctram5e.s:551    .text:0000000000000218 .L0 
     /tmp/cctram5e.s:554    .text:0000000000000220 .L0 
     /tmp/cctram5e.s:555    .text:0000000000000220 .L0 
     /tmp/cctram5e.s:557    .text:0000000000000224 .L0 
     /tmp/cctram5e.s:559    .text:0000000000000224 .L0 
     /tmp/cctram5e.s:560    .text:0000000000000224 .L0 
     /tmp/cctram5e.s:563    .text:000000000000022c .L0 
     /tmp/cctram5e.s:564    .text:0000000000000230 .L0 
     /tmp/cctram5e.s:566    .text:0000000000000234 .L0 
     /tmp/cctram5e.s:567    .text:0000000000000234 .L0 
     /tmp/cctram5e.s:569    .text:0000000000000238 .L0 
     /tmp/cctram5e.s:571    .text:000000000000023c .L0 
     /tmp/cctram5e.s:577    .text:000000000000023c _ZN6ThreadC2Ev
     /tmp/cctram5e.s:580    .text:000000000000023c .L0 
     /tmp/cctram5e.s:582    .text:000000000000023c .L0 
     /tmp/cctram5e.s:583    .text:0000000000000240 .L0 
     /tmp/cctram5e.s:585    .text:0000000000000244 .L0 
     /tmp/cctram5e.s:587    .text:0000000000000248 .L0 
     /tmp/cctram5e.s:590    .text:0000000000000248 .L0 
     /tmp/cctram5e.s:593    .text:0000000000000254 .L0 
     /tmp/cctram5e.s:594    .text:0000000000000254 .L0 
     /tmp/cctram5e.s:596    .text:0000000000000258 .L0 
     /tmp/cctram5e.s:597    .text:0000000000000258 .L0 
     /tmp/cctram5e.s:600    .text:000000000000025c .L0 
     /tmp/cctram5e.s:601    .text:0000000000000260 .L0 
     /tmp/cctram5e.s:602    .text:0000000000000260 .L0 
     /tmp/cctram5e.s:604    .text:0000000000000264 .L0 
     /tmp/cctram5e.s:606    .text:0000000000000268 .L0 
     /tmp/cctram5e.s:577    .text:000000000000023c _ZN6ThreadC1Ev
     /tmp/cctram5e.s:614    .text:0000000000000268 _ZN9SemaphoreC2Ej
     /tmp/cctram5e.s:617    .text:0000000000000268 .L0 
     /tmp/cctram5e.s:619    .text:0000000000000268 .L0 
     /tmp/cctram5e.s:620    .text:000000000000026c .L0 
     /tmp/cctram5e.s:623    .text:0000000000000274 .L0 
     /tmp/cctram5e.s:624    .text:0000000000000274 .L0 
     /tmp/cctram5e.s:626    .text:0000000000000278 .L0 
     /tmp/cctram5e.s:629    .text:0000000000000278 .L0 
     /tmp/cctram5e.s:632    .text:0000000000000284 .L0 
     /tmp/cctram5e.s:633    .text:0000000000000284 .L0 
     /tmp/cctram5e.s:639    .text:0000000000000290 .L0 
     /tmp/cctram5e.s:640    .text:0000000000000294 .L0 
     /tmp/cctram5e.s:642    .text:0000000000000298 .L0 
     /tmp/cctram5e.s:643    .text:0000000000000298 .L0 
     /tmp/cctram5e.s:645    .text:000000000000029c .L0 
     /tmp/cctram5e.s:647    .text:00000000000002a0 .L0 
     /tmp/cctram5e.s:614    .text:0000000000000268 _ZN9SemaphoreC1Ej
     /tmp/cctram5e.s:655    .text:00000000000002a0 _ZN9Semaphore4waitEv
     /tmp/cctram5e.s:658    .text:00000000000002a0 .L0 
     /tmp/cctram5e.s:660    .text:00000000000002a0 .L0 
     /tmp/cctram5e.s:661    .text:00000000000002a4 .L0 
     /tmp/cctram5e.s:664    .text:00000000000002ac .L0 
     /tmp/cctram5e.s:665    .text:00000000000002ac .L0 
     /tmp/cctram5e.s:667    .text:00000000000002b0 .L0 
     /tmp/cctram5e.s:669    .text:00000000000002b0 .L0 
     /tmp/cctram5e.s:670    .text:00000000000002b0 .L0 
GAS LISTING /tmp/cctram5e.s 			page 26


     /tmp/cctram5e.s:675    .text:00000000000002bc .L0 
     /tmp/cctram5e.s:676    .text:00000000000002c0 .L0 
     /tmp/cctram5e.s:678    .text:00000000000002c4 .L0 
     /tmp/cctram5e.s:679    .text:00000000000002c4 .L0 
     /tmp/cctram5e.s:681    .text:00000000000002c8 .L0 
     /tmp/cctram5e.s:683    .text:00000000000002cc .L0 
     /tmp/cctram5e.s:689    .text:00000000000002cc _ZN9Semaphore6signalEv
     /tmp/cctram5e.s:692    .text:00000000000002cc .L0 
     /tmp/cctram5e.s:694    .text:00000000000002cc .L0 
     /tmp/cctram5e.s:695    .text:00000000000002d0 .L0 
     /tmp/cctram5e.s:698    .text:00000000000002d8 .L0 
     /tmp/cctram5e.s:699    .text:00000000000002d8 .L0 
     /tmp/cctram5e.s:701    .text:00000000000002dc .L0 
     /tmp/cctram5e.s:703    .text:00000000000002dc .L0 
     /tmp/cctram5e.s:704    .text:00000000000002dc .L0 
     /tmp/cctram5e.s:709    .text:00000000000002e8 .L0 
     /tmp/cctram5e.s:710    .text:00000000000002ec .L0 
     /tmp/cctram5e.s:712    .text:00000000000002f0 .L0 
     /tmp/cctram5e.s:713    .text:00000000000002f0 .L0 
     /tmp/cctram5e.s:715    .text:00000000000002f4 .L0 
     /tmp/cctram5e.s:717    .text:00000000000002f8 .L0 
     /tmp/cctram5e.s:723    .text:00000000000002f8 _ZN14PeriodicThread9terminateEv
     /tmp/cctram5e.s:726    .text:00000000000002f8 .L0 
     /tmp/cctram5e.s:728    .text:00000000000002f8 .L0 
     /tmp/cctram5e.s:729    .text:00000000000002fc .L0 
     /tmp/cctram5e.s:732    .text:0000000000000304 .L0 
     /tmp/cctram5e.s:733    .text:0000000000000304 .L0 
     /tmp/cctram5e.s:735    .text:0000000000000308 .L0 
     /tmp/cctram5e.s:737    .text:0000000000000308 .L0 
     /tmp/cctram5e.s:738    .text:0000000000000308 .L0 
     /tmp/cctram5e.s:741    .text:0000000000000310 .L0 
     /tmp/cctram5e.s:742    .text:0000000000000314 .L0 
     /tmp/cctram5e.s:744    .text:0000000000000318 .L0 
     /tmp/cctram5e.s:745    .text:0000000000000318 .L0 
     /tmp/cctram5e.s:747    .text:000000000000031c .L0 
     /tmp/cctram5e.s:749    .text:0000000000000320 .L0 
     /tmp/cctram5e.s:755    .text:0000000000000320 _ZN14PeriodicThreadC2Em
     /tmp/cctram5e.s:758    .text:0000000000000320 .L0 
     /tmp/cctram5e.s:760    .text:0000000000000320 .L0 
     /tmp/cctram5e.s:761    .text:0000000000000324 .L0 
     /tmp/cctram5e.s:766    .text:0000000000000334 .L0 
     /tmp/cctram5e.s:767    .text:0000000000000334 .L0 
     /tmp/cctram5e.s:768    .text:0000000000000334 .L0 
     /tmp/cctram5e.s:769    .text:0000000000000334 .L0 
     /tmp/cctram5e.s:771    .text:0000000000000338 .L0 
     /tmp/cctram5e.s:776    .text:0000000000000340 .L0 
     /tmp/cctram5e.s:781    .text:0000000000000354 .L0 
     /tmp/cctram5e.s:782    .text:0000000000000354 .L0 
     /tmp/cctram5e.s:785    .text:0000000000000358 .L0 
     /tmp/cctram5e.s:786    .text:000000000000035c .L0 
     /tmp/cctram5e.s:788    .text:0000000000000360 .L0 
     /tmp/cctram5e.s:789    .text:0000000000000360 .L0 
     /tmp/cctram5e.s:791    .text:0000000000000364 .L0 
     /tmp/cctram5e.s:794    .text:0000000000000368 .L0 
     /tmp/cctram5e.s:797    .text:000000000000036c .L0 
     /tmp/cctram5e.s:799    .text:0000000000000370 .L0 
     /tmp/cctram5e.s:755    .text:0000000000000320 _ZN14PeriodicThreadC1Em
GAS LISTING /tmp/cctram5e.s 			page 27


     /tmp/cctram5e.s:807    .text:0000000000000370 _ZN7Console4getcEv
     /tmp/cctram5e.s:810    .text:0000000000000370 .L0 
     /tmp/cctram5e.s:811    .text:0000000000000370 .L0 
     /tmp/cctram5e.s:812    .text:0000000000000374 .L0 
     /tmp/cctram5e.s:815    .text:000000000000037c .L0 
     /tmp/cctram5e.s:816    .text:000000000000037c .L0 
     /tmp/cctram5e.s:818    .text:0000000000000380 .L0 
     /tmp/cctram5e.s:820    .text:0000000000000380 .L0 
     /tmp/cctram5e.s:821    .text:0000000000000380 .L0 
     /tmp/cctram5e.s:824    .text:0000000000000388 .L0 
     /tmp/cctram5e.s:825    .text:000000000000038c .L0 
     /tmp/cctram5e.s:827    .text:0000000000000390 .L0 
     /tmp/cctram5e.s:828    .text:0000000000000390 .L0 
     /tmp/cctram5e.s:830    .text:0000000000000394 .L0 
     /tmp/cctram5e.s:832    .text:0000000000000398 .L0 
     /tmp/cctram5e.s:838    .text:0000000000000398 _ZN7Console4putcEc
     /tmp/cctram5e.s:841    .text:0000000000000398 .L0 
     /tmp/cctram5e.s:843    .text:0000000000000398 .L0 
     /tmp/cctram5e.s:844    .text:000000000000039c .L0 
     /tmp/cctram5e.s:847    .text:00000000000003a4 .L0 
     /tmp/cctram5e.s:848    .text:00000000000003a4 .L0 
     /tmp/cctram5e.s:850    .text:00000000000003a8 .L0 
     /tmp/cctram5e.s:852    .text:00000000000003a8 .L0 
     /tmp/cctram5e.s:853    .text:00000000000003a8 .L0 
     /tmp/cctram5e.s:856    .text:00000000000003b0 .L0 
     /tmp/cctram5e.s:857    .text:00000000000003b4 .L0 
     /tmp/cctram5e.s:859    .text:00000000000003b8 .L0 
     /tmp/cctram5e.s:860    .text:00000000000003b8 .L0 
     /tmp/cctram5e.s:862    .text:00000000000003bc .L0 
     /tmp/cctram5e.s:864    .text:00000000000003c0 .L0 
     /tmp/cctram5e.s:35     .text._ZN6Thread3runEv:0000000000000018 .L0 
     /tmp/cctram5e.s:60     .text._ZN14PeriodicThread18periodicActivationEv:0000000000000018 .L0 
     /tmp/cctram5e.s:904    .text:00000000000003c0 .L0 
     /tmp/cctram5e.s:154    .text._ZN14PeriodicThreadD2Ev:0000000000000024 .L0 
     /tmp/cctram5e.s:418    .text._ZN14PeriodicThreadD0Ev:0000000000000034 .L0 
     /tmp/cctram5e.s:215    .text:000000000000008c .L0 
     /tmp/cctram5e.s:435    .text:0000000000000178 .L0 
     /tmp/cctram5e.s:501    .text:00000000000001d4 .L0 
     /tmp/cctram5e.s:590    .text:0000000000000248 .L0 
     /tmp/cctram5e.s:629    .text:0000000000000278 .L0 
     /tmp/cctram5e.s:778    .text:0000000000000348 .L0 
     /tmp/cctram5e.s:175    .text:000000000000005c .L12
     /tmp/cctram5e.s:496    .text:00000000000001d0 .L32
     /tmp/cctram5e.s:484    .text:00000000000001c0 .L30
     /tmp/cctram5e.s:140    .text._ZN14PeriodicThreadD2Ev:000000000000000c .L0 
     /tmp/cctram5e.s:400    .text._ZN14PeriodicThreadD0Ev:0000000000000010 .L0 
     /tmp/cctram5e.s:2216   .debug_abbrev:0000000000000000 .Ldebug_abbrev0
     /tmp/cctram5e.s:3604   .debug_str:0000000000000091 .LASF100
     /tmp/cctram5e.s:3754   .debug_str:000000000000059b .LASF101
     /tmp/cctram5e.s:3636   .debug_str:0000000000000246 .LASF102
     /tmp/cctram5e.s:3568   .debug_ranges:0000000000000000 .Ldebug_ranges0
     /tmp/cctram5e.s:3582   .debug_line:0000000000000000 .Ldebug_line0
     /tmp/cctram5e.s:3712   .debug_str:0000000000000465 .LASF0
     /tmp/cctram5e.s:3722   .debug_str:00000000000004a8 .LASF1
     /tmp/cctram5e.s:3702   .debug_str:0000000000000418 .LASF2
     /tmp/cctram5e.s:3678   .debug_str:000000000000036a .LASF4
     /tmp/cctram5e.s:3762   .debug_str:00000000000005d9 .LASF3
GAS LISTING /tmp/cctram5e.s 			page 28


     /tmp/cctram5e.s:3606   .debug_str:0000000000000155 .LASF5
     /tmp/cctram5e.s:3634   .debug_str:000000000000023f .LASF6
     /tmp/cctram5e.s:3728   .debug_str:00000000000004df .LASF7
     /tmp/cctram5e.s:3710   .debug_str:0000000000000452 .LASF8
     /tmp/cctram5e.s:3784   .debug_str:0000000000000684 .LASF9
     /tmp/cctram5e.s:3662   .debug_str:00000000000002fe .LASF10
     /tmp/cctram5e.s:3738   .debug_str:0000000000000520 .LASF11
     /tmp/cctram5e.s:3774   .debug_str:0000000000000639 .LASF12
     /tmp/cctram5e.s:3608   .debug_str:000000000000015c .LASF13
     /tmp/cctram5e.s:3588   .debug_str:0000000000000013 .LASF14
     /tmp/cctram5e.s:3620   .debug_str:00000000000001ba .LASF15
     /tmp/cctram5e.s:3758   .debug_str:00000000000005ba .LASF16
     /tmp/cctram5e.s:3630   .debug_str:000000000000021b .LASF17
     /tmp/cctram5e.s:3584   .debug_str:0000000000000000 .LASF18
     /tmp/cctram5e.s:3674   .debug_str:000000000000035d .LASF20
     /tmp/cctram5e.s:3642   .debug_str:0000000000000278 .LASF19
     /tmp/cctram5e.s:3676   .debug_str:0000000000000365 .LASF21
     /tmp/cctram5e.s:3672   .debug_str:0000000000000355 .LASF103
     /tmp/cctram5e.s:3590   .debug_str:0000000000000023 .LASF79
     /tmp/cctram5e.s:3616   .debug_str:0000000000000195 .LASF104
     /tmp/cctram5e.s:3704   .debug_str:0000000000000426 .LASF23
     /tmp/cctram5e.s:3724   .debug_str:00000000000004bb .LASF39
     /tmp/cctram5e.s:3730   .debug_str:00000000000004f2 .LASF22
     /tmp/cctram5e.s:3734   .debug_str:00000000000004fe .LASF24
     /tmp/cctram5e.s:3594   .debug_str:0000000000000037 .LASF25
     /tmp/cctram5e.s:3794   .debug_str:00000000000006ce .LASF26
     /tmp/cctram5e.s:3598   .debug_str:000000000000005d .LASF27
     /tmp/cctram5e.s:3770   .debug_str:000000000000060a .LASF28
     /tmp/cctram5e.s:3602   .debug_str:0000000000000079 .LASF29
     /tmp/cctram5e.s:3684   .debug_str:0000000000000390 .LASF37
     /tmp/cctram5e.s:3624   .debug_str:00000000000001cf .LASF105
     /tmp/cctram5e.s:3666   .debug_str:000000000000031f .LASF106
     /tmp/cctram5e.s:3680   .debug_str:0000000000000371 .LASF41
     /tmp/cctram5e.s:3800   .debug_str:000000000000070e .LASF107
     /tmp/cctram5e.s:3682   .debug_str:0000000000000378 .LASF108
     /tmp/cctram5e.s:3780   .debug_str:0000000000000672 .LASF30
     /tmp/cctram5e.s:3706   .debug_str:000000000000042b .LASF31
     /tmp/cctram5e.s:3700   .debug_str:000000000000040b .LASF46
     /tmp/cctram5e.s:3742   .debug_str:0000000000000539 .LASF32
     /tmp/cctram5e.s:3688   .debug_str:00000000000003ad .LASF33
     /tmp/cctram5e.s:3718   .debug_str:0000000000000493 .LASF50
     /tmp/cctram5e.s:3720   .debug_str:00000000000004a2 .LASF52
     /tmp/cctram5e.s:3660   .debug_str:00000000000002eb .LASF54
     /tmp/cctram5e.s:3714   .debug_str:0000000000000472 .LASF109
     /tmp/cctram5e.s:3654   .debug_str:00000000000002b8 .LASF110
     /tmp/cctram5e.s:3806   .debug_str:000000000000074c .LASF34
     /tmp/cctram5e.s:3664   .debug_str:000000000000030c .LASF35
     /tmp/cctram5e.s:3748   .debug_str:000000000000056a .LASF36
     /tmp/cctram5e.s:3648   .debug_str:000000000000028c .LASF111
     /tmp/cctram5e.s:3698   .debug_str:00000000000003fd .LASF38
     /tmp/cctram5e.s:3690   .debug_str:00000000000003b5 .LASF40
     /tmp/cctram5e.s:3802   .debug_str:000000000000071e .LASF42
     /tmp/cctram5e.s:3612   .debug_str:000000000000017e .LASF43
     /tmp/cctram5e.s:3586   .debug_str:0000000000000009 .LASF44
     /tmp/cctram5e.s:3692   .debug_str:00000000000003d2 .LASF45
     /tmp/cctram5e.s:3640   .debug_str:0000000000000268 .LASF47
     /tmp/cctram5e.s:3778   .debug_str:0000000000000660 .LASF48
GAS LISTING /tmp/cctram5e.s 			page 29


     /tmp/cctram5e.s:3752   .debug_str:0000000000000590 .LASF49
     /tmp/cctram5e.s:3618   .debug_str:00000000000001a8 .LASF51
     /tmp/cctram5e.s:3646   .debug_str:0000000000000287 .LASF53
     /tmp/cctram5e.s:3798   .debug_str:00000000000006f9 .LASF55
     /tmp/cctram5e.s:3732   .debug_str:00000000000004f7 .LASF56
     /tmp/cctram5e.s:3750   .debug_str:0000000000000579 .LASF57
     /tmp/cctram5e.s:3786   .debug_str:0000000000000694 .LASF112
     /tmp/cctram5e.s:3746   .debug_str:0000000000000565 .LASF58
     /tmp/cctram5e.s:3740   .debug_str:000000000000052f .LASF59
     /tmp/cctram5e.s:3776   .debug_str:0000000000000648 .LASF60
     /tmp/cctram5e.s:384    .text._ZN14PeriodicThreadD0Ev:0000000000000000 .LFB37
     /tmp/cctram5e.s:416    .text._ZN14PeriodicThreadD0Ev:0000000000000034 .LFE37
     /tmp/cctram5e.s:3251   .debug_loc:0000000000000000 .LLST7
     /tmp/cctram5e.s:397    .text._ZN14PeriodicThreadD0Ev:0000000000000010 .LBB7
     /tmp/cctram5e.s:404    .text._ZN14PeriodicThreadD0Ev:000000000000001c .LBE7
     /tmp/cctram5e.s:3265   .debug_loc:0000000000000039 .LLST8
     /tmp/cctram5e.s:406    .text._ZN14PeriodicThreadD0Ev:0000000000000024 .LVL26
     /tmp/cctram5e.s:3716   .debug_str:000000000000047b .LASF61
     /tmp/cctram5e.s:128    .text._ZN14PeriodicThreadD2Ev:0000000000000000 .LFB35
     /tmp/cctram5e.s:150    .text._ZN14PeriodicThreadD2Ev:0000000000000024 .LFE35
     /tmp/cctram5e.s:839    .text:0000000000000398 .LFB33
     /tmp/cctram5e.s:865    .text:00000000000003c0 .LFE33
     /tmp/cctram5e.s:3272   .debug_loc:000000000000005c .LLST18
     /tmp/cctram5e.s:854    .text:00000000000003b0 .LVL55
     /tmp/cctram5e.s:808    .text:0000000000000370 .LFB32
     /tmp/cctram5e.s:833    .text:0000000000000398 .LFE32
     /tmp/cctram5e.s:822    .text:0000000000000388 .LVL53
     /tmp/cctram5e.s:159    .text:0000000000000044 .LFB31
     /tmp/cctram5e.s:193    .text:000000000000007c .LFE31
     /tmp/cctram5e.s:3286   .debug_loc:0000000000000095 .LLST1
     /tmp/cctram5e.s:184    .text:000000000000006c .LVL8
     /tmp/cctram5e.s:189    .text:0000000000000078 .LVL9
     /tmp/cctram5e.s:3656   .debug_str:00000000000002ce .LASF62
     /tmp/cctram5e.s:756    .text:0000000000000320 .LFB29
     /tmp/cctram5e.s:800    .text:0000000000000370 .LFE29
     /tmp/cctram5e.s:3297   .debug_loc:00000000000000cb .LLST16
     /tmp/cctram5e.s:3315   .debug_loc:0000000000000117 .LLST17
     /tmp/cctram5e.s:777    .text:0000000000000348 .LVL50
     /tmp/cctram5e.s:724    .text:00000000000002f8 .LFB27
     /tmp/cctram5e.s:750    .text:0000000000000320 .LFE27
     /tmp/cctram5e.s:3334   .debug_loc:0000000000000164 .LLST15
     /tmp/cctram5e.s:739    .text:0000000000000310 .LVL48
     /tmp/cctram5e.s:3652   .debug_str:00000000000002a6 .LASF63
     /tmp/cctram5e.s:344    .text:000000000000012c .LFB26
     /tmp/cctram5e.s:377    .text:000000000000016c .LFE26
     /tmp/cctram5e.s:3348   .debug_loc:000000000000019d .LLST6
     /tmp/cctram5e.s:361    .text:000000000000014c .LVL20
     /tmp/cctram5e.s:364    .text:0000000000000158 .LVL21
     /tmp/cctram5e.s:3610   .debug_str:000000000000016c .LASF64
     /tmp/cctram5e.s:199    .text:000000000000007c .LFB24
     /tmp/cctram5e.s:234    .text:00000000000000b4 .LFE24
     /tmp/cctram5e.s:3366   .debug_loc:00000000000001e9 .LLST2
     /tmp/cctram5e.s:222    .text:00000000000000a4 .LVL12
     /tmp/cctram5e.s:690    .text:00000000000002cc .LFB22
     /tmp/cctram5e.s:718    .text:00000000000002f8 .LFE22
     /tmp/cctram5e.s:3380   .debug_loc:0000000000000222 .LLST14
     /tmp/cctram5e.s:707    .text:00000000000002e8 .LVL46
GAS LISTING /tmp/cctram5e.s 			page 30


     /tmp/cctram5e.s:656    .text:00000000000002a0 .LFB21
     /tmp/cctram5e.s:684    .text:00000000000002cc .LFE21
     /tmp/cctram5e.s:3394   .debug_loc:000000000000025b .LLST13
     /tmp/cctram5e.s:673    .text:00000000000002bc .LVL43
     /tmp/cctram5e.s:3668   .debug_str:0000000000000339 .LASF65
     /tmp/cctram5e.s:3600   .debug_str:0000000000000067 .LASF66
     /tmp/cctram5e.s:615    .text:0000000000000268 .LFB19
     /tmp/cctram5e.s:648    .text:00000000000002a0 .LFE19
     /tmp/cctram5e.s:3408   .debug_loc:0000000000000294 .LLST11
     /tmp/cctram5e.s:3428   .debug_loc:00000000000002e2 .LLST12
     /tmp/cctram5e.s:636    .text:0000000000000290 .LVL40
     /tmp/cctram5e.s:92     .text:0000000000000018 .LFB17
     /tmp/cctram5e.s:121    .text:0000000000000044 .LFE17
     /tmp/cctram5e.s:3442   .debug_loc:000000000000031b .LLST0
     /tmp/cctram5e.s:110    .text:0000000000000034 .LVL4
     /tmp/cctram5e.s:3788   .debug_str:00000000000006a4 .LASF67
     /tmp/cctram5e.s:578    .text:000000000000023c .LFB15
     /tmp/cctram5e.s:607    .text:0000000000000268 .LFE15
     /tmp/cctram5e.s:546    .text:0000000000000214 .LFB13
     /tmp/cctram5e.s:572    .text:000000000000023c .LFE13
     /tmp/cctram5e.s:3456   .debug_loc:0000000000000354 .LLST10
     /tmp/cctram5e.s:561    .text:000000000000022c .LVL36
     /tmp/cctram5e.s:515    .text:00000000000001ec .LFB12
     /tmp/cctram5e.s:540    .text:0000000000000214 .LFE12
     /tmp/cctram5e.s:529    .text:0000000000000204 .LVL34
     /tmp/cctram5e.s:460    .text:0000000000000198 .LFB11
     /tmp/cctram5e.s:509    .text:00000000000001ec .LFE11
     /tmp/cctram5e.s:3470   .debug_loc:000000000000038d .LLST9
     /tmp/cctram5e.s:483    .text:00000000000001c0 .LVL30
     /tmp/cctram5e.s:505    .text:00000000000001e8 .LVL33
     /tmp/cctram5e.s:3592   .debug_str:0000000000000028 .LASF68
     /tmp/cctram5e.s:314    .text:0000000000000104 .LFB10
     /tmp/cctram5e.s:338    .text:000000000000012c .LFE10
     /tmp/cctram5e.s:3505   .debug_loc:0000000000000417 .LLST5
     /tmp/cctram5e.s:328    .text:000000000000011c .LVL18
     /tmp/cctram5e.s:3772   .debug_str:000000000000062a .LASF69
     /tmp/cctram5e.s:65     .text:0000000000000000 .LFB8
     /tmp/cctram5e.s:84     .text:0000000000000018 .LFE8
     /tmp/cctram5e.s:3670   .debug_str:000000000000033e .LASF70
     /tmp/cctram5e.s:423    .text:000000000000016c .LFB5
     /tmp/cctram5e.s:452    .text:0000000000000198 .LFE5
     /tmp/cctram5e.s:3766   .debug_str:00000000000005f5 .LASF71
     /tmp/cctram5e.s:3808   .debug_str:0000000000000752 .LASF72
     /tmp/cctram5e.s:282    .text:00000000000000dc .LFB3
     /tmp/cctram5e.s:308    .text:0000000000000104 .LFE3
     /tmp/cctram5e.s:3658   .debug_str:00000000000002e6 .LASF73
     /tmp/cctram5e.s:3519   .debug_loc:0000000000000450 .LLST4
     /tmp/cctram5e.s:297    .text:00000000000000f4 .LVL16
     /tmp/cctram5e.s:3790   .debug_str:00000000000006b3 .LASF74
     /tmp/cctram5e.s:3696   .debug_str:00000000000003f7 .LASF75
     /tmp/cctram5e.s:250    .text:00000000000000b4 .LFB2
     /tmp/cctram5e.s:276    .text:00000000000000dc .LFE2
     /tmp/cctram5e.s:3768   .debug_str:0000000000000605 .LASF76
     /tmp/cctram5e.s:3533   .debug_loc:0000000000000489 .LLST3
     /tmp/cctram5e.s:265    .text:00000000000000cc .LVL14
     /tmp/cctram5e.s:40     .text._ZN14PeriodicThread18periodicActivationEv:0000000000000000 .LFB1
     /tmp/cctram5e.s:58     .text._ZN14PeriodicThread18periodicActivationEv:0000000000000018 .LFE1
GAS LISTING /tmp/cctram5e.s 			page 31


     /tmp/cctram5e.s:14     .text._ZN6Thread3runEv:0000000000000000 .LFB0
     /tmp/cctram5e.s:33     .text._ZN6Thread3runEv:0000000000000018 .LFE0
     /tmp/cctram5e.s:3650   .debug_str:000000000000029d .LASF77
     /tmp/cctram5e.s:3760   .debug_str:00000000000005d0 .LASF78
     /tmp/cctram5e.s:3796   .debug_str:00000000000006e9 .LASF80
     /tmp/cctram5e.s:3756   .debug_str:00000000000005af .LASF81
     /tmp/cctram5e.s:3726   .debug_str:00000000000004ce .LASF82
     /tmp/cctram5e.s:3596   .debug_str:0000000000000051 .LASF83
     /tmp/cctram5e.s:3736   .debug_str:000000000000050d .LASF84
     /tmp/cctram5e.s:3686   .debug_str:00000000000003a3 .LASF85
     /tmp/cctram5e.s:3708   .debug_str:000000000000043d .LASF86
     /tmp/cctram5e.s:3782   .debug_str:0000000000000679 .LASF87
     /tmp/cctram5e.s:3614   .debug_str:0000000000000183 .LASF88
     /tmp/cctram5e.s:3622   .debug_str:00000000000001c6 .LASF89
     /tmp/cctram5e.s:3628   .debug_str:0000000000000207 .LASF90
     /tmp/cctram5e.s:3644   .debug_str:000000000000027e .LASF91
     /tmp/cctram5e.s:3744   .debug_str:0000000000000550 .LASF92
     /tmp/cctram5e.s:3694   .debug_str:00000000000003e7 .LASF93
     /tmp/cctram5e.s:3804   .debug_str:0000000000000727 .LASF94
     /tmp/cctram5e.s:3632   .debug_str:0000000000000231 .LASF95
     /tmp/cctram5e.s:3792   .debug_str:00000000000006c0 .LASF96
     /tmp/cctram5e.s:3638   .debug_str:000000000000025f .LASF97
     /tmp/cctram5e.s:3626   .debug_str:00000000000001f9 .LASF98
     /tmp/cctram5e.s:3764   .debug_str:00000000000005eb .LASF99
     /tmp/cctram5e.s:387    .text._ZN14PeriodicThreadD0Ev:0000000000000000 .LVL23
     /tmp/cctram5e.s:396    .text._ZN14PeriodicThreadD0Ev:0000000000000010 .LVL24
     /tmp/cctram5e.s:402    .text._ZN14PeriodicThreadD0Ev:000000000000001c .LVL25
     /tmp/cctram5e.s:842    .text:0000000000000398 .LVL54
     /tmp/cctram5e.s:162    .text:0000000000000044 .LVL6
     /tmp/cctram5e.s:174    .text:000000000000005c .LVL7
     /tmp/cctram5e.s:759    .text:0000000000000320 .LVL49
     /tmp/cctram5e.s:792    .text:0000000000000364 .LVL51
     /tmp/cctram5e.s:795    .text:0000000000000368 .LVL52
     /tmp/cctram5e.s:727    .text:00000000000002f8 .LVL47
     /tmp/cctram5e.s:347    .text:000000000000012c .LVL19
     /tmp/cctram5e.s:372    .text:0000000000000164 .LVL22
     /tmp/cctram5e.s:204    .text:000000000000007c .LVL10
     /tmp/cctram5e.s:220    .text:000000000000009c .LVL11
     /tmp/cctram5e.s:693    .text:00000000000002cc .LVL44
     /tmp/cctram5e.s:705    .text:00000000000002e0 .LVL45
     /tmp/cctram5e.s:659    .text:00000000000002a0 .LVL41
     /tmp/cctram5e.s:671    .text:00000000000002b4 .LVL42
     /tmp/cctram5e.s:618    .text:0000000000000268 .LVL38
     /tmp/cctram5e.s:634    .text:0000000000000288 .LVL39
     /tmp/cctram5e.s:95     .text:0000000000000018 .LVL3
     /tmp/cctram5e.s:549    .text:0000000000000214 .LVL35
     /tmp/cctram5e.s:463    .text:0000000000000198 .LVL28
     /tmp/cctram5e.s:481    .text:00000000000001b8 .LVL29
     /tmp/cctram5e.s:495    .text:00000000000001d0 .LVL31
     /tmp/cctram5e.s:503    .text:00000000000001e0 .LVL32
     /tmp/cctram5e.s:317    .text:0000000000000104 .LVL17
     /tmp/cctram5e.s:285    .text:00000000000000dc .LVL15
     /tmp/cctram5e.s:253    .text:00000000000000b4 .LVL13
     /tmp/cctram5e.s:905    .debug_info:0000000000000000 .Ldebug_info0
     /tmp/cctram5e.s:8      .text:0000000000000000 .Ltext0
     /tmp/cctram5e.s:901    .text:00000000000003c0 .Letext0
     /tmp/cctram5e.s:237    .gcc_except_table:0000000000000000 .LLSDA24
GAS LISTING /tmp/cctram5e.s 			page 32


                           .group:0000000000000000 _ZN14PeriodicThreadD5Ev

UNDEFINED SYMBOLS
_Z10time_sleepm
_Z9sem_closeP4_sem
__gxx_personality_v0
_Z9mem_allocm
_Z8mem_freePv
_Z13thread_createPP7_threadPFvPvES2_
_Z15thread_dispatchv
_Z8sem_openPP4_semj
_Z8sem_waitP4_sem
_Z10sem_signalP4_sem
_Z11thread_exitv
_Z4getcv
_Z4putcc
