GAS LISTING /tmp/ccK7KMn2.s 			page 1


   1              		.file	"syscall_c.cpp"
   2              		.option nopic
   3              		.option norelax
   4              		.attribute arch, "rv64i2p0_m2p0_a2p0"
   5              		.attribute unaligned_access, 0
   6              		.attribute stack_align, 16
   7              		.text
   8              	.Ltext0:
   9              		.align	2
  10              		.globl	_Z9mem_allocm
  12              	_Z9mem_allocm:
  13              	.LFB0:
  14              		.file 1 "src/syscall_c.cpp"
   1:src/syscall_c.cpp **** #include "../h/syscall_c.hpp"
   2:src/syscall_c.cpp **** #include "../lib/hw.h"
   3:src/syscall_c.cpp **** 
   4:src/syscall_c.cpp **** extern "C" void interrupt();
   5:src/syscall_c.cpp **** 
   6:src/syscall_c.cpp **** void* mem_alloc(size_t size) {
  15              		.loc 1 6 30
  16              		.cfi_startproc
  17              	.LVL0:
  18 0000 130101FF 		addi	sp,sp,-16
  19              		.cfi_def_cfa_offset 16
  20 0004 23348100 		sd	s0,8(sp)
  21              		.cfi_offset 8, -8
  22 0008 13040101 		addi	s0,sp,16
  23              		.cfi_def_cfa 8, 0
   7:src/syscall_c.cpp ****     uint64 code=0x01;
  24              		.loc 1 7 5
  25              	.LVL1:
   8:src/syscall_c.cpp ****     void* returnValue;
  26              		.loc 1 8 5
   9:src/syscall_c.cpp ****     __asm__ volatile("mv a1, %0" : : "r" (size) );
  27              		.loc 1 9 5
  28              		.loc 1 9 50 is_stmt 0
  29              	 #APP
  30              	# 9 "src/syscall_c.cpp" 1
  10              	    __asm__ volatile("mv a0, %0" : : "r" (code) );
  31              		mv a1, a0
  32              	# 0 "" 2
  33              		.loc 1 10 5 is_stmt 1
  34              		.loc 1 10 50 is_stmt 0
  35              	 #NO_APP
  36 0010 93071000 		li	a5,1
  37              	 #APP
  38              	# 10 "src/syscall_c.cpp" 1
  11              	    __asm__ volatile("ecall");
  39              		mv a0, a5
  40              	# 0 "" 2
  41              		.loc 1 11 5 is_stmt 1
  42              		.loc 1 11 30 is_stmt 0
  43              	# 11 "src/syscall_c.cpp" 1
  12              	    __asm__ volatile("mv %0, a0" : "=r" (returnValue));
  44              		ecall
  45              	# 0 "" 2
  46              		.loc 1 12 5 is_stmt 1
GAS LISTING /tmp/ccK7KMn2.s 			page 2


  47              		.loc 1 12 55 is_stmt 0
  48              	# 12 "src/syscall_c.cpp" 1
  13              	    return returnValue;
  49              		mv a0, a0
  50              	# 0 "" 2
  51              	.LVL2:
  52              		.loc 1 13 5 is_stmt 1
  14:src/syscall_c.cpp **** }
  53              		.loc 1 14 1 is_stmt 0
  54              	 #NO_APP
  55 0020 03348100 		ld	s0,8(sp)
  56              		.cfi_restore 8
  57              		.cfi_def_cfa 2, 16
  58 0024 13010101 		addi	sp,sp,16
  59              		.cfi_def_cfa_offset 0
  60 0028 67800000 		jr	ra
  61              		.cfi_endproc
  62              	.LFE0:
  64              		.align	2
  65              		.globl	_Z8mem_freePv
  67              	_Z8mem_freePv:
  68              	.LFB1:
  15:src/syscall_c.cpp **** 
  16:src/syscall_c.cpp **** int mem_free(void* addr) {
  69              		.loc 1 16 26 is_stmt 1
  70              		.cfi_startproc
  71              	.LVL3:
  72 002c 130101FF 		addi	sp,sp,-16
  73              		.cfi_def_cfa_offset 16
  74 0030 23348100 		sd	s0,8(sp)
  75              		.cfi_offset 8, -8
  76 0034 13040101 		addi	s0,sp,16
  77              		.cfi_def_cfa 8, 0
  17:src/syscall_c.cpp ****     uint64 code=0x02;
  78              		.loc 1 17 5
  79              	.LVL4:
  18:src/syscall_c.cpp ****     uint64 returnValue;
  80              		.loc 1 18 5
  19:src/syscall_c.cpp ****     __asm__ volatile("mv a1, %0 " : : "r" (addr));
  81              		.loc 1 19 5
  82              		.loc 1 19 50 is_stmt 0
  83              	 #APP
  84              	# 19 "src/syscall_c.cpp" 1
  20              	    __asm__ volatile("mv a0, %0" : : "r" (code));
  85              		mv a1, a0 
  86              	# 0 "" 2
  87              		.loc 1 20 5 is_stmt 1
  88              		.loc 1 20 49 is_stmt 0
  89              	 #NO_APP
  90 003c 93072000 		li	a5,2
  91              	 #APP
  92              	# 20 "src/syscall_c.cpp" 1
  21              	    __asm__ volatile("ecall");
  93              		mv a0, a5
  94              	# 0 "" 2
  95              		.loc 1 21 5 is_stmt 1
  96              		.loc 1 21 30 is_stmt 0
GAS LISTING /tmp/ccK7KMn2.s 			page 3


  97              	# 21 "src/syscall_c.cpp" 1
  22              	    __asm__ volatile("mv %0, a0" : "=r" (returnValue));
  98              		ecall
  99              	# 0 "" 2
 100              		.loc 1 22 5 is_stmt 1
 101              		.loc 1 22 55 is_stmt 0
 102              	# 22 "src/syscall_c.cpp" 1
  23              	    return returnValue;
 103              		mv a0, a0
 104              	# 0 "" 2
 105              	.LVL5:
 106              		.loc 1 23 5 is_stmt 1
  24:src/syscall_c.cpp **** }
 107              		.loc 1 24 1 is_stmt 0
 108              	 #NO_APP
 109 004c 1B050500 		sext.w	a0,a0
 110              	.LVL6:
 111 0050 03348100 		ld	s0,8(sp)
 112              		.cfi_restore 8
 113              		.cfi_def_cfa 2, 16
 114 0054 13010101 		addi	sp,sp,16
 115              		.cfi_def_cfa_offset 0
 116 0058 67800000 		jr	ra
 117              		.cfi_endproc
 118              	.LFE1:
 120              		.align	2
 121              		.globl	_Z13thread_createPP7_threadPFvPvES2_
 123              	_Z13thread_createPP7_threadPFvPvES2_:
 124              	.LFB2:
  25:src/syscall_c.cpp **** 
  26:src/syscall_c.cpp **** int thread_create( thread_t* handle, void ( *start_routine)(void*), void* arg ){
 125              		.loc 1 26 80 is_stmt 1
 126              		.cfi_startproc
 127              	.LVL7:
 128 005c 130101FF 		addi	sp,sp,-16
 129              		.cfi_def_cfa_offset 16
 130 0060 23348100 		sd	s0,8(sp)
 131              		.cfi_offset 8, -8
 132 0064 13040101 		addi	s0,sp,16
 133              		.cfi_def_cfa 8, 0
  27:src/syscall_c.cpp ****     uint64 code=0x011;
 134              		.loc 1 27 5
 135              	.LVL8:
  28:src/syscall_c.cpp ****     uint64 returnValue;
 136              		.loc 1 28 5
  29:src/syscall_c.cpp ****     __asm__ volatile("mv a3, %0" : : "r" (arg) );
 137              		.loc 1 29 5
 138              		.loc 1 29 49 is_stmt 0
 139              	 #APP
 140              	# 29 "src/syscall_c.cpp" 1
  30              	    __asm__ volatile("mv a2, %0" : : "r" (start_routine) );
 141              		mv a3, a2
 142              	# 0 "" 2
 143              		.loc 1 30 5 is_stmt 1
 144              		.loc 1 30 59 is_stmt 0
 145              	# 30 "src/syscall_c.cpp" 1
  31              	    __asm__ volatile("mv a1, %0" : : "r" (handle) );
GAS LISTING /tmp/ccK7KMn2.s 			page 4


 146              		mv a2, a1
 147              	# 0 "" 2
 148              		.loc 1 31 5 is_stmt 1
 149              		.loc 1 31 52 is_stmt 0
 150              	# 31 "src/syscall_c.cpp" 1
  32              	    __asm__ volatile("mv a0, %0" : : "r" (code) );
 151              		mv a1, a0
 152              	# 0 "" 2
 153              		.loc 1 32 5 is_stmt 1
 154              		.loc 1 32 50 is_stmt 0
 155              	 #NO_APP
 156 0074 93071001 		li	a5,17
 157              	 #APP
 158              	# 32 "src/syscall_c.cpp" 1
  33              	    __asm__ volatile("ecall");
 159              		mv a0, a5
 160              	# 0 "" 2
 161              		.loc 1 33 5 is_stmt 1
 162              		.loc 1 33 30 is_stmt 0
 163              	# 33 "src/syscall_c.cpp" 1
  34              	    __asm__ volatile("mv %0, a0" : "=r" (returnValue));
 164              		ecall
 165              	# 0 "" 2
 166              		.loc 1 34 5 is_stmt 1
 167              		.loc 1 34 55 is_stmt 0
 168              	# 34 "src/syscall_c.cpp" 1
  35              	    return returnValue;
 169              		mv a0, a0
 170              	# 0 "" 2
 171              	.LVL9:
 172              		.loc 1 35 5 is_stmt 1
  36:src/syscall_c.cpp **** }
 173              		.loc 1 36 1 is_stmt 0
 174              	 #NO_APP
 175 0084 1B050500 		sext.w	a0,a0
 176              	.LVL10:
 177 0088 03348100 		ld	s0,8(sp)
 178              		.cfi_restore 8
 179              		.cfi_def_cfa 2, 16
 180 008c 13010101 		addi	sp,sp,16
 181              		.cfi_def_cfa_offset 0
 182 0090 67800000 		jr	ra
 183              		.cfi_endproc
 184              	.LFE2:
 186              		.align	2
 187              		.globl	_Z11thread_exitv
 189              	_Z11thread_exitv:
 190              	.LFB3:
  37:src/syscall_c.cpp **** 
  38:src/syscall_c.cpp **** 
  39:src/syscall_c.cpp **** int thread_exit(){
 191              		.loc 1 39 18 is_stmt 1
 192              		.cfi_startproc
 193 0094 130101FF 		addi	sp,sp,-16
 194              		.cfi_def_cfa_offset 16
 195 0098 23348100 		sd	s0,8(sp)
 196              		.cfi_offset 8, -8
GAS LISTING /tmp/ccK7KMn2.s 			page 5


 197 009c 13040101 		addi	s0,sp,16
 198              		.cfi_def_cfa 8, 0
  40:src/syscall_c.cpp ****     uint64 code=0x012;
 199              		.loc 1 40 5
 200              	.LVL11:
  41:src/syscall_c.cpp **** 	uint64 returnValue;
 201              		.loc 1 41 2
  42:src/syscall_c.cpp ****     __asm__ volatile("mv a0, %0" : : "r" (code) );
 202              		.loc 1 42 5
 203              		.loc 1 42 50 is_stmt 0
 204 00a0 93072001 		li	a5,18
 205              	 #APP
 206              	# 42 "src/syscall_c.cpp" 1
  43              	    __asm__ volatile("ecall");
 207              		mv a0, a5
 208              	# 0 "" 2
 209              		.loc 1 43 5 is_stmt 1
 210              		.loc 1 43 30 is_stmt 0
 211              	# 43 "src/syscall_c.cpp" 1
  44              	    __asm__ volatile("mv %0, a0" : "=r" (returnValue));
 212              		ecall
 213              	# 0 "" 2
 214              		.loc 1 44 5 is_stmt 1
 215              		.loc 1 44 55 is_stmt 0
 216              	# 44 "src/syscall_c.cpp" 1
  45              	    return returnValue;
 217              		mv a0, a0
 218              	# 0 "" 2
 219              	.LVL12:
 220              		.loc 1 45 5 is_stmt 1
  46:src/syscall_c.cpp **** }
 221              		.loc 1 46 1 is_stmt 0
 222              	 #NO_APP
 223 00b0 1B050500 		sext.w	a0,a0
 224              	.LVL13:
 225 00b4 03348100 		ld	s0,8(sp)
 226              		.cfi_restore 8
 227              		.cfi_def_cfa 2, 16
 228 00b8 13010101 		addi	sp,sp,16
 229              		.cfi_def_cfa_offset 0
 230 00bc 67800000 		jr	ra
 231              		.cfi_endproc
 232              	.LFE3:
 234              		.align	2
 235              		.globl	_Z15thread_dispatchv
 237              	_Z15thread_dispatchv:
 238              	.LFB4:
  47:src/syscall_c.cpp **** 
  48:src/syscall_c.cpp **** void thread_dispatch(){
 239              		.loc 1 48 23 is_stmt 1
 240              		.cfi_startproc
 241 00c0 130101FF 		addi	sp,sp,-16
 242              		.cfi_def_cfa_offset 16
 243 00c4 23348100 		sd	s0,8(sp)
 244              		.cfi_offset 8, -8
 245 00c8 13040101 		addi	s0,sp,16
 246              		.cfi_def_cfa 8, 0
GAS LISTING /tmp/ccK7KMn2.s 			page 6


  49:src/syscall_c.cpp ****     uint64 code=0x013;
 247              		.loc 1 49 5
 248              	.LVL14:
  50:src/syscall_c.cpp ****     __asm__ volatile("mv a0, %0" : : "r" (code) );
 249              		.loc 1 50 5
 250              		.loc 1 50 50 is_stmt 0
 251 00cc 93073001 		li	a5,19
 252              	 #APP
 253              	# 50 "src/syscall_c.cpp" 1
  51              	    __asm__ volatile("ecall");
 254              		mv a0, a5
 255              	# 0 "" 2
 256              		.loc 1 51 5 is_stmt 1
 257              		.loc 1 51 30 is_stmt 0
 258              	# 51 "src/syscall_c.cpp" 1
  52              	}
 259              		ecall
 260              	# 0 "" 2
 261              		.loc 1 52 1
 262              	 #NO_APP
 263 00d8 03348100 		ld	s0,8(sp)
 264              		.cfi_restore 8
 265              		.cfi_def_cfa 2, 16
 266 00dc 13010101 		addi	sp,sp,16
 267              		.cfi_def_cfa_offset 0
 268 00e0 67800000 		jr	ra
 269              		.cfi_endproc
 270              	.LFE4:
 272              		.align	2
 273              		.globl	_Z8sem_openPP4_semj
 275              	_Z8sem_openPP4_semj:
 276              	.LFB5:
  53:src/syscall_c.cpp **** 
  54:src/syscall_c.cpp **** int sem_open(sem_t* handle,unsigned init){
 277              		.loc 1 54 42 is_stmt 1
 278              		.cfi_startproc
 279              	.LVL15:
 280 00e4 130101FF 		addi	sp,sp,-16
 281              		.cfi_def_cfa_offset 16
 282 00e8 23348100 		sd	s0,8(sp)
 283              		.cfi_offset 8, -8
 284 00ec 13040101 		addi	s0,sp,16
 285              		.cfi_def_cfa 8, 0
  55:src/syscall_c.cpp ****     uint64 code=0x021;
 286              		.loc 1 55 5
 287              	.LVL16:
  56:src/syscall_c.cpp ****     uint64 returnValue;
 288              		.loc 1 56 5
  57:src/syscall_c.cpp ****     __asm__ volatile("mv a2, %0" : : "r" (init) );
 289              		.loc 1 57 5
 290              		.loc 1 57 50 is_stmt 0
 291              	 #APP
 292              	# 57 "src/syscall_c.cpp" 1
  58              	    __asm__ volatile("mv a1, %0" : : "r" (handle) );
 293              		mv a2, a1
 294              	# 0 "" 2
 295              		.loc 1 58 5 is_stmt 1
GAS LISTING /tmp/ccK7KMn2.s 			page 7


 296              		.loc 1 58 52 is_stmt 0
 297              	# 58 "src/syscall_c.cpp" 1
  59              	    __asm__ volatile("mv a0, %0" : : "r" (code) );
 298              		mv a1, a0
 299              	# 0 "" 2
 300              		.loc 1 59 5 is_stmt 1
 301              		.loc 1 59 50 is_stmt 0
 302              	 #NO_APP
 303 00f8 93071002 		li	a5,33
 304              	 #APP
 305              	# 59 "src/syscall_c.cpp" 1
  60              	    __asm__ volatile("ecall");
 306              		mv a0, a5
 307              	# 0 "" 2
 308              		.loc 1 60 5 is_stmt 1
 309              		.loc 1 60 30 is_stmt 0
 310              	# 60 "src/syscall_c.cpp" 1
  61              	    __asm__ volatile("mv %0, a0" : "=r" (returnValue));
 311              		ecall
 312              	# 0 "" 2
 313              		.loc 1 61 5 is_stmt 1
 314              		.loc 1 61 55 is_stmt 0
 315              	# 61 "src/syscall_c.cpp" 1
  62              	    return returnValue;
 316              		mv a0, a0
 317              	# 0 "" 2
 318              	.LVL17:
 319              		.loc 1 62 5 is_stmt 1
  63:src/syscall_c.cpp **** }
 320              		.loc 1 63 1 is_stmt 0
 321              	 #NO_APP
 322 0108 1B050500 		sext.w	a0,a0
 323              	.LVL18:
 324 010c 03348100 		ld	s0,8(sp)
 325              		.cfi_restore 8
 326              		.cfi_def_cfa 2, 16
 327 0110 13010101 		addi	sp,sp,16
 328              		.cfi_def_cfa_offset 0
 329 0114 67800000 		jr	ra
 330              		.cfi_endproc
 331              	.LFE5:
 333              		.align	2
 334              		.globl	_Z9sem_closeP4_sem
 336              	_Z9sem_closeP4_sem:
 337              	.LFB6:
  64:src/syscall_c.cpp **** 
  65:src/syscall_c.cpp **** int sem_close(sem_t handle){
 338              		.loc 1 65 28 is_stmt 1
 339              		.cfi_startproc
 340              	.LVL19:
 341 0118 130101FF 		addi	sp,sp,-16
 342              		.cfi_def_cfa_offset 16
 343 011c 23348100 		sd	s0,8(sp)
 344              		.cfi_offset 8, -8
 345 0120 13040101 		addi	s0,sp,16
 346              		.cfi_def_cfa 8, 0
  66:src/syscall_c.cpp ****     uint64 code=0x022;
GAS LISTING /tmp/ccK7KMn2.s 			page 8


 347              		.loc 1 66 5
 348              	.LVL20:
  67:src/syscall_c.cpp ****     uint64 returnValue;
 349              		.loc 1 67 5
  68:src/syscall_c.cpp ****     __asm__ volatile("mv a1, %0" : : "r" (handle) );
 350              		.loc 1 68 5
 351              		.loc 1 68 52 is_stmt 0
 352              	 #APP
 353              	# 68 "src/syscall_c.cpp" 1
  69              	    __asm__ volatile("mv a0, %0" : : "r" (code) );
 354              		mv a1, a0
 355              	# 0 "" 2
 356              		.loc 1 69 5 is_stmt 1
 357              		.loc 1 69 50 is_stmt 0
 358              	 #NO_APP
 359 0128 93072002 		li	a5,34
 360              	 #APP
 361              	# 69 "src/syscall_c.cpp" 1
  70              	    __asm__ volatile("ecall");
 362              		mv a0, a5
 363              	# 0 "" 2
 364              		.loc 1 70 5 is_stmt 1
 365              		.loc 1 70 30 is_stmt 0
 366              	# 70 "src/syscall_c.cpp" 1
  71              	    __asm__ volatile("mv %0, a0" : "=r" (returnValue));
 367              		ecall
 368              	# 0 "" 2
 369              		.loc 1 71 5 is_stmt 1
 370              		.loc 1 71 55 is_stmt 0
 371              	# 71 "src/syscall_c.cpp" 1
  72              	    return returnValue;
 372              		mv a0, a0
 373              	# 0 "" 2
 374              	.LVL21:
 375              		.loc 1 72 5 is_stmt 1
  73:src/syscall_c.cpp **** }
 376              		.loc 1 73 1 is_stmt 0
 377              	 #NO_APP
 378 0138 1B050500 		sext.w	a0,a0
 379              	.LVL22:
 380 013c 03348100 		ld	s0,8(sp)
 381              		.cfi_restore 8
 382              		.cfi_def_cfa 2, 16
 383 0140 13010101 		addi	sp,sp,16
 384              		.cfi_def_cfa_offset 0
 385 0144 67800000 		jr	ra
 386              		.cfi_endproc
 387              	.LFE6:
 389              		.align	2
 390              		.globl	_Z8sem_waitP4_sem
 392              	_Z8sem_waitP4_sem:
 393              	.LFB7:
  74:src/syscall_c.cpp **** 
  75:src/syscall_c.cpp **** int sem_wait(sem_t id){
 394              		.loc 1 75 23 is_stmt 1
 395              		.cfi_startproc
 396              	.LVL23:
GAS LISTING /tmp/ccK7KMn2.s 			page 9


 397 0148 130101FF 		addi	sp,sp,-16
 398              		.cfi_def_cfa_offset 16
 399 014c 23348100 		sd	s0,8(sp)
 400              		.cfi_offset 8, -8
 401 0150 13040101 		addi	s0,sp,16
 402              		.cfi_def_cfa 8, 0
  76:src/syscall_c.cpp ****     uint64 code=0x023;
 403              		.loc 1 76 5
 404              	.LVL24:
  77:src/syscall_c.cpp ****     uint64 returnValue;
 405              		.loc 1 77 5
  78:src/syscall_c.cpp ****     __asm__ volatile("mv a1, %0" : : "r" (id) );
 406              		.loc 1 78 5
 407              		.loc 1 78 48 is_stmt 0
 408              	 #APP
 409              	# 78 "src/syscall_c.cpp" 1
  79              	    __asm__ volatile("mv a0, %0" : : "r" (code) );
 410              		mv a1, a0
 411              	# 0 "" 2
 412              		.loc 1 79 5 is_stmt 1
 413              		.loc 1 79 50 is_stmt 0
 414              	 #NO_APP
 415 0158 93073002 		li	a5,35
 416              	 #APP
 417              	# 79 "src/syscall_c.cpp" 1
  80              	    __asm__ volatile("ecall");
 418              		mv a0, a5
 419              	# 0 "" 2
 420              		.loc 1 80 5 is_stmt 1
 421              		.loc 1 80 30 is_stmt 0
 422              	# 80 "src/syscall_c.cpp" 1
  81              	    __asm__ volatile("mv %0, a0" : "=r" (returnValue));
 423              		ecall
 424              	# 0 "" 2
 425              		.loc 1 81 5 is_stmt 1
 426              		.loc 1 81 55 is_stmt 0
 427              	# 81 "src/syscall_c.cpp" 1
  82              	    return returnValue;
 428              		mv a0, a0
 429              	# 0 "" 2
 430              	.LVL25:
 431              		.loc 1 82 5 is_stmt 1
  83:src/syscall_c.cpp **** }
 432              		.loc 1 83 1 is_stmt 0
 433              	 #NO_APP
 434 0168 1B050500 		sext.w	a0,a0
 435              	.LVL26:
 436 016c 03348100 		ld	s0,8(sp)
 437              		.cfi_restore 8
 438              		.cfi_def_cfa 2, 16
 439 0170 13010101 		addi	sp,sp,16
 440              		.cfi_def_cfa_offset 0
 441 0174 67800000 		jr	ra
 442              		.cfi_endproc
 443              	.LFE7:
 445              		.align	2
 446              		.globl	_Z10sem_signalP4_sem
GAS LISTING /tmp/ccK7KMn2.s 			page 10


 448              	_Z10sem_signalP4_sem:
 449              	.LFB8:
  84:src/syscall_c.cpp **** 
  85:src/syscall_c.cpp **** int sem_signal(sem_t id){
 450              		.loc 1 85 25 is_stmt 1
 451              		.cfi_startproc
 452              	.LVL27:
 453 0178 130101FF 		addi	sp,sp,-16
 454              		.cfi_def_cfa_offset 16
 455 017c 23348100 		sd	s0,8(sp)
 456              		.cfi_offset 8, -8
 457 0180 13040101 		addi	s0,sp,16
 458              		.cfi_def_cfa 8, 0
  86:src/syscall_c.cpp ****     uint64 code=0x024;
 459              		.loc 1 86 5
 460              	.LVL28:
  87:src/syscall_c.cpp ****     uint64 returnValue;
 461              		.loc 1 87 5
  88:src/syscall_c.cpp ****     __asm__ volatile("mv a1, %0" : : "r" (id) );
 462              		.loc 1 88 5
 463              		.loc 1 88 48 is_stmt 0
 464              	 #APP
 465              	# 88 "src/syscall_c.cpp" 1
  89              	    __asm__ volatile("mv a0, %0" : : "r" (code) );
 466              		mv a1, a0
 467              	# 0 "" 2
 468              		.loc 1 89 5 is_stmt 1
 469              		.loc 1 89 50 is_stmt 0
 470              	 #NO_APP
 471 0188 93074002 		li	a5,36
 472              	 #APP
 473              	# 89 "src/syscall_c.cpp" 1
  90              	    __asm__ volatile("ecall");
 474              		mv a0, a5
 475              	# 0 "" 2
 476              		.loc 1 90 5 is_stmt 1
 477              		.loc 1 90 30 is_stmt 0
 478              	# 90 "src/syscall_c.cpp" 1
  91              	    __asm__ volatile("mv %0, a0" : "=r" (returnValue));
 479              		ecall
 480              	# 0 "" 2
 481              		.loc 1 91 5 is_stmt 1
 482              		.loc 1 91 55 is_stmt 0
 483              	# 91 "src/syscall_c.cpp" 1
  92              	    return returnValue;
 484              		mv a0, a0
 485              	# 0 "" 2
 486              	.LVL29:
 487              		.loc 1 92 5 is_stmt 1
  93:src/syscall_c.cpp **** 
  94:src/syscall_c.cpp **** }
 488              		.loc 1 94 1 is_stmt 0
 489              	 #NO_APP
 490 0198 1B050500 		sext.w	a0,a0
 491              	.LVL30:
 492 019c 03348100 		ld	s0,8(sp)
 493              		.cfi_restore 8
GAS LISTING /tmp/ccK7KMn2.s 			page 11


 494              		.cfi_def_cfa 2, 16
 495 01a0 13010101 		addi	sp,sp,16
 496              		.cfi_def_cfa_offset 0
 497 01a4 67800000 		jr	ra
 498              		.cfi_endproc
 499              	.LFE8:
 501              		.align	2
 502              		.globl	_Z10sem_wait_nP4_semj
 504              	_Z10sem_wait_nP4_semj:
 505              	.LFB9:
  95:src/syscall_c.cpp **** 
  96:src/syscall_c.cpp **** int sem_wait_n(sem_t id, unsigned n){
 506              		.loc 1 96 37 is_stmt 1
 507              		.cfi_startproc
 508              	.LVL31:
 509 01a8 130101FF 		addi	sp,sp,-16
 510              		.cfi_def_cfa_offset 16
 511 01ac 23348100 		sd	s0,8(sp)
 512              		.cfi_offset 8, -8
 513 01b0 13040101 		addi	s0,sp,16
 514              		.cfi_def_cfa 8, 0
  97:src/syscall_c.cpp ****     uint64 code=0x025;
 515              		.loc 1 97 5
 516              	.LVL32:
  98:src/syscall_c.cpp ****     uint64 returnValue;
 517              		.loc 1 98 5
  99:src/syscall_c.cpp ****     __asm__ volatile("mv a2, %0" : : "r" (n) );
 518              		.loc 1 99 5
 519              		.loc 1 99 47 is_stmt 0
 520              	 #APP
 521              	# 99 "src/syscall_c.cpp" 1
 100              	    __asm__ volatile("mv a1, %0" : : "r" (id) );
 522              		mv a2, a1
 523              	# 0 "" 2
 524              		.loc 1 100 5 is_stmt 1
 525              		.loc 1 100 48 is_stmt 0
 526              	# 100 "src/syscall_c.cpp" 1
 101              	    __asm__ volatile("mv a0, %0" : : "r" (code) );
 527              		mv a1, a0
 528              	# 0 "" 2
 529              		.loc 1 101 5 is_stmt 1
 530              		.loc 1 101 50 is_stmt 0
 531              	 #NO_APP
 532 01bc 93075002 		li	a5,37
 533              	 #APP
 534              	# 101 "src/syscall_c.cpp" 1
 102              	    __asm__ volatile("ecall");
 535              		mv a0, a5
 536              	# 0 "" 2
 537              		.loc 1 102 5 is_stmt 1
 538              		.loc 1 102 30 is_stmt 0
 539              	# 102 "src/syscall_c.cpp" 1
 103              	    __asm__ volatile("mv %0, a0" : "=r" (returnValue));
 540              		ecall
 541              	# 0 "" 2
 542              		.loc 1 103 5 is_stmt 1
 543              		.loc 1 103 55 is_stmt 0
GAS LISTING /tmp/ccK7KMn2.s 			page 12


 544              	# 103 "src/syscall_c.cpp" 1
 104              	    return returnValue;
 545              		mv a0, a0
 546              	# 0 "" 2
 547              	.LVL33:
 548              		.loc 1 104 5 is_stmt 1
 105:src/syscall_c.cpp **** 
 106:src/syscall_c.cpp **** }
 549              		.loc 1 106 1 is_stmt 0
 550              	 #NO_APP
 551 01cc 1B050500 		sext.w	a0,a0
 552              	.LVL34:
 553 01d0 03348100 		ld	s0,8(sp)
 554              		.cfi_restore 8
 555              		.cfi_def_cfa 2, 16
 556 01d4 13010101 		addi	sp,sp,16
 557              		.cfi_def_cfa_offset 0
 558 01d8 67800000 		jr	ra
 559              		.cfi_endproc
 560              	.LFE9:
 562              		.align	2
 563              		.globl	_Z12sem_signal_nP4_semj
 565              	_Z12sem_signal_nP4_semj:
 566              	.LFB10:
 107:src/syscall_c.cpp **** 
 108:src/syscall_c.cpp **** int sem_signal_n(sem_t id, unsigned n){
 567              		.loc 1 108 39 is_stmt 1
 568              		.cfi_startproc
 569              	.LVL35:
 570 01dc 130101FF 		addi	sp,sp,-16
 571              		.cfi_def_cfa_offset 16
 572 01e0 23348100 		sd	s0,8(sp)
 573              		.cfi_offset 8, -8
 574 01e4 13040101 		addi	s0,sp,16
 575              		.cfi_def_cfa 8, 0
 109:src/syscall_c.cpp ****     uint64 code=0x026;
 576              		.loc 1 109 5
 577              	.LVL36:
 110:src/syscall_c.cpp ****     uint64 returnValue;
 578              		.loc 1 110 5
 111:src/syscall_c.cpp ****     __asm__ volatile("mv a2, %0" : : "r" (n) );
 579              		.loc 1 111 5
 580              		.loc 1 111 47 is_stmt 0
 581              	 #APP
 582              	# 111 "src/syscall_c.cpp" 1
 112              	    __asm__ volatile("mv a1, %0" : : "r" (id) );
 583              		mv a2, a1
 584              	# 0 "" 2
 585              		.loc 1 112 5 is_stmt 1
 586              		.loc 1 112 48 is_stmt 0
 587              	# 112 "src/syscall_c.cpp" 1
 113              	    __asm__ volatile("mv a0, %0" : : "r" (code) );
 588              		mv a1, a0
 589              	# 0 "" 2
 590              		.loc 1 113 5 is_stmt 1
 591              		.loc 1 113 50 is_stmt 0
 592              	 #NO_APP
GAS LISTING /tmp/ccK7KMn2.s 			page 13


 593 01f0 93076002 		li	a5,38
 594              	 #APP
 595              	# 113 "src/syscall_c.cpp" 1
 114              	    __asm__ volatile("ecall");
 596              		mv a0, a5
 597              	# 0 "" 2
 598              		.loc 1 114 5 is_stmt 1
 599              		.loc 1 114 30 is_stmt 0
 600              	# 114 "src/syscall_c.cpp" 1
 115              	    __asm__ volatile("mv %0, a0" : "=r" (returnValue));
 601              		ecall
 602              	# 0 "" 2
 603              		.loc 1 115 5 is_stmt 1
 604              		.loc 1 115 55 is_stmt 0
 605              	# 115 "src/syscall_c.cpp" 1
 116              	    return returnValue;
 606              		mv a0, a0
 607              	# 0 "" 2
 608              	.LVL37:
 609              		.loc 1 116 5 is_stmt 1
 117:src/syscall_c.cpp **** }
 610              		.loc 1 117 1 is_stmt 0
 611              	 #NO_APP
 612 0200 1B050500 		sext.w	a0,a0
 613              	.LVL38:
 614 0204 03348100 		ld	s0,8(sp)
 615              		.cfi_restore 8
 616              		.cfi_def_cfa 2, 16
 617 0208 13010101 		addi	sp,sp,16
 618              		.cfi_def_cfa_offset 0
 619 020c 67800000 		jr	ra
 620              		.cfi_endproc
 621              	.LFE10:
 623              		.align	2
 624              		.globl	_Z4getcv
 626              	_Z4getcv:
 627              	.LFB11:
 118:src/syscall_c.cpp **** 
 119:src/syscall_c.cpp **** char getc(){
 628              		.loc 1 119 12 is_stmt 1
 629              		.cfi_startproc
 630 0210 130101FF 		addi	sp,sp,-16
 631              		.cfi_def_cfa_offset 16
 632 0214 23348100 		sd	s0,8(sp)
 633              		.cfi_offset 8, -8
 634 0218 13040101 		addi	s0,sp,16
 635              		.cfi_def_cfa 8, 0
 120:src/syscall_c.cpp ****     uint64 code=0x41;
 636              		.loc 1 120 5
 637              	.LVL39:
 121:src/syscall_c.cpp ****     char returnValue;
 638              		.loc 1 121 5
 122:src/syscall_c.cpp ****     __asm__ volatile("mv a0, %0" : : "r" (code) );
 639              		.loc 1 122 5
 640              		.loc 1 122 50 is_stmt 0
 641 021c 93071004 		li	a5,65
 642              	 #APP
GAS LISTING /tmp/ccK7KMn2.s 			page 14


 643              	# 122 "src/syscall_c.cpp" 1
 123              	    __asm__ volatile("ecall");
 644              		mv a0, a5
 645              	# 0 "" 2
 646              		.loc 1 123 5 is_stmt 1
 647              		.loc 1 123 30 is_stmt 0
 648              	# 123 "src/syscall_c.cpp" 1
 124              	    __asm__ volatile("mv %0, a0" : "=r" (returnValue));
 649              		ecall
 650              	# 0 "" 2
 651              		.loc 1 124 5 is_stmt 1
 652              		.loc 1 124 55 is_stmt 0
 653              	# 124 "src/syscall_c.cpp" 1
 125              	    return returnValue;
 654              		mv a0, a0
 655              	# 0 "" 2
 656              	.LVL40:
 657              		.loc 1 125 5 is_stmt 1
 126:src/syscall_c.cpp **** }
 658              		.loc 1 126 1 is_stmt 0
 659              	 #NO_APP
 660 022c 1375F50F 		andi	a0,a0,0xff
 661 0230 03348100 		ld	s0,8(sp)
 662              		.cfi_restore 8
 663              		.cfi_def_cfa 2, 16
 664 0234 13010101 		addi	sp,sp,16
 665              		.cfi_def_cfa_offset 0
 666 0238 67800000 		jr	ra
 667              		.cfi_endproc
 668              	.LFE11:
 670              		.align	2
 671              		.globl	_Z4putcc
 673              	_Z4putcc:
 674              	.LFB12:
 127:src/syscall_c.cpp **** 
 128:src/syscall_c.cpp **** void putc(char c){
 675              		.loc 1 128 18 is_stmt 1
 676              		.cfi_startproc
 677              	.LVL41:
 678 023c 130101FF 		addi	sp,sp,-16
 679              		.cfi_def_cfa_offset 16
 680 0240 23348100 		sd	s0,8(sp)
 681              		.cfi_offset 8, -8
 682 0244 13040101 		addi	s0,sp,16
 683              		.cfi_def_cfa 8, 0
 129:src/syscall_c.cpp ****     uint64 code=0x42;
 684              		.loc 1 129 5
 685              	.LVL42:
 130:src/syscall_c.cpp ****     __asm__ volatile("mv a1, %0" : : "r" (c) );
 686              		.loc 1 130 5
 687              		.loc 1 130 47 is_stmt 0
 688              	 #APP
 689              	# 130 "src/syscall_c.cpp" 1
 131              	    __asm__ volatile("mv a0, %0" : : "r" (code) );
 690              		mv a1, a0
 691              	# 0 "" 2
 692              		.loc 1 131 5 is_stmt 1
GAS LISTING /tmp/ccK7KMn2.s 			page 15


 693              		.loc 1 131 50 is_stmt 0
 694              	 #NO_APP
 695 024c 93072004 		li	a5,66
 696              	 #APP
 697              	# 131 "src/syscall_c.cpp" 1
 132              	    __asm__ volatile("ecall");
 698              		mv a0, a5
 699              	# 0 "" 2
 700              		.loc 1 132 5 is_stmt 1
 701              		.loc 1 132 30 is_stmt 0
 702              	# 132 "src/syscall_c.cpp" 1
 133              	}
 703              		ecall
 704              	# 0 "" 2
 705              		.loc 1 133 1
 706              	 #NO_APP
 707 0258 03348100 		ld	s0,8(sp)
 708              		.cfi_restore 8
 709              		.cfi_def_cfa 2, 16
 710 025c 13010101 		addi	sp,sp,16
 711              		.cfi_def_cfa_offset 0
 712 0260 67800000 		jr	ra
 713              		.cfi_endproc
 714              	.LFE12:
 716              		.align	2
 717              		.globl	_Z10time_sleepm
 719              	_Z10time_sleepm:
 720              	.LFB13:
 134:src/syscall_c.cpp **** 
 135:src/syscall_c.cpp **** int time_sleep(time_t t) {
 721              		.loc 1 135 26 is_stmt 1
 722              		.cfi_startproc
 723              	.LVL43:
 724 0264 130101FF 		addi	sp,sp,-16
 725              		.cfi_def_cfa_offset 16
 726 0268 23348100 		sd	s0,8(sp)
 727              		.cfi_offset 8, -8
 728 026c 13040101 		addi	s0,sp,16
 729              		.cfi_def_cfa 8, 0
 136:src/syscall_c.cpp ****     uint64 code=0x31;
 730              		.loc 1 136 5
 731              	.LVL44:
 137:src/syscall_c.cpp ****     uint64 returnValue;
 732              		.loc 1 137 5
 138:src/syscall_c.cpp ****     __asm__ volatile("mv a1, %0" : : "r" (t) );
 733              		.loc 1 138 5
 734              		.loc 1 138 47 is_stmt 0
 735              	 #APP
 736              	# 138 "src/syscall_c.cpp" 1
 139              	    __asm__ volatile("mv a0, %0" : : "r" (code) );
 737              		mv a1, a0
 738              	# 0 "" 2
 739              		.loc 1 139 5 is_stmt 1
 740              		.loc 1 139 50 is_stmt 0
 741              	 #NO_APP
 742 0274 93071003 		li	a5,49
 743              	 #APP
GAS LISTING /tmp/ccK7KMn2.s 			page 16


 744              	# 139 "src/syscall_c.cpp" 1
 140              	    __asm__ volatile("ecall");
 745              		mv a0, a5
 746              	# 0 "" 2
 747              		.loc 1 140 5 is_stmt 1
 748              		.loc 1 140 30 is_stmt 0
 749              	# 140 "src/syscall_c.cpp" 1
 141              	    __asm__ volatile("mv %0, a0" : "=r" (returnValue));
 750              		ecall
 751              	# 0 "" 2
 752              		.loc 1 141 5 is_stmt 1
 753              		.loc 1 141 55 is_stmt 0
 754              	# 141 "src/syscall_c.cpp" 1
 142              	    return returnValue;
 755              		mv a0, a0
 756              	# 0 "" 2
 757              	.LVL45:
 758              		.loc 1 142 5 is_stmt 1
 143:src/syscall_c.cpp **** }
 759              		.loc 1 143 1 is_stmt 0
 760              	 #NO_APP
 761 0284 1B050500 		sext.w	a0,a0
 762              	.LVL46:
 763 0288 03348100 		ld	s0,8(sp)
 764              		.cfi_restore 8
 765              		.cfi_def_cfa 2, 16
 766 028c 13010101 		addi	sp,sp,16
 767              		.cfi_def_cfa_offset 0
 768 0290 67800000 		jr	ra
 769              		.cfi_endproc
 770              	.LFE13:
 772              	.Letext0:
 773              		.file 2 "src/../h/../lib/hw.h"
 774              		.file 3 "src/../h/syscall_c.hpp"
GAS LISTING /tmp/ccK7KMn2.s 			page 17


DEFINED SYMBOLS
                            *ABS*:0000000000000000 syscall_c.cpp
     /tmp/ccK7KMn2.s:12     .text:0000000000000000 _Z9mem_allocm
     /tmp/ccK7KMn2.s:16     .text:0000000000000000 .L0 
     /tmp/ccK7KMn2.s:18     .text:0000000000000000 .L0 
     /tmp/ccK7KMn2.s:19     .text:0000000000000004 .L0 
     /tmp/ccK7KMn2.s:21     .text:0000000000000008 .L0 
     /tmp/ccK7KMn2.s:23     .text:000000000000000c .L0 
     /tmp/ccK7KMn2.s:26     .text:000000000000000c .L0 
     /tmp/ccK7KMn2.s:27     .text:000000000000000c .L0 
     /tmp/ccK7KMn2.s:28     .text:000000000000000c .L0 
   src/syscall_c.cpp:9      .text:000000000000000c .L0 
     /tmp/ccK7KMn2.s:34     .text:0000000000000010 .L0 
     /tmp/ccK7KMn2.s:36     .text:0000000000000010 .L0 
     /tmp/ccK7KMn2.s:42     .text:0000000000000018 .L0 
   src/syscall_c.cpp:11     .text:0000000000000018 .L0 
     /tmp/ccK7KMn2.s:47     .text:000000000000001c .L0 
   src/syscall_c.cpp:12     .text:000000000000001c .L0 
     /tmp/ccK7KMn2.s:53     .text:0000000000000020 .L0 
     /tmp/ccK7KMn2.s:55     .text:0000000000000020 .L0 
     /tmp/ccK7KMn2.s:56     .text:0000000000000024 .L0 
     /tmp/ccK7KMn2.s:57     .text:0000000000000024 .L0 
     /tmp/ccK7KMn2.s:59     .text:0000000000000028 .L0 
     /tmp/ccK7KMn2.s:61     .text:000000000000002c .L0 
     /tmp/ccK7KMn2.s:67     .text:000000000000002c _Z8mem_freePv
     /tmp/ccK7KMn2.s:70     .text:000000000000002c .L0 
     /tmp/ccK7KMn2.s:72     .text:000000000000002c .L0 
     /tmp/ccK7KMn2.s:73     .text:0000000000000030 .L0 
     /tmp/ccK7KMn2.s:75     .text:0000000000000034 .L0 
     /tmp/ccK7KMn2.s:77     .text:0000000000000038 .L0 
     /tmp/ccK7KMn2.s:80     .text:0000000000000038 .L0 
     /tmp/ccK7KMn2.s:81     .text:0000000000000038 .L0 
     /tmp/ccK7KMn2.s:82     .text:0000000000000038 .L0 
   src/syscall_c.cpp:19     .text:0000000000000038 .L0 
     /tmp/ccK7KMn2.s:88     .text:000000000000003c .L0 
     /tmp/ccK7KMn2.s:90     .text:000000000000003c .L0 
     /tmp/ccK7KMn2.s:96     .text:0000000000000044 .L0 
   src/syscall_c.cpp:21     .text:0000000000000044 .L0 
     /tmp/ccK7KMn2.s:101    .text:0000000000000048 .L0 
   src/syscall_c.cpp:22     .text:0000000000000048 .L0 
     /tmp/ccK7KMn2.s:107    .text:000000000000004c .L0 
     /tmp/ccK7KMn2.s:109    .text:000000000000004c .L0 
     /tmp/ccK7KMn2.s:112    .text:0000000000000054 .L0 
     /tmp/ccK7KMn2.s:113    .text:0000000000000054 .L0 
     /tmp/ccK7KMn2.s:115    .text:0000000000000058 .L0 
     /tmp/ccK7KMn2.s:117    .text:000000000000005c .L0 
     /tmp/ccK7KMn2.s:123    .text:000000000000005c _Z13thread_createPP7_threadPFvPvES2_
     /tmp/ccK7KMn2.s:126    .text:000000000000005c .L0 
     /tmp/ccK7KMn2.s:128    .text:000000000000005c .L0 
     /tmp/ccK7KMn2.s:129    .text:0000000000000060 .L0 
     /tmp/ccK7KMn2.s:131    .text:0000000000000064 .L0 
     /tmp/ccK7KMn2.s:133    .text:0000000000000068 .L0 
     /tmp/ccK7KMn2.s:136    .text:0000000000000068 .L0 
     /tmp/ccK7KMn2.s:137    .text:0000000000000068 .L0 
     /tmp/ccK7KMn2.s:138    .text:0000000000000068 .L0 
   src/syscall_c.cpp:29     .text:0000000000000068 .L0 
     /tmp/ccK7KMn2.s:144    .text:000000000000006c .L0 
GAS LISTING /tmp/ccK7KMn2.s 			page 18


   src/syscall_c.cpp:30     .text:000000000000006c .L0 
     /tmp/ccK7KMn2.s:149    .text:0000000000000070 .L0 
   src/syscall_c.cpp:31     .text:0000000000000070 .L0 
     /tmp/ccK7KMn2.s:154    .text:0000000000000074 .L0 
     /tmp/ccK7KMn2.s:156    .text:0000000000000074 .L0 
     /tmp/ccK7KMn2.s:162    .text:000000000000007c .L0 
   src/syscall_c.cpp:33     .text:000000000000007c .L0 
     /tmp/ccK7KMn2.s:167    .text:0000000000000080 .L0 
   src/syscall_c.cpp:34     .text:0000000000000080 .L0 
     /tmp/ccK7KMn2.s:173    .text:0000000000000084 .L0 
     /tmp/ccK7KMn2.s:175    .text:0000000000000084 .L0 
     /tmp/ccK7KMn2.s:178    .text:000000000000008c .L0 
     /tmp/ccK7KMn2.s:179    .text:000000000000008c .L0 
     /tmp/ccK7KMn2.s:181    .text:0000000000000090 .L0 
     /tmp/ccK7KMn2.s:183    .text:0000000000000094 .L0 
     /tmp/ccK7KMn2.s:189    .text:0000000000000094 _Z11thread_exitv
     /tmp/ccK7KMn2.s:192    .text:0000000000000094 .L0 
     /tmp/ccK7KMn2.s:193    .text:0000000000000094 .L0 
     /tmp/ccK7KMn2.s:194    .text:0000000000000098 .L0 
     /tmp/ccK7KMn2.s:196    .text:000000000000009c .L0 
     /tmp/ccK7KMn2.s:198    .text:00000000000000a0 .L0 
     /tmp/ccK7KMn2.s:201    .text:00000000000000a0 .L0 
     /tmp/ccK7KMn2.s:202    .text:00000000000000a0 .L0 
     /tmp/ccK7KMn2.s:203    .text:00000000000000a0 .L0 
     /tmp/ccK7KMn2.s:204    .text:00000000000000a0 .L0 
     /tmp/ccK7KMn2.s:210    .text:00000000000000a8 .L0 
   src/syscall_c.cpp:43     .text:00000000000000a8 .L0 
     /tmp/ccK7KMn2.s:215    .text:00000000000000ac .L0 
   src/syscall_c.cpp:44     .text:00000000000000ac .L0 
     /tmp/ccK7KMn2.s:221    .text:00000000000000b0 .L0 
     /tmp/ccK7KMn2.s:223    .text:00000000000000b0 .L0 
     /tmp/ccK7KMn2.s:226    .text:00000000000000b8 .L0 
     /tmp/ccK7KMn2.s:227    .text:00000000000000b8 .L0 
     /tmp/ccK7KMn2.s:229    .text:00000000000000bc .L0 
     /tmp/ccK7KMn2.s:231    .text:00000000000000c0 .L0 
     /tmp/ccK7KMn2.s:237    .text:00000000000000c0 _Z15thread_dispatchv
     /tmp/ccK7KMn2.s:240    .text:00000000000000c0 .L0 
     /tmp/ccK7KMn2.s:241    .text:00000000000000c0 .L0 
     /tmp/ccK7KMn2.s:242    .text:00000000000000c4 .L0 
     /tmp/ccK7KMn2.s:244    .text:00000000000000c8 .L0 
     /tmp/ccK7KMn2.s:246    .text:00000000000000cc .L0 
     /tmp/ccK7KMn2.s:249    .text:00000000000000cc .L0 
     /tmp/ccK7KMn2.s:250    .text:00000000000000cc .L0 
     /tmp/ccK7KMn2.s:251    .text:00000000000000cc .L0 
     /tmp/ccK7KMn2.s:257    .text:00000000000000d4 .L0 
   src/syscall_c.cpp:51     .text:00000000000000d4 .L0 
     /tmp/ccK7KMn2.s:263    .text:00000000000000d8 .L0 
     /tmp/ccK7KMn2.s:264    .text:00000000000000dc .L0 
     /tmp/ccK7KMn2.s:265    .text:00000000000000dc .L0 
     /tmp/ccK7KMn2.s:267    .text:00000000000000e0 .L0 
     /tmp/ccK7KMn2.s:269    .text:00000000000000e4 .L0 
     /tmp/ccK7KMn2.s:275    .text:00000000000000e4 _Z8sem_openPP4_semj
     /tmp/ccK7KMn2.s:278    .text:00000000000000e4 .L0 
     /tmp/ccK7KMn2.s:280    .text:00000000000000e4 .L0 
     /tmp/ccK7KMn2.s:281    .text:00000000000000e8 .L0 
     /tmp/ccK7KMn2.s:283    .text:00000000000000ec .L0 
     /tmp/ccK7KMn2.s:285    .text:00000000000000f0 .L0 
GAS LISTING /tmp/ccK7KMn2.s 			page 19


     /tmp/ccK7KMn2.s:288    .text:00000000000000f0 .L0 
     /tmp/ccK7KMn2.s:289    .text:00000000000000f0 .L0 
     /tmp/ccK7KMn2.s:290    .text:00000000000000f0 .L0 
   src/syscall_c.cpp:57     .text:00000000000000f0 .L0 
     /tmp/ccK7KMn2.s:296    .text:00000000000000f4 .L0 
   src/syscall_c.cpp:58     .text:00000000000000f4 .L0 
     /tmp/ccK7KMn2.s:301    .text:00000000000000f8 .L0 
     /tmp/ccK7KMn2.s:303    .text:00000000000000f8 .L0 
     /tmp/ccK7KMn2.s:309    .text:0000000000000100 .L0 
   src/syscall_c.cpp:60     .text:0000000000000100 .L0 
     /tmp/ccK7KMn2.s:314    .text:0000000000000104 .L0 
   src/syscall_c.cpp:61     .text:0000000000000104 .L0 
     /tmp/ccK7KMn2.s:320    .text:0000000000000108 .L0 
     /tmp/ccK7KMn2.s:322    .text:0000000000000108 .L0 
     /tmp/ccK7KMn2.s:325    .text:0000000000000110 .L0 
     /tmp/ccK7KMn2.s:326    .text:0000000000000110 .L0 
     /tmp/ccK7KMn2.s:328    .text:0000000000000114 .L0 
     /tmp/ccK7KMn2.s:330    .text:0000000000000118 .L0 
     /tmp/ccK7KMn2.s:336    .text:0000000000000118 _Z9sem_closeP4_sem
     /tmp/ccK7KMn2.s:339    .text:0000000000000118 .L0 
     /tmp/ccK7KMn2.s:341    .text:0000000000000118 .L0 
     /tmp/ccK7KMn2.s:342    .text:000000000000011c .L0 
     /tmp/ccK7KMn2.s:344    .text:0000000000000120 .L0 
     /tmp/ccK7KMn2.s:346    .text:0000000000000124 .L0 
     /tmp/ccK7KMn2.s:349    .text:0000000000000124 .L0 
     /tmp/ccK7KMn2.s:350    .text:0000000000000124 .L0 
     /tmp/ccK7KMn2.s:351    .text:0000000000000124 .L0 
   src/syscall_c.cpp:68     .text:0000000000000124 .L0 
     /tmp/ccK7KMn2.s:357    .text:0000000000000128 .L0 
     /tmp/ccK7KMn2.s:359    .text:0000000000000128 .L0 
     /tmp/ccK7KMn2.s:365    .text:0000000000000130 .L0 
   src/syscall_c.cpp:70     .text:0000000000000130 .L0 
     /tmp/ccK7KMn2.s:370    .text:0000000000000134 .L0 
   src/syscall_c.cpp:71     .text:0000000000000134 .L0 
     /tmp/ccK7KMn2.s:376    .text:0000000000000138 .L0 
     /tmp/ccK7KMn2.s:378    .text:0000000000000138 .L0 
     /tmp/ccK7KMn2.s:381    .text:0000000000000140 .L0 
     /tmp/ccK7KMn2.s:382    .text:0000000000000140 .L0 
     /tmp/ccK7KMn2.s:384    .text:0000000000000144 .L0 
     /tmp/ccK7KMn2.s:386    .text:0000000000000148 .L0 
     /tmp/ccK7KMn2.s:392    .text:0000000000000148 _Z8sem_waitP4_sem
     /tmp/ccK7KMn2.s:395    .text:0000000000000148 .L0 
     /tmp/ccK7KMn2.s:397    .text:0000000000000148 .L0 
     /tmp/ccK7KMn2.s:398    .text:000000000000014c .L0 
     /tmp/ccK7KMn2.s:400    .text:0000000000000150 .L0 
     /tmp/ccK7KMn2.s:402    .text:0000000000000154 .L0 
     /tmp/ccK7KMn2.s:405    .text:0000000000000154 .L0 
     /tmp/ccK7KMn2.s:406    .text:0000000000000154 .L0 
     /tmp/ccK7KMn2.s:407    .text:0000000000000154 .L0 
   src/syscall_c.cpp:78     .text:0000000000000154 .L0 
     /tmp/ccK7KMn2.s:413    .text:0000000000000158 .L0 
     /tmp/ccK7KMn2.s:415    .text:0000000000000158 .L0 
     /tmp/ccK7KMn2.s:421    .text:0000000000000160 .L0 
   src/syscall_c.cpp:80     .text:0000000000000160 .L0 
     /tmp/ccK7KMn2.s:426    .text:0000000000000164 .L0 
   src/syscall_c.cpp:81     .text:0000000000000164 .L0 
     /tmp/ccK7KMn2.s:432    .text:0000000000000168 .L0 
GAS LISTING /tmp/ccK7KMn2.s 			page 20


     /tmp/ccK7KMn2.s:434    .text:0000000000000168 .L0 
     /tmp/ccK7KMn2.s:437    .text:0000000000000170 .L0 
     /tmp/ccK7KMn2.s:438    .text:0000000000000170 .L0 
     /tmp/ccK7KMn2.s:440    .text:0000000000000174 .L0 
     /tmp/ccK7KMn2.s:442    .text:0000000000000178 .L0 
     /tmp/ccK7KMn2.s:448    .text:0000000000000178 _Z10sem_signalP4_sem
     /tmp/ccK7KMn2.s:451    .text:0000000000000178 .L0 
     /tmp/ccK7KMn2.s:453    .text:0000000000000178 .L0 
     /tmp/ccK7KMn2.s:454    .text:000000000000017c .L0 
     /tmp/ccK7KMn2.s:456    .text:0000000000000180 .L0 
     /tmp/ccK7KMn2.s:458    .text:0000000000000184 .L0 
     /tmp/ccK7KMn2.s:461    .text:0000000000000184 .L0 
     /tmp/ccK7KMn2.s:462    .text:0000000000000184 .L0 
     /tmp/ccK7KMn2.s:463    .text:0000000000000184 .L0 
   src/syscall_c.cpp:88     .text:0000000000000184 .L0 
     /tmp/ccK7KMn2.s:469    .text:0000000000000188 .L0 
     /tmp/ccK7KMn2.s:471    .text:0000000000000188 .L0 
     /tmp/ccK7KMn2.s:477    .text:0000000000000190 .L0 
   src/syscall_c.cpp:90     .text:0000000000000190 .L0 
     /tmp/ccK7KMn2.s:482    .text:0000000000000194 .L0 
   src/syscall_c.cpp:91     .text:0000000000000194 .L0 
     /tmp/ccK7KMn2.s:488    .text:0000000000000198 .L0 
     /tmp/ccK7KMn2.s:490    .text:0000000000000198 .L0 
     /tmp/ccK7KMn2.s:493    .text:00000000000001a0 .L0 
     /tmp/ccK7KMn2.s:494    .text:00000000000001a0 .L0 
     /tmp/ccK7KMn2.s:496    .text:00000000000001a4 .L0 
     /tmp/ccK7KMn2.s:498    .text:00000000000001a8 .L0 
     /tmp/ccK7KMn2.s:504    .text:00000000000001a8 _Z10sem_wait_nP4_semj
     /tmp/ccK7KMn2.s:507    .text:00000000000001a8 .L0 
     /tmp/ccK7KMn2.s:509    .text:00000000000001a8 .L0 
     /tmp/ccK7KMn2.s:510    .text:00000000000001ac .L0 
     /tmp/ccK7KMn2.s:512    .text:00000000000001b0 .L0 
     /tmp/ccK7KMn2.s:514    .text:00000000000001b4 .L0 
     /tmp/ccK7KMn2.s:517    .text:00000000000001b4 .L0 
     /tmp/ccK7KMn2.s:518    .text:00000000000001b4 .L0 
     /tmp/ccK7KMn2.s:519    .text:00000000000001b4 .L0 
   src/syscall_c.cpp:99     .text:00000000000001b4 .L0 
     /tmp/ccK7KMn2.s:525    .text:00000000000001b8 .L0 
   src/syscall_c.cpp:100    .text:00000000000001b8 .L0 
     /tmp/ccK7KMn2.s:530    .text:00000000000001bc .L0 
     /tmp/ccK7KMn2.s:532    .text:00000000000001bc .L0 
     /tmp/ccK7KMn2.s:538    .text:00000000000001c4 .L0 
   src/syscall_c.cpp:102    .text:00000000000001c4 .L0 
     /tmp/ccK7KMn2.s:543    .text:00000000000001c8 .L0 
   src/syscall_c.cpp:103    .text:00000000000001c8 .L0 
     /tmp/ccK7KMn2.s:549    .text:00000000000001cc .L0 
     /tmp/ccK7KMn2.s:551    .text:00000000000001cc .L0 
     /tmp/ccK7KMn2.s:554    .text:00000000000001d4 .L0 
     /tmp/ccK7KMn2.s:555    .text:00000000000001d4 .L0 
     /tmp/ccK7KMn2.s:557    .text:00000000000001d8 .L0 
     /tmp/ccK7KMn2.s:559    .text:00000000000001dc .L0 
     /tmp/ccK7KMn2.s:565    .text:00000000000001dc _Z12sem_signal_nP4_semj
     /tmp/ccK7KMn2.s:568    .text:00000000000001dc .L0 
     /tmp/ccK7KMn2.s:570    .text:00000000000001dc .L0 
     /tmp/ccK7KMn2.s:571    .text:00000000000001e0 .L0 
     /tmp/ccK7KMn2.s:573    .text:00000000000001e4 .L0 
     /tmp/ccK7KMn2.s:575    .text:00000000000001e8 .L0 
GAS LISTING /tmp/ccK7KMn2.s 			page 21


     /tmp/ccK7KMn2.s:578    .text:00000000000001e8 .L0 
     /tmp/ccK7KMn2.s:579    .text:00000000000001e8 .L0 
     /tmp/ccK7KMn2.s:580    .text:00000000000001e8 .L0 
   src/syscall_c.cpp:111    .text:00000000000001e8 .L0 
     /tmp/ccK7KMn2.s:586    .text:00000000000001ec .L0 
   src/syscall_c.cpp:112    .text:00000000000001ec .L0 
     /tmp/ccK7KMn2.s:591    .text:00000000000001f0 .L0 
     /tmp/ccK7KMn2.s:593    .text:00000000000001f0 .L0 
     /tmp/ccK7KMn2.s:599    .text:00000000000001f8 .L0 
   src/syscall_c.cpp:114    .text:00000000000001f8 .L0 
     /tmp/ccK7KMn2.s:604    .text:00000000000001fc .L0 
   src/syscall_c.cpp:115    .text:00000000000001fc .L0 
     /tmp/ccK7KMn2.s:610    .text:0000000000000200 .L0 
     /tmp/ccK7KMn2.s:612    .text:0000000000000200 .L0 
     /tmp/ccK7KMn2.s:615    .text:0000000000000208 .L0 
     /tmp/ccK7KMn2.s:616    .text:0000000000000208 .L0 
     /tmp/ccK7KMn2.s:618    .text:000000000000020c .L0 
     /tmp/ccK7KMn2.s:620    .text:0000000000000210 .L0 
     /tmp/ccK7KMn2.s:626    .text:0000000000000210 _Z4getcv
     /tmp/ccK7KMn2.s:629    .text:0000000000000210 .L0 
     /tmp/ccK7KMn2.s:630    .text:0000000000000210 .L0 
     /tmp/ccK7KMn2.s:631    .text:0000000000000214 .L0 
     /tmp/ccK7KMn2.s:633    .text:0000000000000218 .L0 
     /tmp/ccK7KMn2.s:635    .text:000000000000021c .L0 
     /tmp/ccK7KMn2.s:638    .text:000000000000021c .L0 
     /tmp/ccK7KMn2.s:639    .text:000000000000021c .L0 
     /tmp/ccK7KMn2.s:640    .text:000000000000021c .L0 
     /tmp/ccK7KMn2.s:641    .text:000000000000021c .L0 
     /tmp/ccK7KMn2.s:647    .text:0000000000000224 .L0 
   src/syscall_c.cpp:123    .text:0000000000000224 .L0 
     /tmp/ccK7KMn2.s:652    .text:0000000000000228 .L0 
   src/syscall_c.cpp:124    .text:0000000000000228 .L0 
     /tmp/ccK7KMn2.s:658    .text:000000000000022c .L0 
     /tmp/ccK7KMn2.s:660    .text:000000000000022c .L0 
     /tmp/ccK7KMn2.s:662    .text:0000000000000234 .L0 
     /tmp/ccK7KMn2.s:663    .text:0000000000000234 .L0 
     /tmp/ccK7KMn2.s:665    .text:0000000000000238 .L0 
     /tmp/ccK7KMn2.s:667    .text:000000000000023c .L0 
     /tmp/ccK7KMn2.s:673    .text:000000000000023c _Z4putcc
     /tmp/ccK7KMn2.s:676    .text:000000000000023c .L0 
     /tmp/ccK7KMn2.s:678    .text:000000000000023c .L0 
     /tmp/ccK7KMn2.s:679    .text:0000000000000240 .L0 
     /tmp/ccK7KMn2.s:681    .text:0000000000000244 .L0 
     /tmp/ccK7KMn2.s:683    .text:0000000000000248 .L0 
     /tmp/ccK7KMn2.s:686    .text:0000000000000248 .L0 
     /tmp/ccK7KMn2.s:687    .text:0000000000000248 .L0 
   src/syscall_c.cpp:130    .text:0000000000000248 .L0 
     /tmp/ccK7KMn2.s:693    .text:000000000000024c .L0 
     /tmp/ccK7KMn2.s:695    .text:000000000000024c .L0 
     /tmp/ccK7KMn2.s:701    .text:0000000000000254 .L0 
   src/syscall_c.cpp:132    .text:0000000000000254 .L0 
     /tmp/ccK7KMn2.s:707    .text:0000000000000258 .L0 
     /tmp/ccK7KMn2.s:708    .text:000000000000025c .L0 
     /tmp/ccK7KMn2.s:709    .text:000000000000025c .L0 
     /tmp/ccK7KMn2.s:711    .text:0000000000000260 .L0 
     /tmp/ccK7KMn2.s:713    .text:0000000000000264 .L0 
     /tmp/ccK7KMn2.s:719    .text:0000000000000264 _Z10time_sleepm
GAS LISTING /tmp/ccK7KMn2.s 			page 22


     /tmp/ccK7KMn2.s:722    .text:0000000000000264 .L0 
     /tmp/ccK7KMn2.s:724    .text:0000000000000264 .L0 
     /tmp/ccK7KMn2.s:725    .text:0000000000000268 .L0 
     /tmp/ccK7KMn2.s:727    .text:000000000000026c .L0 
     /tmp/ccK7KMn2.s:729    .text:0000000000000270 .L0 
     /tmp/ccK7KMn2.s:732    .text:0000000000000270 .L0 
     /tmp/ccK7KMn2.s:733    .text:0000000000000270 .L0 
     /tmp/ccK7KMn2.s:734    .text:0000000000000270 .L0 
   src/syscall_c.cpp:138    .text:0000000000000270 .L0 
     /tmp/ccK7KMn2.s:740    .text:0000000000000274 .L0 
     /tmp/ccK7KMn2.s:742    .text:0000000000000274 .L0 
     /tmp/ccK7KMn2.s:748    .text:000000000000027c .L0 
   src/syscall_c.cpp:140    .text:000000000000027c .L0 
     /tmp/ccK7KMn2.s:753    .text:0000000000000280 .L0 
   src/syscall_c.cpp:141    .text:0000000000000280 .L0 
     /tmp/ccK7KMn2.s:759    .text:0000000000000284 .L0 
     /tmp/ccK7KMn2.s:761    .text:0000000000000284 .L0 
     /tmp/ccK7KMn2.s:764    .text:000000000000028c .L0 
     /tmp/ccK7KMn2.s:765    .text:000000000000028c .L0 
     /tmp/ccK7KMn2.s:767    .text:0000000000000290 .L0 
     /tmp/ccK7KMn2.s:769    .text:0000000000000294 .L0 
     /tmp/ccK7KMn2.s:775    .text:0000000000000294 .L0 
     /tmp/ccK7KMn2.s:1441   .debug_abbrev:0000000000000000 .Ldebug_abbrev0
     /tmp/ccK7KMn2.s:2046   .debug_str:0000000000000066 .LASF58
     /tmp/ccK7KMn2.s:2150   .debug_str:00000000000003c9 .LASF59
     /tmp/ccK7KMn2.s:2114   .debug_str:00000000000002db .LASF60
     /tmp/ccK7KMn2.s:8      .text:0000000000000000 .Ltext0
     /tmp/ccK7KMn2.s:772    .text:0000000000000294 .Letext0
     /tmp/ccK7KMn2.s:2030   .debug_line:0000000000000000 .Ldebug_line0
     /tmp/ccK7KMn2.s:2104   .debug_str:00000000000002a2 .LASF0
     /tmp/ccK7KMn2.s:2082   .debug_str:0000000000000214 .LASF1
     /tmp/ccK7KMn2.s:2072   .debug_str:00000000000001d5 .LASF2
     /tmp/ccK7KMn2.s:2050   .debug_str:0000000000000138 .LASF4
     /tmp/ccK7KMn2.s:2080   .debug_str:0000000000000202 .LASF3
     /tmp/ccK7KMn2.s:2036   .debug_str:0000000000000021 .LASF5
     /tmp/ccK7KMn2.s:2112   .debug_str:00000000000002d4 .LASF6
     /tmp/ccK7KMn2.s:2034   .debug_str:000000000000000e .LASF7
     /tmp/ccK7KMn2.s:2064   .debug_str:0000000000000194 .LASF8
     /tmp/ccK7KMn2.s:2042   .debug_str:0000000000000050 .LASF9
     /tmp/ccK7KMn2.s:2048   .debug_str:000000000000012a .LASF10
     /tmp/ccK7KMn2.s:2152   .debug_str:00000000000003db .LASF11
     /tmp/ccK7KMn2.s:2066   .debug_str:00000000000001a7 .LASF12
     /tmp/ccK7KMn2.s:2140   .debug_str:0000000000000395 .LASF13
     /tmp/ccK7KMn2.s:2122   .debug_str:000000000000032b .LASF14
     /tmp/ccK7KMn2.s:2086   .debug_str:0000000000000230 .LASF15
     /tmp/ccK7KMn2.s:2058   .debug_str:0000000000000164 .LASF16
     /tmp/ccK7KMn2.s:2118   .debug_str:000000000000030c .LASF17
     /tmp/ccK7KMn2.s:2120   .debug_str:0000000000000322 .LASF18
     /tmp/ccK7KMn2.s:2132   .debug_str:000000000000035e .LASF20
     /tmp/ccK7KMn2.s:2044   .debug_str:0000000000000060 .LASF19
     /tmp/ccK7KMn2.s:2096   .debug_str:0000000000000281 .LASF21
     /tmp/ccK7KMn2.s:2106   .debug_str:00000000000002af .LASF25
     /tmp/ccK7KMn2.s:2134   .debug_str:0000000000000366 .LASF27
     /tmp/ccK7KMn2.s:720    .text:0000000000000264 .LFB13
     /tmp/ccK7KMn2.s:770    .text:0000000000000294 .LFE13
     /tmp/ccK7KMn2.s:1807   .debug_loc:0000000000000000 .LLST18
     /tmp/ccK7KMn2.s:2100   .debug_str:000000000000028f .LASF22
GAS LISTING /tmp/ccK7KMn2.s 			page 23


     /tmp/ccK7KMn2.s:2074   .debug_str:00000000000001e3 .LASF23
     /tmp/ccK7KMn2.s:1821   .debug_loc:0000000000000039 .LLST19
     /tmp/ccK7KMn2.s:2130   .debug_str:0000000000000359 .LASF43
     /tmp/ccK7KMn2.s:2084   .debug_str:0000000000000227 .LASF45
     /tmp/ccK7KMn2.s:674    .text:000000000000023c .LFB12
     /tmp/ccK7KMn2.s:714    .text:0000000000000264 .LFE12
     /tmp/ccK7KMn2.s:2108   .debug_str:00000000000002ba .LASF24
     /tmp/ccK7KMn2.s:2056   .debug_str:000000000000015f .LASF26
     /tmp/ccK7KMn2.s:2146   .debug_str:00000000000003bb .LASF28
     /tmp/ccK7KMn2.s:627    .text:0000000000000210 .LFB11
     /tmp/ccK7KMn2.s:668    .text:000000000000023c .LFE11
     /tmp/ccK7KMn2.s:2052   .debug_str:000000000000013f .LASF29
     /tmp/ccK7KMn2.s:2116   .debug_str:00000000000002f4 .LASF30
     /tmp/ccK7KMn2.s:566    .text:00000000000001dc .LFB10
     /tmp/ccK7KMn2.s:621    .text:0000000000000210 .LFE10
     /tmp/ccK7KMn2.s:1828   .debug_loc:000000000000005c .LLST16
     /tmp/ccK7KMn2.s:1842   .debug_loc:0000000000000095 .LLST17
     /tmp/ccK7KMn2.s:2070   .debug_str:00000000000001ca .LASF31
     /tmp/ccK7KMn2.s:2040   .debug_str:000000000000003a .LASF32
     /tmp/ccK7KMn2.s:505    .text:00000000000001a8 .LFB9
     /tmp/ccK7KMn2.s:560    .text:00000000000001dc .LFE9
     /tmp/ccK7KMn2.s:1849   .debug_loc:00000000000000b8 .LLST14
     /tmp/ccK7KMn2.s:1863   .debug_loc:00000000000000f1 .LLST15
     /tmp/ccK7KMn2.s:2090   .debug_str:0000000000000243 .LASF33
     /tmp/ccK7KMn2.s:2110   .debug_str:00000000000002bf .LASF34
     /tmp/ccK7KMn2.s:449    .text:0000000000000178 .LFB8
     /tmp/ccK7KMn2.s:499    .text:00000000000001a8 .LFE8
     /tmp/ccK7KMn2.s:1870   .debug_loc:0000000000000114 .LLST12
     /tmp/ccK7KMn2.s:1884   .debug_loc:000000000000014d .LLST13
     /tmp/ccK7KMn2.s:2098   .debug_str:0000000000000286 .LASF35
     /tmp/ccK7KMn2.s:2038   .debug_str:0000000000000028 .LASF36
     /tmp/ccK7KMn2.s:393    .text:0000000000000148 .LFB7
     /tmp/ccK7KMn2.s:443    .text:0000000000000178 .LFE7
     /tmp/ccK7KMn2.s:1891   .debug_loc:0000000000000170 .LLST10
     /tmp/ccK7KMn2.s:1905   .debug_loc:00000000000001a9 .LLST11
     /tmp/ccK7KMn2.s:2078   .debug_str:00000000000001f8 .LASF37
     /tmp/ccK7KMn2.s:2054   .debug_str:000000000000014c .LASF38
     /tmp/ccK7KMn2.s:337    .text:0000000000000118 .LFB6
     /tmp/ccK7KMn2.s:387    .text:0000000000000148 .LFE6
     /tmp/ccK7KMn2.s:2088   .debug_str:000000000000023c .LASF39
     /tmp/ccK7KMn2.s:1912   .debug_loc:00000000000001cc .LLST8
     /tmp/ccK7KMn2.s:1926   .debug_loc:0000000000000205 .LLST9
     /tmp/ccK7KMn2.s:2076   .debug_str:00000000000001ef .LASF40
     /tmp/ccK7KMn2.s:2068   .debug_str:00000000000001b6 .LASF41
     /tmp/ccK7KMn2.s:276    .text:00000000000000e4 .LFB5
     /tmp/ccK7KMn2.s:331    .text:0000000000000118 .LFE5
     /tmp/ccK7KMn2.s:1933   .debug_loc:0000000000000228 .LLST6
     /tmp/ccK7KMn2.s:2126   .debug_str:0000000000000344 .LASF42
     /tmp/ccK7KMn2.s:1947   .debug_loc:0000000000000261 .LLST7
     /tmp/ccK7KMn2.s:2128   .debug_str:0000000000000349 .LASF44
     /tmp/ccK7KMn2.s:2060   .debug_str:000000000000017a .LASF46
     /tmp/ccK7KMn2.s:238    .text:00000000000000c0 .LFB4
     /tmp/ccK7KMn2.s:270    .text:00000000000000e4 .LFE4
     /tmp/ccK7KMn2.s:2142   .debug_str:00000000000003a5 .LASF47
     /tmp/ccK7KMn2.s:2138   .debug_str:0000000000000384 .LASF48
     /tmp/ccK7KMn2.s:190    .text:0000000000000094 .LFB3
     /tmp/ccK7KMn2.s:232    .text:00000000000000c0 .LFE3
GAS LISTING /tmp/ccK7KMn2.s 			page 24


     /tmp/ccK7KMn2.s:1954   .debug_loc:0000000000000284 .LLST5
     /tmp/ccK7KMn2.s:2136   .debug_str:0000000000000376 .LASF49
     /tmp/ccK7KMn2.s:2092   .debug_str:000000000000024e .LASF50
     /tmp/ccK7KMn2.s:124    .text:000000000000005c .LFB2
     /tmp/ccK7KMn2.s:184    .text:0000000000000094 .LFE2
     /tmp/ccK7KMn2.s:1961   .debug_loc:00000000000002a7 .LLST3
     /tmp/ccK7KMn2.s:2094   .debug_str:0000000000000273 .LASF51
     /tmp/ccK7KMn2.s:1975   .debug_loc:00000000000002e0 .LLST4
     /tmp/ccK7KMn2.s:2124   .debug_str:000000000000033b .LASF52
     /tmp/ccK7KMn2.s:2032   .debug_str:0000000000000000 .LASF53
     /tmp/ccK7KMn2.s:68     .text:000000000000002c .LFB1
     /tmp/ccK7KMn2.s:118    .text:000000000000005c .LFE1
     /tmp/ccK7KMn2.s:2062   .debug_str:000000000000018f .LASF54
     /tmp/ccK7KMn2.s:1982   .debug_loc:0000000000000303 .LLST1
     /tmp/ccK7KMn2.s:1996   .debug_loc:000000000000033c .LLST2
     /tmp/ccK7KMn2.s:2144   .debug_str:00000000000003b1 .LASF55
     /tmp/ccK7KMn2.s:2102   .debug_str:0000000000000294 .LASF56
     /tmp/ccK7KMn2.s:13     .text:0000000000000000 .LFB0
     /tmp/ccK7KMn2.s:62     .text:000000000000002c .LFE0
     /tmp/ccK7KMn2.s:2148   .debug_str:00000000000003c4 .LASF57
     /tmp/ccK7KMn2.s:2003   .debug_loc:000000000000035f .LLST0
     /tmp/ccK7KMn2.s:723    .text:0000000000000264 .LVL43
     /tmp/ccK7KMn2.s:757    .text:0000000000000284 .LVL45
     /tmp/ccK7KMn2.s:762    .text:0000000000000288 .LVL46
     /tmp/ccK7KMn2.s:569    .text:00000000000001dc .LVL35
     /tmp/ccK7KMn2.s:608    .text:0000000000000200 .LVL37
     /tmp/ccK7KMn2.s:613    .text:0000000000000204 .LVL38
     /tmp/ccK7KMn2.s:508    .text:00000000000001a8 .LVL31
     /tmp/ccK7KMn2.s:547    .text:00000000000001cc .LVL33
     /tmp/ccK7KMn2.s:552    .text:00000000000001d0 .LVL34
     /tmp/ccK7KMn2.s:452    .text:0000000000000178 .LVL27
     /tmp/ccK7KMn2.s:486    .text:0000000000000198 .LVL29
     /tmp/ccK7KMn2.s:491    .text:000000000000019c .LVL30
     /tmp/ccK7KMn2.s:396    .text:0000000000000148 .LVL23
     /tmp/ccK7KMn2.s:430    .text:0000000000000168 .LVL25
     /tmp/ccK7KMn2.s:435    .text:000000000000016c .LVL26
     /tmp/ccK7KMn2.s:340    .text:0000000000000118 .LVL19
     /tmp/ccK7KMn2.s:374    .text:0000000000000138 .LVL21
     /tmp/ccK7KMn2.s:379    .text:000000000000013c .LVL22
     /tmp/ccK7KMn2.s:279    .text:00000000000000e4 .LVL15
     /tmp/ccK7KMn2.s:318    .text:0000000000000108 .LVL17
     /tmp/ccK7KMn2.s:323    .text:000000000000010c .LVL18
     /tmp/ccK7KMn2.s:219    .text:00000000000000b0 .LVL12
     /tmp/ccK7KMn2.s:224    .text:00000000000000b4 .LVL13
     /tmp/ccK7KMn2.s:127    .text:000000000000005c .LVL7
     /tmp/ccK7KMn2.s:171    .text:0000000000000084 .LVL9
     /tmp/ccK7KMn2.s:176    .text:0000000000000088 .LVL10
     /tmp/ccK7KMn2.s:71     .text:000000000000002c .LVL3
     /tmp/ccK7KMn2.s:105    .text:000000000000004c .LVL5
     /tmp/ccK7KMn2.s:110    .text:0000000000000050 .LVL6
     /tmp/ccK7KMn2.s:17     .text:0000000000000000 .LVL0
     /tmp/ccK7KMn2.s:51     .text:0000000000000020 .LVL2
     /tmp/ccK7KMn2.s:776    .debug_info:0000000000000000 .Ldebug_info0

NO UNDEFINED SYMBOLS
