GAS LISTING /tmp/ccbQ1MVU.s 			page 1


   1              		.file	"syscall_c.cpp"
   2              		.option nopic
   3              		.option norelax
   4              		.attribute arch, "rv64i2p0_m2p0_a2p0"
   5              		.attribute unaligned_access, 0
   6              		.attribute stack_align, 16
   7              		.text
   8              	.Ltext0:
   9              		.align	2
  10              		.globl	_Z9mem_allocm
  12              	_Z9mem_allocm:
  13              	.LFB0:
  14              		.file 1 "src/syscall_c.cpp"
   1:src/syscall_c.cpp **** #include "../h/syscall_c.hpp"
   2:src/syscall_c.cpp **** #include "../lib/hw.h"
   3:src/syscall_c.cpp **** 
   4:src/syscall_c.cpp **** extern "C" void interrupt();
   5:src/syscall_c.cpp **** 
   6:src/syscall_c.cpp **** void* mem_alloc(size_t size) {
  15              		.loc 1 6 30
  16              		.cfi_startproc
  17              	.LVL0:
  18 0000 130101FF 		addi	sp,sp,-16
  19              		.cfi_def_cfa_offset 16
  20 0004 23348100 		sd	s0,8(sp)
  21              		.cfi_offset 8, -8
  22 0008 13040101 		addi	s0,sp,16
  23              		.cfi_def_cfa 8, 0
   7:src/syscall_c.cpp ****     //0x01 -> a0, not sure about the syntax
   8:src/syscall_c.cpp ****     //size -> a1, not sure about the syntax
   9:src/syscall_c.cpp ****     //uint64 code=0x01;
  10:src/syscall_c.cpp ****     //__asm__ volatile("mv a0, %0" : : "r" (code) );
  11:src/syscall_c.cpp ****     //__asm__ volatile("mv a1, %0" : : "r" (size) );
  12:src/syscall_c.cpp ****     //need to put interrupt address to stvec
  13:src/syscall_c.cpp ****     //ecall
  14:src/syscall_c.cpp ****     __asm__ volatile("csrw stvec, %0" : : "r" (&interrupt));
  24              		.loc 1 14 5
  25              		.loc 1 14 60 is_stmt 0
  26 000c 97070000 		lla	a5,interrupt
  26      93870700 
  27              	 #APP
  28              	# 14 "src/syscall_c.cpp" 1
  15              	    __asm__ volatile("ecall");
  29              		csrw stvec, a5
  30              	# 0 "" 2
  31              		.loc 1 15 5 is_stmt 1
  32              		.loc 1 15 30 is_stmt 0
  33              	# 15 "src/syscall_c.cpp" 1
  16              	    void* returnValue;
  34              		ecall
  35              	# 0 "" 2
  36              		.loc 1 16 5 is_stmt 1
  17:src/syscall_c.cpp ****     __asm__ volatile("mv %0, a1" : "=r" (returnValue));
  37              		.loc 1 17 5
  38              		.loc 1 17 55 is_stmt 0
  39              	# 17 "src/syscall_c.cpp" 1
  18              	    return returnValue;
GAS LISTING /tmp/ccbQ1MVU.s 			page 2


  40              		mv a0, a1
  41              	# 0 "" 2
  42              	.LVL1:
  43              		.loc 1 18 5 is_stmt 1
  19:src/syscall_c.cpp **** }
  44              		.loc 1 19 1 is_stmt 0
  45              	 #NO_APP
  46 0020 03348100 		ld	s0,8(sp)
  47              		.cfi_restore 8
  48              		.cfi_def_cfa 2, 16
  49 0024 13010101 		addi	sp,sp,16
  50              		.cfi_def_cfa_offset 0
  51 0028 67800000 		jr	ra
  52              		.cfi_endproc
  53              	.LFE0:
  55              		.align	2
  56              		.globl	_Z8mem_freePv
  58              	_Z8mem_freePv:
  59              	.LFB1:
  20:src/syscall_c.cpp **** 
  21:src/syscall_c.cpp **** int mem_free(void* addr) {
  60              		.loc 1 21 26 is_stmt 1
  61              		.cfi_startproc
  62              	.LVL2:
  63 002c 130101FF 		addi	sp,sp,-16
  64              		.cfi_def_cfa_offset 16
  65 0030 23348100 		sd	s0,8(sp)
  66              		.cfi_offset 8, -8
  67 0034 13040101 		addi	s0,sp,16
  68              		.cfi_def_cfa 8, 0
  22:src/syscall_c.cpp **** 
  23:src/syscall_c.cpp ****     //0x02 -> a0, not sure about the syntax
  24:src/syscall_c.cpp ****     //addr -> a1, not sure about the syntax
  25:src/syscall_c.cpp ****     // uint64 code=0x02;
  26:src/syscall_c.cpp ****     //__asm__ volatile("mv a0, %0" : : "r" (code) );
  27:src/syscall_c.cpp ****     //__asm__ volatile("mv a1, %0 " : : "r" (addr));
  28:src/syscall_c.cpp **** 
  29:src/syscall_c.cpp ****     //need to put interrupt address to stvec
  30:src/syscall_c.cpp ****     // ecall
  31:src/syscall_c.cpp **** 
  32:src/syscall_c.cpp ****     __asm__ volatile("csrw stvec, %0" : : "r" (&interrupt) );
  69              		.loc 1 32 5
  70              		.loc 1 32 61 is_stmt 0
  71 0038 97070000 		lla	a5,interrupt
  71      93870700 
  72              	 #APP
  73              	# 32 "src/syscall_c.cpp" 1
  33              	    __asm__ volatile("ecall");
  74              		csrw stvec, a5
  75              	# 0 "" 2
  76              		.loc 1 33 5 is_stmt 1
  77              		.loc 1 33 30 is_stmt 0
  78              	# 33 "src/syscall_c.cpp" 1
  34              	    uint64 returnValue;
  79              		ecall
  80              	# 0 "" 2
  81              		.loc 1 34 5 is_stmt 1
GAS LISTING /tmp/ccbQ1MVU.s 			page 3


  35:src/syscall_c.cpp ****     __asm__ volatile("mv %0, a1" : "=r" (returnValue));
  82              		.loc 1 35 5
  83              		.loc 1 35 55 is_stmt 0
  84              	# 35 "src/syscall_c.cpp" 1
  36              	    return returnValue;
  85              		mv a0, a1
  86              	# 0 "" 2
  87              	.LVL3:
  88              		.loc 1 36 5 is_stmt 1
  37:src/syscall_c.cpp **** }...
  89              		.loc 1 37 1 is_stmt 0
  90              	 #NO_APP
  91 004c 1B050500 		sext.w	a0,a0
  92              	.LVL4:
  93 0050 03348100 		ld	s0,8(sp)
  94              		.cfi_restore 8
  95              		.cfi_def_cfa 2, 16
  96 0054 13010101 		addi	sp,sp,16
  97              		.cfi_def_cfa_offset 0
  98 0058 67800000 		jr	ra
  99              		.cfi_endproc
 100              	.LFE1:
 102              	.Letext0:
 103              		.file 2 "src/../h/../lib/hw.h"
GAS LISTING /tmp/ccbQ1MVU.s 			page 4

