GAS LISTING /tmp/ccU2n0RM.s 			page 1


   1              		.file	"TCB.cpp"
   2              		.option nopic
   3              		.option norelax
   4              		.attribute arch, "rv64i2p0_m2p0_a2p0"
   5              		.attribute unaligned_access, 0
   6              		.attribute stack_align, 16
   7              		.text
   8              	.Ltext0:
   9              		.align	2
  10              		.globl	_ZN3TCBC2EPFvvE
  12              	_ZN3TCBC2EPFvvE:
  13              	.LFB22:
  14              		.file 1 "src/TCB.cpp"
   1:src/TCB.cpp   **** #include "../h/TCB.hpp"
   2:src/TCB.cpp   **** #include "../h/Riscv.hpp"
   3:src/TCB.cpp   **** #include "../h/Scheduler.hpp"
   4:src/TCB.cpp   **** 
   5:src/TCB.cpp   **** TCB *TCB::running=nullptr;
   6:src/TCB.cpp   **** 
   7:src/TCB.cpp   ****  TCB::TCB(Body body):
  15              		.loc 1 7 2
  16              		.cfi_startproc
  17              	.LVL0:
  18 0000 130101FE 		addi	sp,sp,-32
  19              		.cfi_def_cfa_offset 32
  20 0004 233C1100 		sd	ra,24(sp)
  21 0008 23388100 		sd	s0,16(sp)
  22 000c 23349100 		sd	s1,8(sp)
  23 0010 23302101 		sd	s2,0(sp)
  24              		.cfi_offset 1, -8
  25              		.cfi_offset 8, -16
  26              		.cfi_offset 9, -24
  27              		.cfi_offset 18, -32
  28 0014 13040102 		addi	s0,sp,32
  29              		.cfi_def_cfa 8, 0
  30 0018 93040500 		mv	s1,a0
  31 001c 13890500 		mv	s2,a1
  32              	.LBB4:
   8:src/TCB.cpp   ****     body(body),
   9:src/TCB.cpp   ****     stack(body!=nullptr ? new uint64[STACK_SIZE] : nullptr),
  10:src/TCB.cpp   ****     context({
  11:src/TCB.cpp   ****         body!=nullptr ? (uint64) body : 0,
  12:src/TCB.cpp   ****         stack!=nullptr ? (uint64) &stack[STACK_SIZE] : 0
  13:src/TCB.cpp   ****     }),
  14:src/TCB.cpp   ****     finished(false)
  33              		.loc 1 14 19 is_stmt 0
  34 0020 2330B500 		sd	a1,0(a0)
   9:src/TCB.cpp   ****     context({
  35              		.loc 1 9 25
  36 0024 63820506 		beqz	a1,.L6
   9:src/TCB.cpp   ****     context({
  37              		.loc 1 9 48 discriminator 1
  38 0028 37250000 		li	a0,8192
  39              	.LVL1:
  40 002c 97000000 		call	_Znam
  40      E7800000 
  41              	.LVL2:
GAS LISTING /tmp/ccU2n0RM.s 			page 2


  42              	.L2:
  43              		.loc 1 14 19
  44 0034 23B4A400 		sd	a0,8(s1)
  11:src/TCB.cpp   ****         stack!=nullptr ? (uint64) &stack[STACK_SIZE] : 0
  45              		.loc 1 11 23
  46 0038 630C0904 		beqz	s2,.L7
  11:src/TCB.cpp   ****         stack!=nullptr ? (uint64) &stack[STACK_SIZE] : 0
  47              		.loc 1 11 23 discriminator 1
  48 003c 93070900 		mv	a5,s2
  49              	.L3:
  50              		.loc 1 14 19
  51 0040 23B8F400 		sd	a5,16(s1)
  12:src/TCB.cpp   ****     }),
  52              		.loc 1 12 24
  53 0044 630A0504 		beqz	a0,.L8
  12:src/TCB.cpp   ****     }),
  54              		.loc 1 12 35 discriminator 1
  55 0048 B7270000 		li	a5,8192
  56 004c 3305F500 		add	a0,a0,a5
  57              	.L4:
  58              		.loc 1 14 19
  59 0050 23BCA400 		sd	a0,24(s1)
  60 0054 23800402 		sb	zero,32(s1)
  15:src/TCB.cpp   **** {
  16:src/TCB.cpp   ****     if(body!=nullptr) Scheduler::getInstance().put(this);
  61              		.loc 1 16 5 is_stmt 1
  62 0058 630C0900 		beqz	s2,.L1
  63              		.loc 1 16 23 discriminator 1
  64              		.loc 1 16 46 is_stmt 0 discriminator 1
  65 005c 97000000 		call	_ZN9Scheduler11getInstanceEv
  65      E7800000 
  66              	.LVL3:
  67              		.loc 1 16 56 discriminator 1
  68 0064 13850400 		mv	a0,s1
  69 0068 97000000 		call	_ZN9Scheduler3putEP3TCB
  69      E7800000 
  70              	.LVL4:
  71              	.L1:
  72              	.LBE4:
  17:src/TCB.cpp   **** }
  73              		.loc 1 17 1
  74 0070 83308101 		ld	ra,24(sp)
  75              		.cfi_remember_state
  76              		.cfi_restore 1
  77 0074 03340101 		ld	s0,16(sp)
  78              		.cfi_restore 8
  79              		.cfi_def_cfa 2, 32
  80 0078 83348100 		ld	s1,8(sp)
  81              		.cfi_restore 9
  82              	.LVL5:
  83 007c 03390100 		ld	s2,0(sp)
  84              		.cfi_restore 18
  85              	.LVL6:
  86 0080 13010102 		addi	sp,sp,32
  87              		.cfi_def_cfa_offset 0
  88 0084 67800000 		jr	ra
  89              	.LVL7:
GAS LISTING /tmp/ccU2n0RM.s 			page 3


  90              	.L6:
  91              		.cfi_restore_state
  92              	.LBB5:
   9:src/TCB.cpp   ****     context({
  93              		.loc 1 9 25
  94 0088 13050000 		li	a0,0
  95 008c 6FF09FFA 		j	.L2
  96              	.LVL8:
  97              	.L7:
  11:src/TCB.cpp   ****         stack!=nullptr ? (uint64) &stack[STACK_SIZE] : 0
  98              		.loc 1 11 23
  99 0090 93070000 		li	a5,0
 100 0094 6FF0DFFA 		j	.L3
 101              	.L8:
  12:src/TCB.cpp   ****     }),
 102              		.loc 1 12 24
 103 0098 13050000 		li	a0,0
 104 009c 6FF05FFB 		j	.L4
 105              	.LBE5:
 106              		.cfi_endproc
 107              	.LFE22:
 109              		.globl	_ZN3TCBC1EPFvvE
 110              		.set	_ZN3TCBC1EPFvvE,_ZN3TCBC2EPFvvE
 111              		.align	2
 112              		.globl	_ZN3TCB13create_threadEPFvvE
 114              	_ZN3TCB13create_threadEPFvvE:
 115              	.LFB24:
  18:src/TCB.cpp   **** 
  19:src/TCB.cpp   **** TCB *TCB::create_thread(Body body) {
 116              		.loc 1 19 36 is_stmt 1
 117              		.cfi_startproc
 118              		.cfi_personality 0x9b,DW.ref.__gxx_personality_v0
 119              		.cfi_lsda 0x1b,.LLSDA24
 120              	.LVL9:
 121 00a0 130101FE 		addi	sp,sp,-32
 122              		.cfi_def_cfa_offset 32
 123 00a4 233C1100 		sd	ra,24(sp)
 124 00a8 23388100 		sd	s0,16(sp)
 125 00ac 23349100 		sd	s1,8(sp)
 126 00b0 23302101 		sd	s2,0(sp)
 127              		.cfi_offset 1, -8
 128              		.cfi_offset 8, -16
 129              		.cfi_offset 9, -24
 130              		.cfi_offset 18, -32
 131 00b4 13040102 		addi	s0,sp,32
 132              		.cfi_def_cfa 8, 0
 133 00b8 13090500 		mv	s2,a0
  20:src/TCB.cpp   ****     return new TCB(body);
 134              		.loc 1 20 5
 135              		.loc 1 20 24 is_stmt 0
 136 00bc 13058002 		li	a0,40
 137              	.LVL10:
 138              	.LEHB0:
 139 00c0 97000000 		call	_Znwm
 139      E7800000 
 140              	.LVL11:
 141              	.LEHE0:
GAS LISTING /tmp/ccU2n0RM.s 			page 4


 142 00c8 93040500 		mv	s1,a0
 143 00cc 93050900 		mv	a1,s2
 144              	.LEHB1:
 145 00d0 97000000 		call	_ZN3TCBC1EPFvvE
 145      E7800000 
 146              	.LVL12:
 147              	.LEHE1:
 148 00d8 6F000002 		j	.L15
 149              	.L12:
 150 00dc 13090500 		mv	s2,a0
 151              	.LVL13:
 152 00e0 13850400 		mv	a0,s1
 153 00e4 97000000 		call	_ZdlPv
 153      E7800000 
 154              	.LVL14:
 155 00ec 13050900 		mv	a0,s2
 156              	.LEHB2:
 157 00f0 97000000 		call	_Unwind_Resume
 157      E7800000 
 158              	.LVL15:
 159              	.LEHE2:
 160              	.L15:
  21:src/TCB.cpp   **** }
 161              		.loc 1 21 1
 162 00f8 13850400 		mv	a0,s1
 163 00fc 83308101 		ld	ra,24(sp)
 164              		.cfi_restore 1
 165 0100 03340101 		ld	s0,16(sp)
 166              		.cfi_restore 8
 167              		.cfi_def_cfa 2, 32
 168 0104 83348100 		ld	s1,8(sp)
 169              		.cfi_restore 9
 170 0108 03390100 		ld	s2,0(sp)
 171              		.cfi_restore 18
 172              	.LVL16:
 173 010c 13010102 		addi	sp,sp,32
 174              		.cfi_def_cfa_offset 0
 175 0110 67800000 		jr	ra
 176              		.cfi_endproc
 177              	.LFE24:
 178              		.globl	__gxx_personality_v0
 179              		.section	.gcc_except_table,"aw",@progbits
 180              	.LLSDA24:
 181 0000 FF       		.byte	0xff
 182 0001 FF       		.byte	0xff
 183 0002 03       		.byte	0x3
 184 0003 27       		.byte	0x27
 185 0004 00000000 		.4byte	.LEHB0-.LFB24
 186 0008 00000000 		.4byte	.LEHE0-.LEHB0
 187 000c 00000000 		.4byte	0
 188 0010 00       		.byte	0
 189 0011 00000000 		.4byte	.LEHB1-.LFB24
 190 0015 00000000 		.4byte	.LEHE1-.LEHB1
 191 0019 00000000 		.4byte	.L12-.LFB24
 192 001d 00       		.byte	0
 193 001e 00000000 		.4byte	.LEHB2-.LFB24
 194 0022 00000000 		.4byte	.LEHE2-.LEHB2
GAS LISTING /tmp/ccU2n0RM.s 			page 5


 195 0026 00000000 		.4byte	0
 196 002a 00       		.byte	0
 197              		.text
 199              		.align	2
 200              		.globl	_ZN3TCB8dispatchEv
 202              	_ZN3TCB8dispatchEv:
 203              	.LFB25:
  22:src/TCB.cpp   **** 
  23:src/TCB.cpp   **** void TCB::dispatch(){
 204              		.loc 1 23 21 is_stmt 1
 205              		.cfi_startproc
 206 0114 130101FE 		addi	sp,sp,-32
 207              		.cfi_def_cfa_offset 32
 208 0118 233C1100 		sd	ra,24(sp)
 209 011c 23388100 		sd	s0,16(sp)
 210 0120 23349100 		sd	s1,8(sp)
 211              		.cfi_offset 1, -8
 212              		.cfi_offset 8, -16
 213              		.cfi_offset 9, -24
 214 0124 13040102 		addi	s0,sp,32
 215              		.cfi_def_cfa 8, 0
  24:src/TCB.cpp   ****     TCB *old=running;
 216              		.loc 1 24 5
 217              		.loc 1 24 10 is_stmt 0
 218 0128 97040000 		ld	s1,_ZN3TCB7runningE
 218      83B40400 
 219              	.LVL17:
  25:src/TCB.cpp   ****     if(!old->isFinished()){ Scheduler::getInstance().put(old); }
 220              		.loc 1 25 5 is_stmt 1
 221              	.LBB6:
 222              	.LBB7:
 223              		.file 2 "src/../h/TCB.hpp"
   1:src/../h/TCB.hpp **** #ifndef TCB_HPP
   2:src/../h/TCB.hpp **** #define TCB_HPP
   3:src/../h/TCB.hpp **** 
   4:src/../h/TCB.hpp **** #include "../lib/hw.h"
   5:src/../h/TCB.hpp **** #include "Scheduler.hpp"
   6:src/../h/TCB.hpp **** 
   7:src/../h/TCB.hpp **** class TCB{
   8:src/../h/TCB.hpp **** public:
   9:src/../h/TCB.hpp ****     ~TCB(){ delete[] stack;}
  10:src/../h/TCB.hpp ****     using Body = void (*)();
  11:src/../h/TCB.hpp ****     static TCB *create_thread(Body body);
  12:src/../h/TCB.hpp ****     //uint64 getTimeSlice() const{ return timeSlice;}
  13:src/../h/TCB.hpp **** 
  14:src/../h/TCB.hpp ****     bool isFinished() const {return finished;}
 224              		.loc 2 14 30
 225              		.loc 2 14 37 is_stmt 0
 226 0130 83C70402 		lbu	a5,32(s1)
 227              	.LVL18:
 228              	.LBE7:
 229              	.LBE6:
 230              		.loc 1 25 5
 231 0134 63800704 		beqz	a5,.L19
 232              	.L17:
  26:src/TCB.cpp   ****     running=Scheduler::getInstance().get();
 233              		.loc 1 26 5 is_stmt 1
GAS LISTING /tmp/ccU2n0RM.s 			page 6


 234              		.loc 1 26 36 is_stmt 0
 235 0138 97000000 		call	_ZN9Scheduler11getInstanceEv
 235      E7800000 
 236              	.LVL19:
 237              		.loc 1 26 42
 238 0140 97000000 		call	_ZN9Scheduler3getEv
 238      E7800000 
 239              	.LVL20:
 240              		.loc 1 26 12
 241 0148 97070000 		sd	a0,_ZN3TCB7runningE,a5
 241      23B0A700 
  27:src/TCB.cpp   ****     TCB::contextSwitch(&old->context,&running->context);
 242              		.loc 1 27 5 is_stmt 1
 243              		.loc 1 27 23 is_stmt 0
 244 0150 93050501 		addi	a1,a0,16
 245 0154 13850401 		addi	a0,s1,16
 246 0158 97000000 		call	_ZN3TCB13contextSwitchEPNS_7ContextES1_
 246      E7800000 
 247              	.LVL21:
  28:src/TCB.cpp   **** }
 248              		.loc 1 28 1
 249 0160 83308101 		ld	ra,24(sp)
 250              		.cfi_remember_state
 251              		.cfi_restore 1
 252 0164 03340101 		ld	s0,16(sp)
 253              		.cfi_restore 8
 254              		.cfi_def_cfa 2, 32
 255 0168 83348100 		ld	s1,8(sp)
 256              		.cfi_restore 9
 257              	.LVL22:
 258 016c 13010102 		addi	sp,sp,32
 259              		.cfi_def_cfa_offset 0
 260 0170 67800000 		jr	ra
 261              	.LVL23:
 262              	.L19:
 263              		.cfi_restore_state
  25:src/TCB.cpp   ****     running=Scheduler::getInstance().get();
 264              		.loc 1 25 29 is_stmt 1 discriminator 1
  25:src/TCB.cpp   ****     running=Scheduler::getInstance().get();
 265              		.loc 1 25 52 is_stmt 0 discriminator 1
 266 0174 97000000 		call	_ZN9Scheduler11getInstanceEv
 266      E7800000 
 267              	.LVL24:
  25:src/TCB.cpp   ****     running=Scheduler::getInstance().get();
 268              		.loc 1 25 61 discriminator 1
 269 017c 13850400 		mv	a0,s1
 270 0180 97000000 		call	_ZN9Scheduler3putEP3TCB
 270      E7800000 
 271              	.LVL25:
 272 0188 6FF01FFB 		j	.L17
 273              		.cfi_endproc
 274              	.LFE25:
 276              		.align	2
 277              		.globl	_ZN3TCB5yieldEv
 279              	_ZN3TCB5yieldEv:
 280              	.LFB26:
  29:src/TCB.cpp   **** 
GAS LISTING /tmp/ccU2n0RM.s 			page 7


  30:src/TCB.cpp   **** void TCB::yield(){
 281              		.loc 1 30 18 is_stmt 1
 282              		.cfi_startproc
 283 018c 130101FF 		addi	sp,sp,-16
 284              		.cfi_def_cfa_offset 16
 285 0190 23341100 		sd	ra,8(sp)
 286 0194 23308100 		sd	s0,0(sp)
 287              		.cfi_offset 1, -8
 288              		.cfi_offset 8, -16
 289 0198 13040101 		addi	s0,sp,16
 290              		.cfi_def_cfa 8, 0
  31:src/TCB.cpp   ****     Riscv::pushRegisters();
 291              		.loc 1 31 5
 292              		.loc 1 31 25 is_stmt 0
 293 019c 97000000 		call	_ZN5Riscv13pushRegistersEv
 293      E7800000 
 294              	.LVL26:
  32:src/TCB.cpp   ****     TCB::dispatch();
 295              		.loc 1 32 5 is_stmt 1
 296              		.loc 1 32 18 is_stmt 0
 297 01a4 97000000 		call	_ZN3TCB8dispatchEv
 297      E7800000 
 298              	.LVL27:
  33:src/TCB.cpp   ****     Riscv::popRegisters();
 299              		.loc 1 33 5 is_stmt 1
 300              		.loc 1 33 24 is_stmt 0
 301 01ac 97000000 		call	_ZN5Riscv12popRegistersEv
 301      E7800000 
 302              	.LVL28:
  34:src/TCB.cpp   **** }
 303              		.loc 1 34 1
 304 01b4 83308100 		ld	ra,8(sp)
 305              		.cfi_restore 1
 306 01b8 03340100 		ld	s0,0(sp)
 307              		.cfi_restore 8
 308              		.cfi_def_cfa 2, 16
 309 01bc 13010101 		addi	sp,sp,16
 310              		.cfi_def_cfa_offset 0
 311 01c0 67800000 		jr	ra
 312              		.cfi_endproc
 313              	.LFE26:
 315              		.globl	_ZN3TCB7runningE
 316              		.section	.sbss,"aw",@nobits
 317              		.align	3
 320              	_ZN3TCB7runningE:
 321 0000 00000000 		.zero	8
 321      00000000 
 322              		.text
 323              	.Letext0:
 324              		.file 3 "src/../h/../lib/hw.h"
 325              		.file 4 "src/../h/List.hpp"
 326              		.file 5 "src/../h/Scheduler.hpp"
 327              		.file 6 "src/../h/Riscv.hpp"
 2563              		.align	3
 2566              	DW.ref.__gxx_personality_v0:
 2567 0000 00000000 		.dword	__gxx_personality_v0
 2567      00000000 
GAS LISTING /tmp/ccU2n0RM.s 			page 8


 2568              		.ident	"GCC: () 9.3.0"
GAS LISTING /tmp/ccU2n0RM.s 			page 9


DEFINED SYMBOLS
                            *ABS*:0000000000000000 TCB.cpp
     /tmp/ccU2n0RM.s:12     .text:0000000000000000 _ZN3TCBC2EPFvvE
     /tmp/ccU2n0RM.s:16     .text:0000000000000000 .L0 
     /tmp/ccU2n0RM.s:18     .text:0000000000000000 .L0 
     /tmp/ccU2n0RM.s:19     .text:0000000000000004 .L0 
     /tmp/ccU2n0RM.s:24     .text:0000000000000014 .L0 
     /tmp/ccU2n0RM.s:25     .text:0000000000000014 .L0 
     /tmp/ccU2n0RM.s:26     .text:0000000000000014 .L0 
     /tmp/ccU2n0RM.s:27     .text:0000000000000014 .L0 
     /tmp/ccU2n0RM.s:29     .text:0000000000000018 .L0 
     /tmp/ccU2n0RM.s:34     .text:0000000000000020 .L0 
     /tmp/ccU2n0RM.s:36     .text:0000000000000024 .L0 
     /tmp/ccU2n0RM.s:38     .text:0000000000000028 .L0 
     /tmp/ccU2n0RM.s:44     .text:0000000000000034 .L0 
     /tmp/ccU2n0RM.s:46     .text:0000000000000038 .L0 
     /tmp/ccU2n0RM.s:48     .text:000000000000003c .L0 
     /tmp/ccU2n0RM.s:51     .text:0000000000000040 .L0 
     /tmp/ccU2n0RM.s:53     .text:0000000000000044 .L0 
     /tmp/ccU2n0RM.s:55     .text:0000000000000048 .L0 
     /tmp/ccU2n0RM.s:59     .text:0000000000000050 .L0 
     /tmp/ccU2n0RM.s:62     .text:0000000000000058 .L0 
     /tmp/ccU2n0RM.s:64     .text:000000000000005c .L0 
     /tmp/ccU2n0RM.s:65     .text:000000000000005c .L0 
     /tmp/ccU2n0RM.s:68     .text:0000000000000064 .L0 
     /tmp/ccU2n0RM.s:74     .text:0000000000000070 .L0 
     /tmp/ccU2n0RM.s:75     .text:0000000000000074 .L0 
     /tmp/ccU2n0RM.s:76     .text:0000000000000074 .L0 
     /tmp/ccU2n0RM.s:78     .text:0000000000000078 .L0 
     /tmp/ccU2n0RM.s:79     .text:0000000000000078 .L0 
     /tmp/ccU2n0RM.s:81     .text:000000000000007c .L0 
     /tmp/ccU2n0RM.s:84     .text:0000000000000080 .L0 
     /tmp/ccU2n0RM.s:87     .text:0000000000000084 .L0 
     /tmp/ccU2n0RM.s:91     .text:0000000000000088 .L0 
     /tmp/ccU2n0RM.s:94     .text:0000000000000088 .L0 
     /tmp/ccU2n0RM.s:99     .text:0000000000000090 .L0 
     /tmp/ccU2n0RM.s:103    .text:0000000000000098 .L0 
     /tmp/ccU2n0RM.s:106    .text:00000000000000a0 .L0 
     /tmp/ccU2n0RM.s:12     .text:0000000000000000 _ZN3TCBC1EPFvvE
     /tmp/ccU2n0RM.s:114    .text:00000000000000a0 _ZN3TCB13create_threadEPFvvE
     /tmp/ccU2n0RM.s:117    .text:00000000000000a0 .L0 
     /tmp/ccU2n0RM.s:2566   .sdata.DW.ref.__gxx_personality_v0:0000000000000000 DW.ref.__gxx_personality_v0
     /tmp/ccU2n0RM.s:121    .text:00000000000000a0 .L0 
     /tmp/ccU2n0RM.s:122    .text:00000000000000a4 .L0 
     /tmp/ccU2n0RM.s:127    .text:00000000000000b4 .L0 
     /tmp/ccU2n0RM.s:128    .text:00000000000000b4 .L0 
     /tmp/ccU2n0RM.s:129    .text:00000000000000b4 .L0 
     /tmp/ccU2n0RM.s:130    .text:00000000000000b4 .L0 
     /tmp/ccU2n0RM.s:132    .text:00000000000000b8 .L0 
     /tmp/ccU2n0RM.s:135    .text:00000000000000bc .L0 
     /tmp/ccU2n0RM.s:136    .text:00000000000000bc .L0 
     /tmp/ccU2n0RM.s:162    .text:00000000000000f8 .L0 
     /tmp/ccU2n0RM.s:164    .text:0000000000000100 .L0 
     /tmp/ccU2n0RM.s:166    .text:0000000000000104 .L0 
     /tmp/ccU2n0RM.s:167    .text:0000000000000104 .L0 
     /tmp/ccU2n0RM.s:169    .text:0000000000000108 .L0 
     /tmp/ccU2n0RM.s:171    .text:000000000000010c .L0 
GAS LISTING /tmp/ccU2n0RM.s 			page 10


     /tmp/ccU2n0RM.s:174    .text:0000000000000110 .L0 
     /tmp/ccU2n0RM.s:176    .text:0000000000000114 .L0 
     /tmp/ccU2n0RM.s:202    .text:0000000000000114 _ZN3TCB8dispatchEv
     /tmp/ccU2n0RM.s:205    .text:0000000000000114 .L0 
     /tmp/ccU2n0RM.s:206    .text:0000000000000114 .L0 
     /tmp/ccU2n0RM.s:207    .text:0000000000000118 .L0 
     /tmp/ccU2n0RM.s:211    .text:0000000000000124 .L0 
     /tmp/ccU2n0RM.s:212    .text:0000000000000124 .L0 
     /tmp/ccU2n0RM.s:213    .text:0000000000000124 .L0 
     /tmp/ccU2n0RM.s:215    .text:0000000000000128 .L0 
     /tmp/ccU2n0RM.s:217    .text:0000000000000128 .L0 
     /tmp/ccU2n0RM.s:320    .sbss:0000000000000000 _ZN3TCB7runningE
     /tmp/ccU2n0RM.s:218    .text:0000000000000128 .L0 
     /tmp/ccU2n0RM.s:224    .text:0000000000000130 .L0 
     /tmp/ccU2n0RM.s:225    .text:0000000000000130 .L0 
     /tmp/ccU2n0RM.s:226    .text:0000000000000130 .L0 
     /tmp/ccU2n0RM.s:231    .text:0000000000000134 .L0 
     /tmp/ccU2n0RM.s:234    .text:0000000000000138 .L0 
     /tmp/ccU2n0RM.s:235    .text:0000000000000138 .L0 
     /tmp/ccU2n0RM.s:238    .text:0000000000000140 .L0 
     /tmp/ccU2n0RM.s:241    .text:0000000000000148 .L0 
     /tmp/ccU2n0RM.s:243    .text:0000000000000150 .L0 
     /tmp/ccU2n0RM.s:244    .text:0000000000000150 .L0 
     /tmp/ccU2n0RM.s:249    .text:0000000000000160 .L0 
     /tmp/ccU2n0RM.s:250    .text:0000000000000164 .L0 
     /tmp/ccU2n0RM.s:251    .text:0000000000000164 .L0 
     /tmp/ccU2n0RM.s:253    .text:0000000000000168 .L0 
     /tmp/ccU2n0RM.s:254    .text:0000000000000168 .L0 
     /tmp/ccU2n0RM.s:256    .text:000000000000016c .L0 
     /tmp/ccU2n0RM.s:259    .text:0000000000000170 .L0 
     /tmp/ccU2n0RM.s:263    .text:0000000000000174 .L0 
     /tmp/ccU2n0RM.s:265    .text:0000000000000174 .L0 
     /tmp/ccU2n0RM.s:266    .text:0000000000000174 .L0 
     /tmp/ccU2n0RM.s:269    .text:000000000000017c .L0 
     /tmp/ccU2n0RM.s:273    .text:000000000000018c .L0 
     /tmp/ccU2n0RM.s:279    .text:000000000000018c _ZN3TCB5yieldEv
     /tmp/ccU2n0RM.s:282    .text:000000000000018c .L0 
     /tmp/ccU2n0RM.s:283    .text:000000000000018c .L0 
     /tmp/ccU2n0RM.s:284    .text:0000000000000190 .L0 
     /tmp/ccU2n0RM.s:287    .text:0000000000000198 .L0 
     /tmp/ccU2n0RM.s:288    .text:0000000000000198 .L0 
     /tmp/ccU2n0RM.s:290    .text:000000000000019c .L0 
     /tmp/ccU2n0RM.s:292    .text:000000000000019c .L0 
     /tmp/ccU2n0RM.s:293    .text:000000000000019c .L0 
     /tmp/ccU2n0RM.s:296    .text:00000000000001a4 .L0 
     /tmp/ccU2n0RM.s:297    .text:00000000000001a4 .L0 
     /tmp/ccU2n0RM.s:300    .text:00000000000001ac .L0 
     /tmp/ccU2n0RM.s:301    .text:00000000000001ac .L0 
     /tmp/ccU2n0RM.s:304    .text:00000000000001b4 .L0 
     /tmp/ccU2n0RM.s:305    .text:00000000000001b8 .L0 
     /tmp/ccU2n0RM.s:307    .text:00000000000001bc .L0 
     /tmp/ccU2n0RM.s:308    .text:00000000000001bc .L0 
     /tmp/ccU2n0RM.s:310    .text:00000000000001c0 .L0 
     /tmp/ccU2n0RM.s:312    .text:00000000000001c4 .L0 
     /tmp/ccU2n0RM.s:328    .text:00000000000001c4 .L0 
     /tmp/ccU2n0RM.s:218    .text:0000000000000128 .L0 
     /tmp/ccU2n0RM.s:241    .text:0000000000000148 .L0 
GAS LISTING /tmp/ccU2n0RM.s 			page 11


     /tmp/ccU2n0RM.s:90     .text:0000000000000088 .L6
     /tmp/ccU2n0RM.s:97     .text:0000000000000090 .L7
     /tmp/ccU2n0RM.s:101    .text:0000000000000098 .L8
     /tmp/ccU2n0RM.s:71     .text:0000000000000070 .L1
     /tmp/ccU2n0RM.s:42     .text:0000000000000034 .L2
     /tmp/ccU2n0RM.s:49     .text:0000000000000040 .L3
     /tmp/ccU2n0RM.s:57     .text:0000000000000050 .L4
     /tmp/ccU2n0RM.s:160    .text:00000000000000f8 .L15
     /tmp/ccU2n0RM.s:262    .text:0000000000000174 .L19
     /tmp/ccU2n0RM.s:232    .text:0000000000000138 .L17
     /tmp/ccU2n0RM.s:138    .text:00000000000000c0 .LEHB0
     /tmp/ccU2n0RM.s:115    .text:00000000000000a0 .LFB24
     /tmp/ccU2n0RM.s:141    .text:00000000000000c8 .LEHE0
     /tmp/ccU2n0RM.s:144    .text:00000000000000d0 .LEHB1
     /tmp/ccU2n0RM.s:147    .text:00000000000000d8 .LEHE1
     /tmp/ccU2n0RM.s:149    .text:00000000000000dc .L12
     /tmp/ccU2n0RM.s:156    .text:00000000000000f0 .LEHB2
     /tmp/ccU2n0RM.s:159    .text:00000000000000f8 .LEHE2
     /tmp/ccU2n0RM.s:1286   .debug_abbrev:0000000000000000 .Ldebug_abbrev0
     /tmp/ccU2n0RM.s:2346   .debug_str:00000000000000be .LASF103
     /tmp/ccU2n0RM.s:2352   .debug_str:0000000000000194 .LASF104
     /tmp/ccU2n0RM.s:2378   .debug_str:0000000000000264 .LASF105
     /tmp/ccU2n0RM.s:8      .text:0000000000000000 .Ltext0
     /tmp/ccU2n0RM.s:323    .text:00000000000001c4 .Letext0
     /tmp/ccU2n0RM.s:2318   .debug_line:0000000000000000 .Ldebug_line0
     /tmp/ccU2n0RM.s:2466   .debug_str:00000000000004f6 .LASF0
     /tmp/ccU2n0RM.s:2476   .debug_str:0000000000000524 .LASF1
     /tmp/ccU2n0RM.s:2452   .debug_str:000000000000048b .LASF2
     /tmp/ccU2n0RM.s:2424   .debug_str:00000000000003e6 .LASF4
     /tmp/ccU2n0RM.s:2508   .debug_str:0000000000000613 .LASF3
     /tmp/ccU2n0RM.s:2348   .debug_str:0000000000000182 .LASF5
     /tmp/ccU2n0RM.s:2478   .debug_str:0000000000000537 .LASF6
     /tmp/ccU2n0RM.s:2464   .debug_str:00000000000004e3 .LASF7
     /tmp/ccU2n0RM.s:2536   .debug_str:00000000000006ef .LASF8
     /tmp/ccU2n0RM.s:2408   .debug_str:0000000000000344 .LASF9
     /tmp/ccU2n0RM.s:2486   .debug_str:0000000000000565 .LASF10
     /tmp/ccU2n0RM.s:2530   .debug_str:00000000000006c6 .LASF11
     /tmp/ccU2n0RM.s:2438   .debug_str:0000000000000432 .LASF12
     /tmp/ccU2n0RM.s:2326   .debug_str:0000000000000040 .LASF13
     /tmp/ccU2n0RM.s:2364   .debug_str:00000000000001f4 .LASF14
     /tmp/ccU2n0RM.s:2498   .debug_str:00000000000005bf .LASF15
     /tmp/ccU2n0RM.s:2372   .debug_str:0000000000000235 .LASF16
     /tmp/ccU2n0RM.s:2442   .debug_str:000000000000045a .LASF34
     /tmp/ccU2n0RM.s:2422   .debug_str:00000000000003e1 .LASF17
     /tmp/ccU2n0RM.s:2520   .debug_str:000000000000066f .LASF19
     /tmp/ccU2n0RM.s:2496   .debug_str:00000000000005a8 .LASF24
     /tmp/ccU2n0RM.s:2462   .debug_str:00000000000004d9 .LASF106
     /tmp/ccU2n0RM.s:2412   .debug_str:0000000000000368 .LASF107
     /tmp/ccU2n0RM.s:2524   .debug_str:0000000000000694 .LASF18
     /tmp/ccU2n0RM.s:2382   .debug_str:0000000000000299 .LASF20
     /tmp/ccU2n0RM.s:2406   .debug_str:000000000000033c .LASF21
     /tmp/ccU2n0RM.s:2380   .debug_str:000000000000027d .LASF22
     /tmp/ccU2n0RM.s:2528   .debug_str:00000000000006ba .LASF23
     /tmp/ccU2n0RM.s:2322   .debug_str:0000000000000008 .LASF25
     /tmp/ccU2n0RM.s:2358   .debug_str:00000000000001c8 .LASF26
     /tmp/ccU2n0RM.s:2434   .debug_str:000000000000040e .LASF27
     /tmp/ccU2n0RM.s:2474   .debug_str:0000000000000519 .LASF28
GAS LISTING /tmp/ccU2n0RM.s 			page 12


     /tmp/ccU2n0RM.s:2340   .debug_str:000000000000008c .LASF29
     /tmp/ccU2n0RM.s:2436   .debug_str:0000000000000429 .LASF30
     /tmp/ccU2n0RM.s:2544   .debug_str:0000000000000728 .LASF31
     /tmp/ccU2n0RM.s:2444   .debug_str:0000000000000464 .LASF108
     /tmp/ccU2n0RM.s:2376   .debug_str:000000000000025f .LASF32
     /tmp/ccU2n0RM.s:2448   .debug_str:000000000000047f .LASF33
     /tmp/ccU2n0RM.s:2334   .debug_str:0000000000000074 .LASF109
     /tmp/ccU2n0RM.s:2384   .debug_str:00000000000002b6 .LASF35
     /tmp/ccU2n0RM.s:2492   .debug_str:0000000000000597 .LASF36
     /tmp/ccU2n0RM.s:2538   .debug_str:00000000000006ff .LASF37
     /tmp/ccU2n0RM.s:2460   .debug_str:00000000000004bc .LASF38
     /tmp/ccU2n0RM.s:2494   .debug_str:00000000000005a3 .LASF110
     /tmp/ccU2n0RM.s:2480   .debug_str:000000000000054a .LASF39
     /tmp/ccU2n0RM.s:2368   .debug_str:0000000000000206 .LASF40
     /tmp/ccU2n0RM.s:2454   .debug_str:0000000000000499 .LASF41
     /tmp/ccU2n0RM.s:2418   .debug_str:00000000000003a2 .LASF42
     /tmp/ccU2n0RM.s:2500   .debug_str:00000000000005d5 .LASF52
     /tmp/ccU2n0RM.s:2458   .debug_str:00000000000004ac .LASF54
     /tmp/ccU2n0RM.s:2390   .debug_str:00000000000002df .LASF111
     /tmp/ccU2n0RM.s:2504   .debug_str:00000000000005eb .LASF112
     /tmp/ccU2n0RM.s:2428   .debug_str:00000000000003f6 .LASF43
     /tmp/ccU2n0RM.s:2472   .debug_str:0000000000000513 .LASF44
     /tmp/ccU2n0RM.s:2432   .debug_str:0000000000000406 .LASF45
     /tmp/ccU2n0RM.s:2426   .debug_str:00000000000003ed .LASF46
     /tmp/ccU2n0RM.s:2540   .debug_str:000000000000070d .LASF90
     /tmp/ccU2n0RM.s:2420   .debug_str:00000000000003b9 .LASF92
     /tmp/ccU2n0RM.s:2470   .debug_str:000000000000050a .LASF113
     /tmp/ccU2n0RM.s:2396   .debug_str:0000000000000303 .LASF114
     /tmp/ccU2n0RM.s:2350   .debug_str:0000000000000189 .LASF115
     /tmp/ccU2n0RM.s:2484   .debug_str:000000000000055b .LASF47
     /tmp/ccU2n0RM.s:2550   .debug_str:000000000000075a .LASF48
     /tmp/ccU2n0RM.s:2526   .debug_str:000000000000069d .LASF59
     /tmp/ccU2n0RM.s:2360   .debug_str:00000000000001d2 .LASF116
     /tmp/ccU2n0RM.s:2354   .debug_str:00000000000001a0 .LASF117
     /tmp/ccU2n0RM.s:2510   .debug_str:0000000000000625 .LASF68
     /tmp/ccU2n0RM.s:2482   .debug_str:0000000000000555 .LASF49
     /tmp/ccU2n0RM.s:2398   .debug_str:0000000000000316 .LASF50
     /tmp/ccU2n0RM.s:2366   .debug_str:0000000000000200 .LASF51
     /tmp/ccU2n0RM.s:2344   .debug_str:00000000000000b0 .LASF53
     /tmp/ccU2n0RM.s:2388   .debug_str:00000000000002c4 .LASF55
     /tmp/ccU2n0RM.s:2518   .debug_str:0000000000000662 .LASF56
     /tmp/ccU2n0RM.s:2324   .debug_str:0000000000000026 .LASF57
     /tmp/ccU2n0RM.s:2328   .debug_str:0000000000000050 .LASF58
     /tmp/ccU2n0RM.s:2516   .debug_str:000000000000064d .LASF60
     /tmp/ccU2n0RM.s:2456   .debug_str:00000000000004a5 .LASF61
     /tmp/ccU2n0RM.s:2488   .debug_str:0000000000000574 .LASF62
     /tmp/ccU2n0RM.s:2402   .debug_str:000000000000032e .LASF63
     /tmp/ccU2n0RM.s:2374   .debug_str:000000000000024b .LASF64
     /tmp/ccU2n0RM.s:2392   .debug_str:00000000000002e7 .LASF65
     /tmp/ccU2n0RM.s:2356   .debug_str:00000000000001b4 .LASF66
     /tmp/ccU2n0RM.s:2386   .debug_str:00000000000002bb .LASF67
     /tmp/ccU2n0RM.s:2330   .debug_str:0000000000000059 .LASF69
     /tmp/ccU2n0RM.s:2532   .debug_str:00000000000006d5 .LASF70
     /tmp/ccU2n0RM.s:2534   .debug_str:00000000000006dc .LASF71
     /tmp/ccU2n0RM.s:2320   .debug_str:0000000000000000 .LASF72
     /tmp/ccU2n0RM.s:2414   .debug_str:000000000000037f .LASF73
     /tmp/ccU2n0RM.s:2554   .debug_str:0000000000000771 .LASF74
GAS LISTING /tmp/ccU2n0RM.s 			page 13


     /tmp/ccU2n0RM.s:2394   .debug_str:00000000000002ef .LASF75
     /tmp/ccU2n0RM.s:2468   .debug_str:0000000000000503 .LASF76
     /tmp/ccU2n0RM.s:2546   .debug_str:0000000000000742 .LASF77
     /tmp/ccU2n0RM.s:2342   .debug_str:00000000000000a9 .LASF78
     /tmp/ccU2n0RM.s:2400   .debug_str:000000000000031b .LASF79
     /tmp/ccU2n0RM.s:2404   .debug_str:0000000000000336 .LASF80
     /tmp/ccU2n0RM.s:2522   .debug_str:0000000000000682 .LASF81
     /tmp/ccU2n0RM.s:2338   .debug_str:0000000000000086 .LASF82
     /tmp/ccU2n0RM.s:2558   .debug_str:000000000000078a .LASF83
     /tmp/ccU2n0RM.s:2552   .debug_str:0000000000000766 .LASF84
     /tmp/ccU2n0RM.s:2506   .debug_str:00000000000005fb .LASF85
     /tmp/ccU2n0RM.s:2430   .debug_str:00000000000003fb .LASF86
     /tmp/ccU2n0RM.s:2440   .debug_str:0000000000000442 .LASF87
     /tmp/ccU2n0RM.s:2362   .debug_str:00000000000001ea .LASF88
     /tmp/ccU2n0RM.s:2446   .debug_str:0000000000000469 .LASF89
     /tmp/ccU2n0RM.s:2336   .debug_str:000000000000007c .LASF91
     /tmp/ccU2n0RM.s:2410   .debug_str:0000000000000352 .LASF93
     /tmp/ccU2n0RM.s:2556   .debug_str:0000000000000779 .LASF118
     /tmp/ccU2n0RM.s:280    .text:000000000000018c .LFB26
     /tmp/ccU2n0RM.s:313    .text:00000000000001c4 .LFE26
     /tmp/ccU2n0RM.s:294    .text:00000000000001a4 .LVL26
     /tmp/ccU2n0RM.s:298    .text:00000000000001ac .LVL27
     /tmp/ccU2n0RM.s:302    .text:00000000000001b4 .LVL28
     /tmp/ccU2n0RM.s:203    .text:0000000000000114 .LFB25
     /tmp/ccU2n0RM.s:274    .text:000000000000018c .LFE25
     /tmp/ccU2n0RM.s:2210   .debug_loc:0000000000000000 .LLST3
     /tmp/ccU2n0RM.s:221    .text:0000000000000130 .LBB6
     /tmp/ccU2n0RM.s:229    .text:0000000000000134 .LBE6
     /tmp/ccU2n0RM.s:2221   .debug_loc:0000000000000036 .LLST4
     /tmp/ccU2n0RM.s:236    .text:0000000000000140 .LVL19
     /tmp/ccU2n0RM.s:239    .text:0000000000000148 .LVL20
     /tmp/ccU2n0RM.s:247    .text:0000000000000160 .LVL21
     /tmp/ccU2n0RM.s:267    .text:000000000000017c .LVL24
     /tmp/ccU2n0RM.s:271    .text:0000000000000188 .LVL25
     /tmp/ccU2n0RM.s:177    .text:0000000000000114 .LFE24
     /tmp/ccU2n0RM.s:2228   .debug_loc:0000000000000059 .LLST2
     /tmp/ccU2n0RM.s:140    .text:00000000000000c8 .LVL11
     /tmp/ccU2n0RM.s:146    .text:00000000000000d8 .LVL12
     /tmp/ccU2n0RM.s:154    .text:00000000000000ec .LVL14
     /tmp/ccU2n0RM.s:158    .text:00000000000000f8 .LVL15
     /tmp/ccU2n0RM.s:2548   .debug_str:0000000000000755 .LASF94
     /tmp/ccU2n0RM.s:2490   .debug_str:0000000000000587 .LASF119
     /tmp/ccU2n0RM.s:13     .text:0000000000000000 .LFB22
     /tmp/ccU2n0RM.s:107    .text:00000000000000a0 .LFE22
     /tmp/ccU2n0RM.s:2257   .debug_loc:00000000000000ce .LLST0
     /tmp/ccU2n0RM.s:2279   .debug_loc:000000000000012d .LLST1
     /tmp/ccU2n0RM.s:41     .text:0000000000000034 .LVL2
     /tmp/ccU2n0RM.s:66     .text:0000000000000064 .LVL3
     /tmp/ccU2n0RM.s:70     .text:0000000000000070 .LVL4
     /tmp/ccU2n0RM.s:2332   .debug_str:000000000000006e .LASF95
     /tmp/ccU2n0RM.s:2542   .debug_str:000000000000071b .LASF97
     /tmp/ccU2n0RM.s:2450   .debug_str:0000000000000484 .LASF96
     /tmp/ccU2n0RM.s:2512   .debug_str:0000000000000637 .LASF98
     /tmp/ccU2n0RM.s:2416   .debug_str:0000000000000393 .LASF99
     /tmp/ccU2n0RM.s:2370   .debug_str:000000000000021d .LASF100
     /tmp/ccU2n0RM.s:2514   .debug_str:0000000000000647 .LASF101
     /tmp/ccU2n0RM.s:2502   .debug_str:00000000000005db .LASF102
GAS LISTING /tmp/ccU2n0RM.s 			page 14


     /tmp/ccU2n0RM.s:219    .text:0000000000000130 .LVL17
     /tmp/ccU2n0RM.s:257    .text:000000000000016c .LVL22
     /tmp/ccU2n0RM.s:261    .text:0000000000000174 .LVL23
     /tmp/ccU2n0RM.s:227    .text:0000000000000134 .LVL18
     /tmp/ccU2n0RM.s:120    .text:00000000000000a0 .LVL9
     /tmp/ccU2n0RM.s:137    .text:00000000000000c0 .LVL10
     /tmp/ccU2n0RM.s:151    .text:00000000000000e0 .LVL13
     /tmp/ccU2n0RM.s:172    .text:000000000000010c .LVL16
     /tmp/ccU2n0RM.s:17     .text:0000000000000000 .LVL0
     /tmp/ccU2n0RM.s:39     .text:000000000000002c .LVL1
     /tmp/ccU2n0RM.s:82     .text:000000000000007c .LVL5
     /tmp/ccU2n0RM.s:89     .text:0000000000000088 .LVL7
     /tmp/ccU2n0RM.s:85     .text:0000000000000080 .LVL6
     /tmp/ccU2n0RM.s:96     .text:0000000000000090 .LVL8
     /tmp/ccU2n0RM.s:329    .debug_info:0000000000000000 .Ldebug_info0
     /tmp/ccU2n0RM.s:180    .gcc_except_table:0000000000000000 .LLSDA24

UNDEFINED SYMBOLS
_Znam
_ZN9Scheduler11getInstanceEv
_ZN9Scheduler3putEP3TCB
_Znwm
_ZdlPv
_Unwind_Resume
__gxx_personality_v0
_ZN9Scheduler3getEv
_ZN3TCB13contextSwitchEPNS_7ContextES1_
_ZN5Riscv13pushRegistersEv
_ZN5Riscv12popRegistersEv
