GAS LISTING /tmp/cckpPQUS.s 			page 1


   1              		.file	"buffer_CPP_API.cpp"
   2              		.option nopic
   3              		.option norelax
   4              		.attribute arch, "rv64i2p0_m2p0_a2p0"
   5              		.attribute unaligned_access, 0
   6              		.attribute stack_align, 16
   7              		.text
   8              	.Ltext0:
   9              		.align	2
  10              		.globl	_ZN9BufferCPPC2Ei
  12              	_ZN9BufferCPPC2Ei:
  13              	.LFB3:
  14              		.file 1 "test/buffer_CPP_API.cpp"
   1:test/buffer_CPP_API.cpp **** #include "buffer_CPP_API.hpp"
   2:test/buffer_CPP_API.cpp **** 
   3:test/buffer_CPP_API.cpp **** BufferCPP::BufferCPP(int _cap) : cap(_cap + 1), head(0), tail(0) {
  15              		.loc 1 3 1
  16              		.cfi_startproc
  17              		.cfi_personality 0x9b,DW.ref.__gxx_personality_v0
  18              		.cfi_lsda 0x1b,.LLSDA3
  19              	.LVL0:
  20 0000 130101FD 		addi	sp,sp,-48
  21              		.cfi_def_cfa_offset 48
  22 0004 23341102 		sd	ra,40(sp)
  23 0008 23308102 		sd	s0,32(sp)
  24 000c 233C9100 		sd	s1,24(sp)
  25 0010 23382101 		sd	s2,16(sp)
  26 0014 23343101 		sd	s3,8(sp)
  27              		.cfi_offset 1, -8
  28              		.cfi_offset 8, -16
  29              		.cfi_offset 9, -24
  30              		.cfi_offset 18, -32
  31              		.cfi_offset 19, -40
  32 0018 13040103 		addi	s0,sp,48
  33              		.cfi_def_cfa 8, 0
  34 001c 93040500 		mv	s1,a0
  35 0020 13890500 		mv	s2,a1
  36              	.LBB2:
  37              		.loc 1 3 43 is_stmt 0
  38 0024 9B871500 		addiw	a5,a1,1
  39 0028 1B850700 		sext.w	a0,a5
  40              	.LVL1:
  41              		.loc 1 3 64
  42 002c 23A0F400 		sw	a5,0(s1)
  43 0030 23A80400 		sw	zero,16(s1)
  44 0034 23AA0400 		sw	zero,20(s1)
   4:test/buffer_CPP_API.cpp ****     buffer = (int *)mem_alloc(sizeof(int) * cap);
  45              		.loc 1 4 5 is_stmt 1
  46              		.loc 1 4 30 is_stmt 0
  47 0038 13152500 		slli	a0,a0,2
  48              	.LEHB0:
  49 003c 97000000 		call	_Z9mem_allocm
  49      E7800000 
  50              	.LVL2:
  51              		.loc 1 4 12
  52 0044 23B4A400 		sd	a0,8(s1)
   5:test/buffer_CPP_API.cpp ****     itemAvailable = new Semaphore(0);
GAS LISTING /tmp/cckpPQUS.s 			page 2


  53              		.loc 1 5 5 is_stmt 1
  54              		.loc 1 5 36 is_stmt 0
  55 0048 13050001 		li	a0,16
  56 004c 97000000 		call	_Znwm
  56      E7800000 
  57              	.LVL3:
  58              	.LEHE0:
  59 0054 93090500 		mv	s3,a0
  60 0058 93050000 		li	a1,0
  61              	.LEHB1:
  62 005c 97000000 		call	_ZN9SemaphoreC1Ej
  62      E7800000 
  63              	.LVL4:
  64              	.LEHE1:
  65              		.loc 1 5 19 discriminator 2
  66 0064 23B03403 		sd	s3,32(s1)
   6:test/buffer_CPP_API.cpp ****     spaceAvailable = new Semaphore(_cap);
  67              		.loc 1 6 5 is_stmt 1 discriminator 2
  68              		.loc 1 6 40 is_stmt 0 discriminator 2
  69 0068 13050001 		li	a0,16
  70              	.LEHB2:
  71 006c 97000000 		call	_Znwm
  71      E7800000 
  72              	.LVL5:
  73              	.LEHE2:
  74 0074 93090500 		mv	s3,a0
  75 0078 93050900 		mv	a1,s2
  76              	.LEHB3:
  77 007c 97000000 		call	_ZN9SemaphoreC1Ej
  77      E7800000 
  78              	.LVL6:
  79              	.LEHE3:
  80              		.loc 1 6 20 discriminator 2
  81 0084 23BC3401 		sd	s3,24(s1)
   7:test/buffer_CPP_API.cpp ****     mutexHead = new Semaphore(1);
  82              		.loc 1 7 5 is_stmt 1 discriminator 2
  83              		.loc 1 7 32 is_stmt 0 discriminator 2
  84 0088 13050001 		li	a0,16
  85              	.LEHB4:
  86 008c 97000000 		call	_Znwm
  86      E7800000 
  87              	.LVL7:
  88              	.LEHE4:
  89 0094 13090500 		mv	s2,a0
  90 0098 93051000 		li	a1,1
  91              	.LEHB5:
  92 009c 97000000 		call	_ZN9SemaphoreC1Ej
  92      E7800000 
  93              	.LVL8:
  94              	.LEHE5:
  95              		.loc 1 7 15 discriminator 2
  96 00a4 23B42403 		sd	s2,40(s1)
   8:test/buffer_CPP_API.cpp ****     mutexTail = new Semaphore(1);
  97              		.loc 1 8 5 is_stmt 1 discriminator 2
  98              		.loc 1 8 32 is_stmt 0 discriminator 2
  99 00a8 13050001 		li	a0,16
 100              	.LEHB6:
GAS LISTING /tmp/cckpPQUS.s 			page 3


 101 00ac 97000000 		call	_Znwm
 101      E7800000 
 102              	.LVL9:
 103              	.LEHE6:
 104 00b4 13090500 		mv	s2,a0
 105 00b8 93051000 		li	a1,1
 106              	.LEHB7:
 107 00bc 97000000 		call	_ZN9SemaphoreC1Ej
 107      E7800000 
 108              	.LVL10:
 109              	.LEHE7:
 110              		.loc 1 8 15 discriminator 2
 111 00c4 23B82403 		sd	s2,48(s1)
 112              	.LBE2:
   9:test/buffer_CPP_API.cpp **** }
 113              		.loc 1 9 1 discriminator 2
 114 00c8 83308102 		ld	ra,40(sp)
 115              		.cfi_remember_state
 116              		.cfi_restore 1
 117 00cc 03340102 		ld	s0,32(sp)
 118              		.cfi_restore 8
 119              		.cfi_def_cfa 2, 48
 120 00d0 83348101 		ld	s1,24(sp)
 121              		.cfi_restore 9
 122              	.LVL11:
 123 00d4 03390101 		ld	s2,16(sp)
 124              		.cfi_restore 18
 125 00d8 83398100 		ld	s3,8(sp)
 126              		.cfi_restore 19
 127 00dc 13010103 		addi	sp,sp,48
 128              		.cfi_def_cfa_offset 0
 129 00e0 67800000 		jr	ra
 130              	.LVL12:
 131              	.L6:
 132              		.cfi_restore_state
 133 00e4 93040500 		mv	s1,a0
 134              	.LVL13:
 135              	.LBB3:
   5:test/buffer_CPP_API.cpp ****     spaceAvailable = new Semaphore(_cap);
 136              		.loc 1 5 36
 137 00e8 13850900 		mv	a0,s3
 138 00ec 97000000 		call	_ZdlPv
 138      E7800000 
 139              	.LVL14:
 140 00f4 13850400 		mv	a0,s1
 141              	.LEHB8:
 142 00f8 97000000 		call	_Unwind_Resume
 142      E7800000 
 143              	.LVL15:
 144              	.LEHE8:
 145              	.L7:
 146 0100 93040500 		mv	s1,a0
 147              	.LVL16:
   6:test/buffer_CPP_API.cpp ****     mutexHead = new Semaphore(1);
 148              		.loc 1 6 40
 149 0104 13850900 		mv	a0,s3
 150 0108 97000000 		call	_ZdlPv
GAS LISTING /tmp/cckpPQUS.s 			page 4


 150      E7800000 
 151              	.LVL17:
 152 0110 13850400 		mv	a0,s1
 153              	.LEHB9:
 154 0114 97000000 		call	_Unwind_Resume
 154      E7800000 
 155              	.LVL18:
 156              	.LEHE9:
 157              	.L8:
 158 011c 93040500 		mv	s1,a0
 159              	.LVL19:
   7:test/buffer_CPP_API.cpp ****     mutexTail = new Semaphore(1);
 160              		.loc 1 7 32
 161 0120 13050900 		mv	a0,s2
 162 0124 97000000 		call	_ZdlPv
 162      E7800000 
 163              	.LVL20:
 164 012c 13850400 		mv	a0,s1
 165              	.LEHB10:
 166 0130 97000000 		call	_Unwind_Resume
 166      E7800000 
 167              	.LVL21:
 168              	.LEHE10:
 169              	.L9:
 170 0138 93040500 		mv	s1,a0
 171              	.LVL22:
   8:test/buffer_CPP_API.cpp **** }
 172              		.loc 1 8 32
 173 013c 13050900 		mv	a0,s2
 174 0140 97000000 		call	_ZdlPv
 174      E7800000 
 175              	.LVL23:
 176 0148 13850400 		mv	a0,s1
 177              	.LEHB11:
 178 014c 97000000 		call	_Unwind_Resume
 178      E7800000 
 179              	.LVL24:
 180              	.LEHE11:
 181              	.LBE3:
 182              		.cfi_endproc
 183              	.LFE3:
 184              		.globl	__gxx_personality_v0
 185              		.section	.gcc_except_table,"aw",@progbits
 186              	.LLSDA3:
 187 0000 FF       		.byte	0xff
 188 0001 FF       		.byte	0xff
 189 0002 03       		.byte	0x3
 190 0003 9C01     		.byte	0x9c,0x1
 191 0005 00000000 		.4byte	.LEHB0-.LFB3
 192 0009 00000000 		.4byte	.LEHE0-.LEHB0
 193 000d 00000000 		.4byte	0
 194 0011 00       		.byte	0
 195 0012 00000000 		.4byte	.LEHB1-.LFB3
 196 0016 00000000 		.4byte	.LEHE1-.LEHB1
 197 001a 00000000 		.4byte	.L6-.LFB3
 198 001e 00       		.byte	0
 199 001f 00000000 		.4byte	.LEHB2-.LFB3
GAS LISTING /tmp/cckpPQUS.s 			page 5


 200 0023 00000000 		.4byte	.LEHE2-.LEHB2
 201 0027 00000000 		.4byte	0
 202 002b 00       		.byte	0
 203 002c 00000000 		.4byte	.LEHB3-.LFB3
 204 0030 00000000 		.4byte	.LEHE3-.LEHB3
 205 0034 00000000 		.4byte	.L7-.LFB3
 206 0038 00       		.byte	0
 207 0039 00000000 		.4byte	.LEHB4-.LFB3
 208 003d 00000000 		.4byte	.LEHE4-.LEHB4
 209 0041 00000000 		.4byte	0
 210 0045 00       		.byte	0
 211 0046 00000000 		.4byte	.LEHB5-.LFB3
 212 004a 00000000 		.4byte	.LEHE5-.LEHB5
 213 004e 00000000 		.4byte	.L8-.LFB3
 214 0052 00       		.byte	0
 215 0053 00000000 		.4byte	.LEHB6-.LFB3
 216 0057 00000000 		.4byte	.LEHE6-.LEHB6
 217 005b 00000000 		.4byte	0
 218 005f 00       		.byte	0
 219 0060 00000000 		.4byte	.LEHB7-.LFB3
 220 0064 00000000 		.4byte	.LEHE7-.LEHB7
 221 0068 00000000 		.4byte	.L9-.LFB3
 222 006c 00       		.byte	0
 223 006d 00000000 		.4byte	.LEHB8-.LFB3
 224 0071 00000000 		.4byte	.LEHE8-.LEHB8
 225 0075 00000000 		.4byte	0
 226 0079 00       		.byte	0
 227 007a 00000000 		.4byte	.LEHB9-.LFB3
 228 007e 00000000 		.4byte	.LEHE9-.LEHB9
 229 0082 00000000 		.4byte	0
 230 0086 00       		.byte	0
 231 0087 00000000 		.4byte	.LEHB10-.LFB3
 232 008b 00000000 		.4byte	.LEHE10-.LEHB10
 233 008f 00000000 		.4byte	0
 234 0093 00       		.byte	0
 235 0094 00000000 		.4byte	.LEHB11-.LFB3
 236 0098 00000000 		.4byte	.LEHE11-.LEHB11
 237 009c 00000000 		.4byte	0
 238 00a0 00       		.byte	0
 239              		.text
 241              		.globl	_ZN9BufferCPPC1Ei
 242              		.set	_ZN9BufferCPPC1Ei,_ZN9BufferCPPC2Ei
 243              		.align	2
 244              		.globl	_ZN9BufferCPP3putEi
 246              	_ZN9BufferCPP3putEi:
 247              	.LFB8:
  10:test/buffer_CPP_API.cpp **** 
  11:test/buffer_CPP_API.cpp **** BufferCPP::~BufferCPP() {
  12:test/buffer_CPP_API.cpp ****     Console::putc('\n');
  13:test/buffer_CPP_API.cpp ****     printString("Buffer deleted!\n");
  14:test/buffer_CPP_API.cpp ****     while (getCnt()) {
  15:test/buffer_CPP_API.cpp ****         char ch = buffer[head];
  16:test/buffer_CPP_API.cpp ****         Console::putc(ch);
  17:test/buffer_CPP_API.cpp ****         head = (head + 1) % cap;
  18:test/buffer_CPP_API.cpp ****     }
  19:test/buffer_CPP_API.cpp ****     Console::putc('!');
  20:test/buffer_CPP_API.cpp ****     Console::putc('\n');
GAS LISTING /tmp/cckpPQUS.s 			page 6


  21:test/buffer_CPP_API.cpp **** 
  22:test/buffer_CPP_API.cpp ****     mem_free(buffer);
  23:test/buffer_CPP_API.cpp ****     delete itemAvailable;
  24:test/buffer_CPP_API.cpp ****     delete spaceAvailable;
  25:test/buffer_CPP_API.cpp ****     delete mutexTail;
  26:test/buffer_CPP_API.cpp ****     delete mutexHead;
  27:test/buffer_CPP_API.cpp **** 
  28:test/buffer_CPP_API.cpp **** }
  29:test/buffer_CPP_API.cpp **** 
  30:test/buffer_CPP_API.cpp **** void BufferCPP::put(int val) {
 248              		.loc 1 30 30 is_stmt 1
 249              		.cfi_startproc
 250              	.LVL25:
 251 0154 130101FE 		addi	sp,sp,-32
 252              		.cfi_def_cfa_offset 32
 253 0158 233C1100 		sd	ra,24(sp)
 254 015c 23388100 		sd	s0,16(sp)
 255 0160 23349100 		sd	s1,8(sp)
 256 0164 23302101 		sd	s2,0(sp)
 257              		.cfi_offset 1, -8
 258              		.cfi_offset 8, -16
 259              		.cfi_offset 9, -24
 260              		.cfi_offset 18, -32
 261 0168 13040102 		addi	s0,sp,32
 262              		.cfi_def_cfa 8, 0
 263 016c 93040500 		mv	s1,a0
 264 0170 13890500 		mv	s2,a1
  31:test/buffer_CPP_API.cpp ****     spaceAvailable->wait();
 265              		.loc 1 31 5
 266              		.loc 1 31 25 is_stmt 0
 267 0174 03358501 		ld	a0,24(a0)
 268              	.LVL26:
 269 0178 97000000 		call	_ZN9Semaphore4waitEv
 269      E7800000 
 270              	.LVL27:
  32:test/buffer_CPP_API.cpp **** 
  33:test/buffer_CPP_API.cpp ****     mutexTail->wait();
 271              		.loc 1 33 5 is_stmt 1
 272              		.loc 1 33 20 is_stmt 0
 273 0180 03B50403 		ld	a0,48(s1)
 274 0184 97000000 		call	_ZN9Semaphore4waitEv
 274      E7800000 
 275              	.LVL28:
  34:test/buffer_CPP_API.cpp ****     buffer[tail] = val;
 276              		.loc 1 34 5 is_stmt 1
 277 018c 83B78400 		ld	a5,8(s1)
 278              		.loc 1 34 12 is_stmt 0
 279 0190 03A74401 		lw	a4,20(s1)
 280              		.loc 1 34 16
 281 0194 13172700 		slli	a4,a4,2
 282 0198 B387E700 		add	a5,a5,a4
 283              		.loc 1 34 18
 284 019c 23A02701 		sw	s2,0(a5)
  35:test/buffer_CPP_API.cpp ****     tail = (tail + 1) % cap;
 285              		.loc 1 35 5 is_stmt 1
 286              		.loc 1 35 13 is_stmt 0
 287 01a0 83A74401 		lw	a5,20(s1)
GAS LISTING /tmp/cckpPQUS.s 			page 7


 288              		.loc 1 35 18
 289 01a4 9B871700 		addiw	a5,a5,1
 290              		.loc 1 35 25
 291 01a8 03A70400 		lw	a4,0(s1)
 292              		.loc 1 35 23
 293 01ac BBE7E702 		remw	a5,a5,a4
 294              		.loc 1 35 10
 295 01b0 23AAF400 		sw	a5,20(s1)
  36:test/buffer_CPP_API.cpp ****     mutexTail->signal();
 296              		.loc 1 36 5 is_stmt 1
 297              		.loc 1 36 22 is_stmt 0
 298 01b4 03B50403 		ld	a0,48(s1)
 299 01b8 97000000 		call	_ZN9Semaphore6signalEv
 299      E7800000 
 300              	.LVL29:
  37:test/buffer_CPP_API.cpp **** 
  38:test/buffer_CPP_API.cpp ****     itemAvailable->signal();
 301              		.loc 1 38 5 is_stmt 1
 302              		.loc 1 38 26 is_stmt 0
 303 01c0 03B50402 		ld	a0,32(s1)
 304 01c4 97000000 		call	_ZN9Semaphore6signalEv
 304      E7800000 
 305              	.LVL30:
  39:test/buffer_CPP_API.cpp **** 
  40:test/buffer_CPP_API.cpp **** }
 306              		.loc 1 40 1
 307 01cc 83308101 		ld	ra,24(sp)
 308              		.cfi_restore 1
 309 01d0 03340101 		ld	s0,16(sp)
 310              		.cfi_restore 8
 311              		.cfi_def_cfa 2, 32
 312 01d4 83348100 		ld	s1,8(sp)
 313              		.cfi_restore 9
 314              	.LVL31:
 315 01d8 03390100 		ld	s2,0(sp)
 316              		.cfi_restore 18
 317 01dc 13010102 		addi	sp,sp,32
 318              		.cfi_def_cfa_offset 0
 319 01e0 67800000 		jr	ra
 320              		.cfi_endproc
 321              	.LFE8:
 323              		.align	2
 324              		.globl	_ZN9BufferCPP3getEv
 326              	_ZN9BufferCPP3getEv:
 327              	.LFB9:
  41:test/buffer_CPP_API.cpp **** 
  42:test/buffer_CPP_API.cpp **** int BufferCPP::get() {
 328              		.loc 1 42 22 is_stmt 1
 329              		.cfi_startproc
 330              	.LVL32:
 331 01e4 130101FE 		addi	sp,sp,-32
 332              		.cfi_def_cfa_offset 32
 333 01e8 233C1100 		sd	ra,24(sp)
 334 01ec 23388100 		sd	s0,16(sp)
 335 01f0 23349100 		sd	s1,8(sp)
 336 01f4 23302101 		sd	s2,0(sp)
 337              		.cfi_offset 1, -8
GAS LISTING /tmp/cckpPQUS.s 			page 8


 338              		.cfi_offset 8, -16
 339              		.cfi_offset 9, -24
 340              		.cfi_offset 18, -32
 341 01f8 13040102 		addi	s0,sp,32
 342              		.cfi_def_cfa 8, 0
 343 01fc 93040500 		mv	s1,a0
  43:test/buffer_CPP_API.cpp ****     itemAvailable->wait();
 344              		.loc 1 43 5
 345              		.loc 1 43 24 is_stmt 0
 346 0200 03350502 		ld	a0,32(a0)
 347              	.LVL33:
 348 0204 97000000 		call	_ZN9Semaphore4waitEv
 348      E7800000 
 349              	.LVL34:
  44:test/buffer_CPP_API.cpp **** 
  45:test/buffer_CPP_API.cpp ****     mutexHead->wait();
 350              		.loc 1 45 5 is_stmt 1
 351              		.loc 1 45 20 is_stmt 0
 352 020c 03B58402 		ld	a0,40(s1)
 353 0210 97000000 		call	_ZN9Semaphore4waitEv
 353      E7800000 
 354              	.LVL35:
  46:test/buffer_CPP_API.cpp **** 
  47:test/buffer_CPP_API.cpp ****     int ret = buffer[head];
 355              		.loc 1 47 5 is_stmt 1
 356              		.loc 1 47 15 is_stmt 0
 357 0218 03B78400 		ld	a4,8(s1)
 358              		.loc 1 47 22
 359 021c 83A70401 		lw	a5,16(s1)
 360              		.loc 1 47 26
 361 0220 93962700 		slli	a3,a5,2
 362 0224 3307D700 		add	a4,a4,a3
 363              		.loc 1 47 9
 364 0228 03290700 		lw	s2,0(a4)
 365              	.LVL36:
  48:test/buffer_CPP_API.cpp ****     head = (head + 1) % cap;
 366              		.loc 1 48 5 is_stmt 1
 367              		.loc 1 48 18 is_stmt 0
 368 022c 9B871700 		addiw	a5,a5,1
 369              		.loc 1 48 25
 370 0230 03A70400 		lw	a4,0(s1)
 371              		.loc 1 48 23
 372 0234 BBE7E702 		remw	a5,a5,a4
 373              		.loc 1 48 10
 374 0238 23A8F400 		sw	a5,16(s1)
  49:test/buffer_CPP_API.cpp ****     mutexHead->signal();
 375              		.loc 1 49 5 is_stmt 1
 376              		.loc 1 49 22 is_stmt 0
 377 023c 03B58402 		ld	a0,40(s1)
 378 0240 97000000 		call	_ZN9Semaphore6signalEv
 378      E7800000 
 379              	.LVL37:
  50:test/buffer_CPP_API.cpp **** 
  51:test/buffer_CPP_API.cpp ****     spaceAvailable->signal();
 380              		.loc 1 51 5 is_stmt 1
 381              		.loc 1 51 27 is_stmt 0
 382 0248 03B58401 		ld	a0,24(s1)
GAS LISTING /tmp/cckpPQUS.s 			page 9


 383 024c 97000000 		call	_ZN9Semaphore6signalEv
 383      E7800000 
 384              	.LVL38:
  52:test/buffer_CPP_API.cpp **** 
  53:test/buffer_CPP_API.cpp ****     return ret;
 385              		.loc 1 53 5 is_stmt 1
  54:test/buffer_CPP_API.cpp **** }
 386              		.loc 1 54 1 is_stmt 0
 387 0254 13050900 		mv	a0,s2
 388 0258 83308101 		ld	ra,24(sp)
 389              		.cfi_restore 1
 390 025c 03340101 		ld	s0,16(sp)
 391              		.cfi_restore 8
 392              		.cfi_def_cfa 2, 32
 393 0260 83348100 		ld	s1,8(sp)
 394              		.cfi_restore 9
 395              	.LVL39:
 396 0264 03390100 		ld	s2,0(sp)
 397              		.cfi_restore 18
 398              	.LVL40:
 399 0268 13010102 		addi	sp,sp,32
 400              		.cfi_def_cfa_offset 0
 401 026c 67800000 		jr	ra
 402              		.cfi_endproc
 403              	.LFE9:
 405              		.align	2
 406              		.globl	_ZN9BufferCPP6getCntEv
 408              	_ZN9BufferCPP6getCntEv:
 409              	.LFB10:
  55:test/buffer_CPP_API.cpp **** 
  56:test/buffer_CPP_API.cpp **** int BufferCPP::getCnt() {
 410              		.loc 1 56 25 is_stmt 1
 411              		.cfi_startproc
 412              	.LVL41:
 413 0270 130101FE 		addi	sp,sp,-32
 414              		.cfi_def_cfa_offset 32
 415 0274 233C1100 		sd	ra,24(sp)
 416 0278 23388100 		sd	s0,16(sp)
 417 027c 23349100 		sd	s1,8(sp)
 418 0280 23302101 		sd	s2,0(sp)
 419              		.cfi_offset 1, -8
 420              		.cfi_offset 8, -16
 421              		.cfi_offset 9, -24
 422              		.cfi_offset 18, -32
 423 0284 13040102 		addi	s0,sp,32
 424              		.cfi_def_cfa 8, 0
 425 0288 93040500 		mv	s1,a0
  57:test/buffer_CPP_API.cpp ****     int ret;
 426              		.loc 1 57 5
  58:test/buffer_CPP_API.cpp **** 
  59:test/buffer_CPP_API.cpp ****     mutexHead->wait();
 427              		.loc 1 59 5
 428              		.loc 1 59 20 is_stmt 0
 429 028c 03358502 		ld	a0,40(a0)
 430              	.LVL42:
 431 0290 97000000 		call	_ZN9Semaphore4waitEv
 431      E7800000 
GAS LISTING /tmp/cckpPQUS.s 			page 10


 432              	.LVL43:
  60:test/buffer_CPP_API.cpp ****     mutexTail->wait();
 433              		.loc 1 60 5 is_stmt 1
 434              		.loc 1 60 20 is_stmt 0
 435 0298 03B50403 		ld	a0,48(s1)
 436 029c 97000000 		call	_ZN9Semaphore4waitEv
 436      E7800000 
 437              	.LVL44:
  61:test/buffer_CPP_API.cpp **** 
  62:test/buffer_CPP_API.cpp ****     if (tail >= head) {
 438              		.loc 1 62 5 is_stmt 1
 439              		.loc 1 62 9 is_stmt 0
 440 02a4 83A74401 		lw	a5,20(s1)
 441              		.loc 1 62 17
 442 02a8 03A90401 		lw	s2,16(s1)
 443              		.loc 1 62 5
 444 02ac 63CE2703 		blt	a5,s2,.L17
  63:test/buffer_CPP_API.cpp ****         ret = tail - head;
 445              		.loc 1 63 9 is_stmt 1
 446              		.loc 1 63 13 is_stmt 0
 447 02b0 3B892741 		subw	s2,a5,s2
 448              	.LVL45:
 449              	.L18:
  64:test/buffer_CPP_API.cpp ****     } else {
  65:test/buffer_CPP_API.cpp ****         ret = cap - head + tail;
  66:test/buffer_CPP_API.cpp ****     }
  67:test/buffer_CPP_API.cpp **** 
  68:test/buffer_CPP_API.cpp ****     mutexTail->signal();
 450              		.loc 1 68 5 is_stmt 1
 451              		.loc 1 68 22 is_stmt 0
 452 02b4 03B50403 		ld	a0,48(s1)
 453 02b8 97000000 		call	_ZN9Semaphore6signalEv
 453      E7800000 
 454              	.LVL46:
  69:test/buffer_CPP_API.cpp ****     mutexHead->signal();
 455              		.loc 1 69 5 is_stmt 1
 456              		.loc 1 69 22 is_stmt 0
 457 02c0 03B58402 		ld	a0,40(s1)
 458 02c4 97000000 		call	_ZN9Semaphore6signalEv
 458      E7800000 
 459              	.LVL47:
  70:test/buffer_CPP_API.cpp **** 
  71:test/buffer_CPP_API.cpp ****     return ret;
 460              		.loc 1 71 5 is_stmt 1
  72:test/buffer_CPP_API.cpp **** }
 461              		.loc 1 72 1 is_stmt 0
 462 02cc 13050900 		mv	a0,s2
 463 02d0 83308101 		ld	ra,24(sp)
 464              		.cfi_remember_state
 465              		.cfi_restore 1
 466 02d4 03340101 		ld	s0,16(sp)
 467              		.cfi_restore 8
 468              		.cfi_def_cfa 2, 32
 469 02d8 83348100 		ld	s1,8(sp)
 470              		.cfi_restore 9
 471              	.LVL48:
 472 02dc 03390100 		ld	s2,0(sp)
GAS LISTING /tmp/cckpPQUS.s 			page 11


 473              		.cfi_restore 18
 474              	.LVL49:
 475 02e0 13010102 		addi	sp,sp,32
 476              		.cfi_def_cfa_offset 0
 477 02e4 67800000 		jr	ra
 478              	.LVL50:
 479              	.L17:
 480              		.cfi_restore_state
  65:test/buffer_CPP_API.cpp ****     }
 481              		.loc 1 65 9 is_stmt 1
  65:test/buffer_CPP_API.cpp ****     }
 482              		.loc 1 65 15 is_stmt 0
 483 02e8 03A70400 		lw	a4,0(s1)
  65:test/buffer_CPP_API.cpp ****     }
 484              		.loc 1 65 19
 485 02ec 3B092741 		subw	s2,a4,s2
  65:test/buffer_CPP_API.cpp ****     }
 486              		.loc 1 65 13
 487 02f0 3B09F900 		addw	s2,s2,a5
 488 02f4 6FF01FFC 		j	.L18
 489              		.cfi_endproc
 490              	.LFE10:
 492              		.section	.rodata.str1.8,"aMS",@progbits,1
 493              		.align	3
 494              	.LC0:
 495 0000 42756666 		.string	"Buffer deleted!\n"
 495      65722064 
 495      656C6574 
 495      6564210A 
 495      00
 496              		.text
 497              		.align	2
 498              		.globl	_ZN9BufferCPPD2Ev
 500              	_ZN9BufferCPPD2Ev:
 501              	.LFB6:
  11:test/buffer_CPP_API.cpp ****     Console::putc('\n');
 502              		.loc 1 11 1 is_stmt 1
 503              		.cfi_startproc
 504              		.cfi_personality 0x9b,DW.ref.__gxx_personality_v0
 505              		.cfi_lsda 0x1b,.LLSDA6
 506              	.LVL51:
 507 02f8 130101FE 		addi	sp,sp,-32
 508              		.cfi_def_cfa_offset 32
 509 02fc 233C1100 		sd	ra,24(sp)
 510 0300 23388100 		sd	s0,16(sp)
 511 0304 23349100 		sd	s1,8(sp)
 512              		.cfi_offset 1, -8
 513              		.cfi_offset 8, -16
 514              		.cfi_offset 9, -24
 515 0308 13040102 		addi	s0,sp,32
 516              		.cfi_def_cfa 8, 0
 517 030c 93040500 		mv	s1,a0
 518              	.LBB4:
  12:test/buffer_CPP_API.cpp ****     printString("Buffer deleted!\n");
 519              		.loc 1 12 5
  12:test/buffer_CPP_API.cpp ****     printString("Buffer deleted!\n");
 520              		.loc 1 12 18 is_stmt 0
GAS LISTING /tmp/cckpPQUS.s 			page 12


 521 0310 1305A000 		li	a0,10
 522              	.LVL52:
 523 0314 97000000 		call	_ZN7Console4putcEc
 523      E7800000 
 524              	.LVL53:
  13:test/buffer_CPP_API.cpp ****     while (getCnt()) {
 525              		.loc 1 13 5 is_stmt 1
  13:test/buffer_CPP_API.cpp ****     while (getCnt()) {
 526              		.loc 1 13 16 is_stmt 0
 527 031c 17050000 		lla	a0,.LC0
 527      13050500 
 528 0324 97000000 		call	_Z11printStringPKc
 528      E7800000 
 529              	.LVL54:
 530              	.L22:
  14:test/buffer_CPP_API.cpp ****         char ch = buffer[head];
 531              		.loc 1 14 5 is_stmt 1
  14:test/buffer_CPP_API.cpp ****         char ch = buffer[head];
 532              		.loc 1 14 19
  14:test/buffer_CPP_API.cpp ****         char ch = buffer[head];
 533              		.loc 1 14 18 is_stmt 0
 534 032c 13850400 		mv	a0,s1
 535 0330 97000000 		call	_ZN9BufferCPP6getCntEv
 535      E7800000 
 536              	.LVL55:
  14:test/buffer_CPP_API.cpp ****         char ch = buffer[head];
 537              		.loc 1 14 19
 538 0338 630C0502 		beqz	a0,.L21
 539              	.LBB5:
  15:test/buffer_CPP_API.cpp ****         Console::putc(ch);
 540              		.loc 1 15 9 is_stmt 1
  15:test/buffer_CPP_API.cpp ****         Console::putc(ch);
 541              		.loc 1 15 19 is_stmt 0
 542 033c 83B78400 		ld	a5,8(s1)
  15:test/buffer_CPP_API.cpp ****         Console::putc(ch);
 543              		.loc 1 15 26
 544 0340 03A70401 		lw	a4,16(s1)
  15:test/buffer_CPP_API.cpp ****         Console::putc(ch);
 545              		.loc 1 15 30
 546 0344 13172700 		slli	a4,a4,2
 547 0348 B387E700 		add	a5,a5,a4
 548              	.LVL56:
  16:test/buffer_CPP_API.cpp ****         head = (head + 1) % cap;
 549              		.loc 1 16 9 is_stmt 1
  16:test/buffer_CPP_API.cpp ****         head = (head + 1) % cap;
 550              		.loc 1 16 22 is_stmt 0
 551 034c 03C50700 		lbu	a0,0(a5)
 552 0350 97000000 		call	_ZN7Console4putcEc
 552      E7800000 
 553              	.LVL57:
  17:test/buffer_CPP_API.cpp ****     }
 554              		.loc 1 17 9 is_stmt 1
  17:test/buffer_CPP_API.cpp ****     }
 555              		.loc 1 17 17 is_stmt 0
 556 0358 83A70401 		lw	a5,16(s1)
  17:test/buffer_CPP_API.cpp ****     }
 557              		.loc 1 17 22
GAS LISTING /tmp/cckpPQUS.s 			page 13


 558 035c 9B871700 		addiw	a5,a5,1
  17:test/buffer_CPP_API.cpp ****     }
 559              		.loc 1 17 29
 560 0360 03A70400 		lw	a4,0(s1)
  17:test/buffer_CPP_API.cpp ****     }
 561              		.loc 1 17 27
 562 0364 BBE7E702 		remw	a5,a5,a4
  17:test/buffer_CPP_API.cpp ****     }
 563              		.loc 1 17 14
 564 0368 23A8F400 		sw	a5,16(s1)
 565              	.LBE5:
  14:test/buffer_CPP_API.cpp ****         char ch = buffer[head];
 566              		.loc 1 14 5
 567 036c 6FF01FFC 		j	.L22
 568              	.L21:
  19:test/buffer_CPP_API.cpp ****     Console::putc('\n');
 569              		.loc 1 19 5 is_stmt 1
  19:test/buffer_CPP_API.cpp ****     Console::putc('\n');
 570              		.loc 1 19 18 is_stmt 0
 571 0370 13051002 		li	a0,33
 572 0374 97000000 		call	_ZN7Console4putcEc
 572      E7800000 
 573              	.LVL58:
  20:test/buffer_CPP_API.cpp **** 
 574              		.loc 1 20 5 is_stmt 1
  20:test/buffer_CPP_API.cpp **** 
 575              		.loc 1 20 18 is_stmt 0
 576 037c 1305A000 		li	a0,10
 577 0380 97000000 		call	_ZN7Console4putcEc
 577      E7800000 
 578              	.LVL59:
  22:test/buffer_CPP_API.cpp ****     delete itemAvailable;
 579              		.loc 1 22 5 is_stmt 1
  22:test/buffer_CPP_API.cpp ****     delete itemAvailable;
 580              		.loc 1 22 13 is_stmt 0
 581 0388 03B58400 		ld	a0,8(s1)
 582 038c 97000000 		call	_Z8mem_freePv
 582      E7800000 
 583              	.LVL60:
  23:test/buffer_CPP_API.cpp ****     delete spaceAvailable;
 584              		.loc 1 23 5 is_stmt 1
  23:test/buffer_CPP_API.cpp ****     delete spaceAvailable;
 585              		.loc 1 23 12 is_stmt 0
 586 0394 03B50402 		ld	a0,32(s1)
  23:test/buffer_CPP_API.cpp ****     delete spaceAvailable;
 587              		.loc 1 23 25
 588 0398 63080500 		beqz	a0,.L23
  23:test/buffer_CPP_API.cpp ****     delete spaceAvailable;
 589              		.loc 1 23 12 discriminator 1
 590 039c 83370500 		ld	a5,0(a0)
 591 03a0 83B78700 		ld	a5,8(a5)
 592 03a4 E7800700 		jalr	a5
 593              	.LVL61:
 594              	.L23:
  24:test/buffer_CPP_API.cpp ****     delete mutexTail;
 595              		.loc 1 24 5 is_stmt 1
  24:test/buffer_CPP_API.cpp ****     delete mutexTail;
GAS LISTING /tmp/cckpPQUS.s 			page 14


 596              		.loc 1 24 12 is_stmt 0
 597 03a8 03B58401 		ld	a0,24(s1)
  24:test/buffer_CPP_API.cpp ****     delete mutexTail;
 598              		.loc 1 24 26
 599 03ac 63080500 		beqz	a0,.L24
  24:test/buffer_CPP_API.cpp ****     delete mutexTail;
 600              		.loc 1 24 12 discriminator 1
 601 03b0 83370500 		ld	a5,0(a0)
 602 03b4 83B78700 		ld	a5,8(a5)
 603 03b8 E7800700 		jalr	a5
 604              	.LVL62:
 605              	.L24:
  25:test/buffer_CPP_API.cpp ****     delete mutexHead;
 606              		.loc 1 25 5 is_stmt 1
  25:test/buffer_CPP_API.cpp ****     delete mutexHead;
 607              		.loc 1 25 12 is_stmt 0
 608 03bc 03B50403 		ld	a0,48(s1)
  25:test/buffer_CPP_API.cpp ****     delete mutexHead;
 609              		.loc 1 25 21
 610 03c0 63080500 		beqz	a0,.L25
  25:test/buffer_CPP_API.cpp ****     delete mutexHead;
 611              		.loc 1 25 12 discriminator 1
 612 03c4 83370500 		ld	a5,0(a0)
 613 03c8 83B78700 		ld	a5,8(a5)
 614 03cc E7800700 		jalr	a5
 615              	.LVL63:
 616              	.L25:
  26:test/buffer_CPP_API.cpp **** 
 617              		.loc 1 26 5 is_stmt 1
  26:test/buffer_CPP_API.cpp **** 
 618              		.loc 1 26 12 is_stmt 0
 619 03d0 03B58402 		ld	a0,40(s1)
  26:test/buffer_CPP_API.cpp **** 
 620              		.loc 1 26 21
 621 03d4 63080500 		beqz	a0,.L20
  26:test/buffer_CPP_API.cpp **** 
 622              		.loc 1 26 12 discriminator 1
 623 03d8 83370500 		ld	a5,0(a0)
 624 03dc 83B78700 		ld	a5,8(a5)
 625 03e0 E7800700 		jalr	a5
 626              	.LVL64:
 627              	.L20:
 628              	.LBE4:
  28:test/buffer_CPP_API.cpp **** 
 629              		.loc 1 28 1
 630 03e4 83308101 		ld	ra,24(sp)
 631              		.cfi_restore 1
 632 03e8 03340101 		ld	s0,16(sp)
 633              		.cfi_restore 8
 634              		.cfi_def_cfa 2, 32
 635 03ec 83348100 		ld	s1,8(sp)
 636              		.cfi_restore 9
 637              	.LVL65:
 638 03f0 13010102 		addi	sp,sp,32
 639              		.cfi_def_cfa_offset 0
 640 03f4 67800000 		jr	ra
 641              		.cfi_endproc
GAS LISTING /tmp/cckpPQUS.s 			page 15


 642              	.LFE6:
 643              		.section	.gcc_except_table
 644              	.LLSDA6:
 645 00a1 FF       		.byte	0xff
 646 00a2 FF       		.byte	0xff
 647 00a3 03       		.byte	0x3
 648 00a4 00       		.byte	0
 649              		.text
 651              		.globl	_ZN9BufferCPPD1Ev
 652              		.set	_ZN9BufferCPPD1Ev,_ZN9BufferCPPD2Ev
 653              	.Letext0:
 654              		.file 2 "test/../h/../lib/hw.h"
 655              		.file 3 "test/../h/syscall_cpp.hpp"
 656              		.file 4 "test/buffer_CPP_API.hpp"
 657              		.file 5 "test/../h/syscall_c.hpp"
 658              		.file 6 "test/printing.hpp"
 2492              		.align	3
 2495              	DW.ref.__gxx_personality_v0:
 2496 0000 00000000 		.dword	__gxx_personality_v0
 2496      00000000 
 2497              		.ident	"GCC: () 9.3.0"
GAS LISTING /tmp/cckpPQUS.s 			page 16


DEFINED SYMBOLS
                            *ABS*:0000000000000000 buffer_CPP_API.cpp
     /tmp/cckpPQUS.s:12     .text:0000000000000000 _ZN9BufferCPPC2Ei
     /tmp/cckpPQUS.s:16     .text:0000000000000000 .L0 
     /tmp/cckpPQUS.s:2495   .sdata.DW.ref.__gxx_personality_v0:0000000000000000 DW.ref.__gxx_personality_v0
     /tmp/cckpPQUS.s:20     .text:0000000000000000 .L0 
     /tmp/cckpPQUS.s:21     .text:0000000000000004 .L0 
     /tmp/cckpPQUS.s:27     .text:0000000000000018 .L0 
     /tmp/cckpPQUS.s:28     .text:0000000000000018 .L0 
     /tmp/cckpPQUS.s:29     .text:0000000000000018 .L0 
     /tmp/cckpPQUS.s:30     .text:0000000000000018 .L0 
     /tmp/cckpPQUS.s:31     .text:0000000000000018 .L0 
     /tmp/cckpPQUS.s:33     .text:000000000000001c .L0 
     /tmp/cckpPQUS.s:38     .text:0000000000000024 .L0 
     /tmp/cckpPQUS.s:42     .text:000000000000002c .L0 
     /tmp/cckpPQUS.s:46     .text:0000000000000038 .L0 
     /tmp/cckpPQUS.s:47     .text:0000000000000038 .L0 
     /tmp/cckpPQUS.s:52     .text:0000000000000044 .L0 
     /tmp/cckpPQUS.s:54     .text:0000000000000048 .L0 
     /tmp/cckpPQUS.s:55     .text:0000000000000048 .L0 
     /tmp/cckpPQUS.s:66     .text:0000000000000064 .L0 
     /tmp/cckpPQUS.s:68     .text:0000000000000068 .L0 
     /tmp/cckpPQUS.s:69     .text:0000000000000068 .L0 
     /tmp/cckpPQUS.s:81     .text:0000000000000084 .L0 
     /tmp/cckpPQUS.s:83     .text:0000000000000088 .L0 
     /tmp/cckpPQUS.s:84     .text:0000000000000088 .L0 
     /tmp/cckpPQUS.s:96     .text:00000000000000a4 .L0 
     /tmp/cckpPQUS.s:98     .text:00000000000000a8 .L0 
     /tmp/cckpPQUS.s:99     .text:00000000000000a8 .L0 
     /tmp/cckpPQUS.s:111    .text:00000000000000c4 .L0 
     /tmp/cckpPQUS.s:114    .text:00000000000000c8 .L0 
     /tmp/cckpPQUS.s:115    .text:00000000000000cc .L0 
     /tmp/cckpPQUS.s:116    .text:00000000000000cc .L0 
     /tmp/cckpPQUS.s:118    .text:00000000000000d0 .L0 
     /tmp/cckpPQUS.s:119    .text:00000000000000d0 .L0 
     /tmp/cckpPQUS.s:121    .text:00000000000000d4 .L0 
     /tmp/cckpPQUS.s:124    .text:00000000000000d8 .L0 
     /tmp/cckpPQUS.s:126    .text:00000000000000dc .L0 
     /tmp/cckpPQUS.s:128    .text:00000000000000e0 .L0 
     /tmp/cckpPQUS.s:132    .text:00000000000000e4 .L0 
     /tmp/cckpPQUS.s:137    .text:00000000000000e8 .L0 
     /tmp/cckpPQUS.s:149    .text:0000000000000104 .L0 
     /tmp/cckpPQUS.s:161    .text:0000000000000120 .L0 
     /tmp/cckpPQUS.s:173    .text:000000000000013c .L0 
     /tmp/cckpPQUS.s:182    .text:0000000000000154 .L0 
     /tmp/cckpPQUS.s:12     .text:0000000000000000 _ZN9BufferCPPC1Ei
     /tmp/cckpPQUS.s:246    .text:0000000000000154 _ZN9BufferCPP3putEi
     /tmp/cckpPQUS.s:249    .text:0000000000000154 .L0 
     /tmp/cckpPQUS.s:251    .text:0000000000000154 .L0 
     /tmp/cckpPQUS.s:252    .text:0000000000000158 .L0 
     /tmp/cckpPQUS.s:257    .text:0000000000000168 .L0 
     /tmp/cckpPQUS.s:258    .text:0000000000000168 .L0 
     /tmp/cckpPQUS.s:259    .text:0000000000000168 .L0 
     /tmp/cckpPQUS.s:260    .text:0000000000000168 .L0 
     /tmp/cckpPQUS.s:262    .text:000000000000016c .L0 
     /tmp/cckpPQUS.s:266    .text:0000000000000174 .L0 
     /tmp/cckpPQUS.s:267    .text:0000000000000174 .L0 
GAS LISTING /tmp/cckpPQUS.s 			page 17


     /tmp/cckpPQUS.s:272    .text:0000000000000180 .L0 
     /tmp/cckpPQUS.s:273    .text:0000000000000180 .L0 
     /tmp/cckpPQUS.s:277    .text:000000000000018c .L0 
     /tmp/cckpPQUS.s:279    .text:0000000000000190 .L0 
     /tmp/cckpPQUS.s:281    .text:0000000000000194 .L0 
     /tmp/cckpPQUS.s:284    .text:000000000000019c .L0 
     /tmp/cckpPQUS.s:286    .text:00000000000001a0 .L0 
     /tmp/cckpPQUS.s:287    .text:00000000000001a0 .L0 
     /tmp/cckpPQUS.s:289    .text:00000000000001a4 .L0 
     /tmp/cckpPQUS.s:291    .text:00000000000001a8 .L0 
     /tmp/cckpPQUS.s:293    .text:00000000000001ac .L0 
     /tmp/cckpPQUS.s:295    .text:00000000000001b0 .L0 
     /tmp/cckpPQUS.s:297    .text:00000000000001b4 .L0 
     /tmp/cckpPQUS.s:298    .text:00000000000001b4 .L0 
     /tmp/cckpPQUS.s:302    .text:00000000000001c0 .L0 
     /tmp/cckpPQUS.s:303    .text:00000000000001c0 .L0 
     /tmp/cckpPQUS.s:307    .text:00000000000001cc .L0 
     /tmp/cckpPQUS.s:308    .text:00000000000001d0 .L0 
     /tmp/cckpPQUS.s:310    .text:00000000000001d4 .L0 
     /tmp/cckpPQUS.s:311    .text:00000000000001d4 .L0 
     /tmp/cckpPQUS.s:313    .text:00000000000001d8 .L0 
     /tmp/cckpPQUS.s:316    .text:00000000000001dc .L0 
     /tmp/cckpPQUS.s:318    .text:00000000000001e0 .L0 
     /tmp/cckpPQUS.s:320    .text:00000000000001e4 .L0 
     /tmp/cckpPQUS.s:326    .text:00000000000001e4 _ZN9BufferCPP3getEv
     /tmp/cckpPQUS.s:329    .text:00000000000001e4 .L0 
     /tmp/cckpPQUS.s:331    .text:00000000000001e4 .L0 
     /tmp/cckpPQUS.s:332    .text:00000000000001e8 .L0 
     /tmp/cckpPQUS.s:337    .text:00000000000001f8 .L0 
     /tmp/cckpPQUS.s:338    .text:00000000000001f8 .L0 
     /tmp/cckpPQUS.s:339    .text:00000000000001f8 .L0 
     /tmp/cckpPQUS.s:340    .text:00000000000001f8 .L0 
     /tmp/cckpPQUS.s:342    .text:00000000000001fc .L0 
     /tmp/cckpPQUS.s:345    .text:0000000000000200 .L0 
     /tmp/cckpPQUS.s:346    .text:0000000000000200 .L0 
     /tmp/cckpPQUS.s:351    .text:000000000000020c .L0 
     /tmp/cckpPQUS.s:352    .text:000000000000020c .L0 
     /tmp/cckpPQUS.s:356    .text:0000000000000218 .L0 
     /tmp/cckpPQUS.s:357    .text:0000000000000218 .L0 
     /tmp/cckpPQUS.s:359    .text:000000000000021c .L0 
     /tmp/cckpPQUS.s:361    .text:0000000000000220 .L0 
     /tmp/cckpPQUS.s:364    .text:0000000000000228 .L0 
     /tmp/cckpPQUS.s:367    .text:000000000000022c .L0 
     /tmp/cckpPQUS.s:368    .text:000000000000022c .L0 
     /tmp/cckpPQUS.s:370    .text:0000000000000230 .L0 
     /tmp/cckpPQUS.s:372    .text:0000000000000234 .L0 
     /tmp/cckpPQUS.s:374    .text:0000000000000238 .L0 
     /tmp/cckpPQUS.s:376    .text:000000000000023c .L0 
     /tmp/cckpPQUS.s:377    .text:000000000000023c .L0 
     /tmp/cckpPQUS.s:381    .text:0000000000000248 .L0 
     /tmp/cckpPQUS.s:382    .text:0000000000000248 .L0 
     /tmp/cckpPQUS.s:386    .text:0000000000000254 .L0 
     /tmp/cckpPQUS.s:387    .text:0000000000000254 .L0 
     /tmp/cckpPQUS.s:389    .text:000000000000025c .L0 
     /tmp/cckpPQUS.s:391    .text:0000000000000260 .L0 
     /tmp/cckpPQUS.s:392    .text:0000000000000260 .L0 
     /tmp/cckpPQUS.s:394    .text:0000000000000264 .L0 
GAS LISTING /tmp/cckpPQUS.s 			page 18


     /tmp/cckpPQUS.s:397    .text:0000000000000268 .L0 
     /tmp/cckpPQUS.s:400    .text:000000000000026c .L0 
     /tmp/cckpPQUS.s:402    .text:0000000000000270 .L0 
     /tmp/cckpPQUS.s:408    .text:0000000000000270 _ZN9BufferCPP6getCntEv
     /tmp/cckpPQUS.s:411    .text:0000000000000270 .L0 
     /tmp/cckpPQUS.s:413    .text:0000000000000270 .L0 
     /tmp/cckpPQUS.s:414    .text:0000000000000274 .L0 
     /tmp/cckpPQUS.s:419    .text:0000000000000284 .L0 
     /tmp/cckpPQUS.s:420    .text:0000000000000284 .L0 
     /tmp/cckpPQUS.s:421    .text:0000000000000284 .L0 
     /tmp/cckpPQUS.s:422    .text:0000000000000284 .L0 
     /tmp/cckpPQUS.s:424    .text:0000000000000288 .L0 
     /tmp/cckpPQUS.s:427    .text:000000000000028c .L0 
     /tmp/cckpPQUS.s:428    .text:000000000000028c .L0 
     /tmp/cckpPQUS.s:429    .text:000000000000028c .L0 
     /tmp/cckpPQUS.s:434    .text:0000000000000298 .L0 
     /tmp/cckpPQUS.s:435    .text:0000000000000298 .L0 
     /tmp/cckpPQUS.s:439    .text:00000000000002a4 .L0 
     /tmp/cckpPQUS.s:440    .text:00000000000002a4 .L0 
     /tmp/cckpPQUS.s:442    .text:00000000000002a8 .L0 
     /tmp/cckpPQUS.s:444    .text:00000000000002ac .L0 
     /tmp/cckpPQUS.s:446    .text:00000000000002b0 .L0 
     /tmp/cckpPQUS.s:447    .text:00000000000002b0 .L0 
     /tmp/cckpPQUS.s:451    .text:00000000000002b4 .L0 
     /tmp/cckpPQUS.s:452    .text:00000000000002b4 .L0 
     /tmp/cckpPQUS.s:456    .text:00000000000002c0 .L0 
     /tmp/cckpPQUS.s:457    .text:00000000000002c0 .L0 
     /tmp/cckpPQUS.s:461    .text:00000000000002cc .L0 
     /tmp/cckpPQUS.s:462    .text:00000000000002cc .L0 
     /tmp/cckpPQUS.s:464    .text:00000000000002d4 .L0 
     /tmp/cckpPQUS.s:465    .text:00000000000002d4 .L0 
     /tmp/cckpPQUS.s:467    .text:00000000000002d8 .L0 
     /tmp/cckpPQUS.s:468    .text:00000000000002d8 .L0 
     /tmp/cckpPQUS.s:470    .text:00000000000002dc .L0 
     /tmp/cckpPQUS.s:473    .text:00000000000002e0 .L0 
     /tmp/cckpPQUS.s:476    .text:00000000000002e4 .L0 
     /tmp/cckpPQUS.s:480    .text:00000000000002e8 .L0 
     /tmp/cckpPQUS.s:482    .text:00000000000002e8 .L0 
     /tmp/cckpPQUS.s:483    .text:00000000000002e8 .L0 
     /tmp/cckpPQUS.s:485    .text:00000000000002ec .L0 
     /tmp/cckpPQUS.s:487    .text:00000000000002f0 .L0 
     /tmp/cckpPQUS.s:489    .text:00000000000002f8 .L0 
     /tmp/cckpPQUS.s:500    .text:00000000000002f8 _ZN9BufferCPPD2Ev
     /tmp/cckpPQUS.s:503    .text:00000000000002f8 .L0 
     /tmp/cckpPQUS.s:507    .text:00000000000002f8 .L0 
     /tmp/cckpPQUS.s:508    .text:00000000000002fc .L0 
     /tmp/cckpPQUS.s:512    .text:0000000000000308 .L0 
     /tmp/cckpPQUS.s:513    .text:0000000000000308 .L0 
     /tmp/cckpPQUS.s:514    .text:0000000000000308 .L0 
     /tmp/cckpPQUS.s:516    .text:000000000000030c .L0 
     /tmp/cckpPQUS.s:520    .text:0000000000000310 .L0 
     /tmp/cckpPQUS.s:521    .text:0000000000000310 .L0 
     /tmp/cckpPQUS.s:526    .text:000000000000031c .L0 
     /tmp/cckpPQUS.s:527    .text:000000000000031c .L0 
     /tmp/cckpPQUS.s:532    .text:000000000000032c .L0 
     /tmp/cckpPQUS.s:533    .text:000000000000032c .L0 
     /tmp/cckpPQUS.s:534    .text:000000000000032c .L0 
GAS LISTING /tmp/cckpPQUS.s 			page 19


     /tmp/cckpPQUS.s:538    .text:0000000000000338 .L0 
     /tmp/cckpPQUS.s:541    .text:000000000000033c .L0 
     /tmp/cckpPQUS.s:542    .text:000000000000033c .L0 
     /tmp/cckpPQUS.s:544    .text:0000000000000340 .L0 
     /tmp/cckpPQUS.s:546    .text:0000000000000344 .L0 
     /tmp/cckpPQUS.s:550    .text:000000000000034c .L0 
     /tmp/cckpPQUS.s:551    .text:000000000000034c .L0 
     /tmp/cckpPQUS.s:555    .text:0000000000000358 .L0 
     /tmp/cckpPQUS.s:556    .text:0000000000000358 .L0 
     /tmp/cckpPQUS.s:558    .text:000000000000035c .L0 
     /tmp/cckpPQUS.s:560    .text:0000000000000360 .L0 
     /tmp/cckpPQUS.s:562    .text:0000000000000364 .L0 
     /tmp/cckpPQUS.s:564    .text:0000000000000368 .L0 
     /tmp/cckpPQUS.s:567    .text:000000000000036c .L0 
     /tmp/cckpPQUS.s:570    .text:0000000000000370 .L0 
     /tmp/cckpPQUS.s:571    .text:0000000000000370 .L0 
     /tmp/cckpPQUS.s:575    .text:000000000000037c .L0 
     /tmp/cckpPQUS.s:576    .text:000000000000037c .L0 
     /tmp/cckpPQUS.s:580    .text:0000000000000388 .L0 
     /tmp/cckpPQUS.s:581    .text:0000000000000388 .L0 
     /tmp/cckpPQUS.s:585    .text:0000000000000394 .L0 
     /tmp/cckpPQUS.s:586    .text:0000000000000394 .L0 
     /tmp/cckpPQUS.s:588    .text:0000000000000398 .L0 
     /tmp/cckpPQUS.s:590    .text:000000000000039c .L0 
     /tmp/cckpPQUS.s:596    .text:00000000000003a8 .L0 
     /tmp/cckpPQUS.s:597    .text:00000000000003a8 .L0 
     /tmp/cckpPQUS.s:599    .text:00000000000003ac .L0 
     /tmp/cckpPQUS.s:601    .text:00000000000003b0 .L0 
     /tmp/cckpPQUS.s:607    .text:00000000000003bc .L0 
     /tmp/cckpPQUS.s:608    .text:00000000000003bc .L0 
     /tmp/cckpPQUS.s:610    .text:00000000000003c0 .L0 
     /tmp/cckpPQUS.s:612    .text:00000000000003c4 .L0 
     /tmp/cckpPQUS.s:618    .text:00000000000003d0 .L0 
     /tmp/cckpPQUS.s:619    .text:00000000000003d0 .L0 
     /tmp/cckpPQUS.s:621    .text:00000000000003d4 .L0 
     /tmp/cckpPQUS.s:623    .text:00000000000003d8 .L0 
     /tmp/cckpPQUS.s:630    .text:00000000000003e4 .L0 
     /tmp/cckpPQUS.s:631    .text:00000000000003e8 .L0 
     /tmp/cckpPQUS.s:633    .text:00000000000003ec .L0 
     /tmp/cckpPQUS.s:634    .text:00000000000003ec .L0 
     /tmp/cckpPQUS.s:636    .text:00000000000003f0 .L0 
     /tmp/cckpPQUS.s:639    .text:00000000000003f4 .L0 
     /tmp/cckpPQUS.s:641    .text:00000000000003f8 .L0 
     /tmp/cckpPQUS.s:500    .text:00000000000002f8 _ZN9BufferCPPD1Ev
     /tmp/cckpPQUS.s:659    .text:00000000000003f8 .L0 
     /tmp/cckpPQUS.s:494    .rodata.str1.8:0000000000000000 .LC0
     /tmp/cckpPQUS.s:527    .text:000000000000031c .L0 
     /tmp/cckpPQUS.s:479    .text:00000000000002e8 .L17
     /tmp/cckpPQUS.s:449    .text:00000000000002b4 .L18
     /tmp/cckpPQUS.s:568    .text:0000000000000370 .L21
     /tmp/cckpPQUS.s:530    .text:000000000000032c .L22
     /tmp/cckpPQUS.s:594    .text:00000000000003a8 .L23
     /tmp/cckpPQUS.s:605    .text:00000000000003bc .L24
     /tmp/cckpPQUS.s:616    .text:00000000000003d0 .L25
     /tmp/cckpPQUS.s:627    .text:00000000000003e4 .L20
     /tmp/cckpPQUS.s:48     .text:000000000000003c .LEHB0
     /tmp/cckpPQUS.s:13     .text:0000000000000000 .LFB3
GAS LISTING /tmp/cckpPQUS.s 			page 20


     /tmp/cckpPQUS.s:58     .text:0000000000000054 .LEHE0
     /tmp/cckpPQUS.s:61     .text:000000000000005c .LEHB1
     /tmp/cckpPQUS.s:64     .text:0000000000000064 .LEHE1
     /tmp/cckpPQUS.s:131    .text:00000000000000e4 .L6
     /tmp/cckpPQUS.s:70     .text:000000000000006c .LEHB2
     /tmp/cckpPQUS.s:73     .text:0000000000000074 .LEHE2
     /tmp/cckpPQUS.s:76     .text:000000000000007c .LEHB3
     /tmp/cckpPQUS.s:79     .text:0000000000000084 .LEHE3
     /tmp/cckpPQUS.s:145    .text:0000000000000100 .L7
     /tmp/cckpPQUS.s:85     .text:000000000000008c .LEHB4
     /tmp/cckpPQUS.s:88     .text:0000000000000094 .LEHE4
     /tmp/cckpPQUS.s:91     .text:000000000000009c .LEHB5
     /tmp/cckpPQUS.s:94     .text:00000000000000a4 .LEHE5
     /tmp/cckpPQUS.s:157    .text:000000000000011c .L8
     /tmp/cckpPQUS.s:100    .text:00000000000000ac .LEHB6
     /tmp/cckpPQUS.s:103    .text:00000000000000b4 .LEHE6
     /tmp/cckpPQUS.s:106    .text:00000000000000bc .LEHB7
     /tmp/cckpPQUS.s:109    .text:00000000000000c4 .LEHE7
     /tmp/cckpPQUS.s:169    .text:0000000000000138 .L9
     /tmp/cckpPQUS.s:141    .text:00000000000000f8 .LEHB8
     /tmp/cckpPQUS.s:144    .text:0000000000000100 .LEHE8
     /tmp/cckpPQUS.s:153    .text:0000000000000114 .LEHB9
     /tmp/cckpPQUS.s:156    .text:000000000000011c .LEHE9
     /tmp/cckpPQUS.s:165    .text:0000000000000130 .LEHB10
     /tmp/cckpPQUS.s:168    .text:0000000000000138 .LEHE10
     /tmp/cckpPQUS.s:177    .text:000000000000014c .LEHB11
     /tmp/cckpPQUS.s:180    .text:0000000000000154 .LEHE11
     /tmp/cckpPQUS.s:1476   .debug_abbrev:0000000000000000 .Ldebug_abbrev0
     /tmp/cckpPQUS.s:2375   .debug_str:0000000000000064 .LASF50
     /tmp/cckpPQUS.s:2369   .debug_str:000000000000002c .LASF51
     /tmp/cckpPQUS.s:2445   .debug_str:00000000000002fb .LASF52
     /tmp/cckpPQUS.s:8      .text:0000000000000000 .Ltext0
     /tmp/cckpPQUS.s:653    .text:00000000000003f8 .Letext0
     /tmp/cckpPQUS.s:2361   .debug_line:0000000000000000 .Ldebug_line0
     /tmp/cckpPQUS.s:2437   .debug_str:00000000000002d4 .LASF0
     /tmp/cckpPQUS.s:2411   .debug_str:0000000000000215 .LASF1
     /tmp/cckpPQUS.s:2405   .debug_str:00000000000001f0 .LASF2
     /tmp/cckpPQUS.s:2383   .debug_str:000000000000014f .LASF4
     /tmp/cckpPQUS.s:2409   .debug_str:0000000000000203 .LASF3
     /tmp/cckpPQUS.s:2413   .debug_str:0000000000000228 .LASF5
     /tmp/cckpPQUS.s:2365   .debug_str:0000000000000005 .LASF6
     /tmp/cckpPQUS.s:2395   .debug_str:000000000000019b .LASF7
     /tmp/cckpPQUS.s:2373   .debug_str:0000000000000054 .LASF8
     /tmp/cckpPQUS.s:2379   .debug_str:000000000000012f .LASF9
     /tmp/cckpPQUS.s:2487   .debug_str:0000000000000405 .LASF10
     /tmp/cckpPQUS.s:2399   .debug_str:00000000000001bc .LASF11
     /tmp/cckpPQUS.s:2473   .debug_str:00000000000003b6 .LASF12
     /tmp/cckpPQUS.s:2451   .debug_str:0000000000000337 .LASF13
     /tmp/cckpPQUS.s:2417   .debug_str:000000000000023e .LASF14
     /tmp/cckpPQUS.s:2389   .debug_str:0000000000000162 .LASF15
     /tmp/cckpPQUS.s:2447   .debug_str:0000000000000314 .LASF16
     /tmp/cckpPQUS.s:2455   .debug_str:0000000000000350 .LASF18
     /tmp/cckpPQUS.s:2407   .debug_str:00000000000001fe .LASF53
     /tmp/cckpPQUS.s:2461   .debug_str:0000000000000374 .LASF54
     /tmp/cckpPQUS.s:2459   .debug_str:000000000000036f .LASF55
     /tmp/cckpPQUS.s:2421   .debug_str:0000000000000254 .LASF56
     /tmp/cckpPQUS.s:2441   .debug_str:00000000000002eb .LASF17
GAS LISTING /tmp/cckpPQUS.s 			page 21


     /tmp/cckpPQUS.s:2419   .debug_str:000000000000024a .LASF19
     /tmp/cckpPQUS.s:2465   .debug_str:0000000000000399 .LASF20
     /tmp/cckpPQUS.s:2431   .debug_str:00000000000002b6 .LASF21
     /tmp/cckpPQUS.s:2467   .debug_str:00000000000003a0 .LASF22
     /tmp/cckpPQUS.s:2415   .debug_str:000000000000022f .LASF23
     /tmp/cckpPQUS.s:2393   .debug_str:000000000000018d .LASF24
     /tmp/cckpPQUS.s:2439   .debug_str:00000000000002e1 .LASF25
     /tmp/cckpPQUS.s:2483   .debug_str:00000000000003ef .LASF26
     /tmp/cckpPQUS.s:2401   .debug_str:00000000000001cb .LASF28
     /tmp/cckpPQUS.s:2443   .debug_str:00000000000002f0 .LASF27
     /tmp/cckpPQUS.s:2463   .debug_str:0000000000000387 .LASF29
     /tmp/cckpPQUS.s:2433   .debug_str:00000000000002bb .LASF57
     /tmp/cckpPQUS.s:2367   .debug_str:0000000000000018 .LASF58
     /tmp/cckpPQUS.s:2387   .debug_str:000000000000015b .LASF30
     /tmp/cckpPQUS.s:2457   .debug_str:0000000000000358 .LASF31
     /tmp/cckpPQUS.s:2477   .debug_str:00000000000003d0 .LASF59
     /tmp/cckpPQUS.s:2391   .debug_str:0000000000000178 .LASF32
     /tmp/cckpPQUS.s:2435   .debug_str:00000000000002cf .LASF34
     /tmp/cckpPQUS.s:2427   .debug_str:0000000000000287 .LASF33
     /tmp/cckpPQUS.s:2377   .debug_str:0000000000000128 .LASF35
     /tmp/cckpPQUS.s:409    .text:0000000000000270 .LFB10
     /tmp/cckpPQUS.s:490    .text:00000000000002f8 .LFE10
     /tmp/cckpPQUS.s:2385   .debug_str:0000000000000156 .LASF36
     /tmp/cckpPQUS.s:2156   .debug_loc:0000000000000000 .LLST6
     /tmp/cckpPQUS.s:2178   .debug_loc:000000000000005f .LLST7
     /tmp/cckpPQUS.s:432    .text:0000000000000298 .LVL43
     /tmp/cckpPQUS.s:437    .text:00000000000002a4 .LVL44
     /tmp/cckpPQUS.s:454    .text:00000000000002c0 .LVL46
     /tmp/cckpPQUS.s:459    .text:00000000000002cc .LVL47
     /tmp/cckpPQUS.s:327    .text:00000000000001e4 .LFB9
     /tmp/cckpPQUS.s:403    .text:0000000000000270 .LFE9
     /tmp/cckpPQUS.s:2185   .debug_loc:0000000000000082 .LLST4
     /tmp/cckpPQUS.s:2203   .debug_loc:00000000000000ce .LLST5
     /tmp/cckpPQUS.s:349    .text:000000000000020c .LVL34
     /tmp/cckpPQUS.s:354    .text:0000000000000218 .LVL35
     /tmp/cckpPQUS.s:379    .text:0000000000000248 .LVL37
     /tmp/cckpPQUS.s:384    .text:0000000000000254 .LVL38
     /tmp/cckpPQUS.s:247    .text:0000000000000154 .LFB8
     /tmp/cckpPQUS.s:321    .text:00000000000001e4 .LFE8
     /tmp/cckpPQUS.s:2214   .debug_loc:0000000000000104 .LLST2
     /tmp/cckpPQUS.s:2232   .debug_loc:0000000000000150 .LLST3
     /tmp/cckpPQUS.s:270    .text:0000000000000180 .LVL27
     /tmp/cckpPQUS.s:275    .text:000000000000018c .LVL28
     /tmp/cckpPQUS.s:300    .text:00000000000001c0 .LVL29
     /tmp/cckpPQUS.s:305    .text:00000000000001cc .LVL30
     /tmp/cckpPQUS.s:2469   .debug_str:00000000000003a5 .LASF37
     /tmp/cckpPQUS.s:2423   .debug_str:0000000000000267 .LASF38
     /tmp/cckpPQUS.s:501    .text:00000000000002f8 .LFB6
     /tmp/cckpPQUS.s:642    .text:00000000000003f8 .LFE6
     /tmp/cckpPQUS.s:2246   .debug_loc:0000000000000189 .LLST8
     /tmp/cckpPQUS.s:553    .text:0000000000000358 .LVL57
     /tmp/cckpPQUS.s:539    .text:000000000000033c .LBB5
     /tmp/cckpPQUS.s:565    .text:000000000000036c .LBE5
     /tmp/cckpPQUS.s:2264   .debug_loc:00000000000001d5 .LLST9
     /tmp/cckpPQUS.s:524    .text:000000000000031c .LVL53
     /tmp/cckpPQUS.s:529    .text:000000000000032c .LVL54
     /tmp/cckpPQUS.s:536    .text:0000000000000338 .LVL55
GAS LISTING /tmp/cckpPQUS.s 			page 22


     /tmp/cckpPQUS.s:573    .text:000000000000037c .LVL58
     /tmp/cckpPQUS.s:578    .text:0000000000000388 .LVL59
     /tmp/cckpPQUS.s:583    .text:0000000000000394 .LVL60
     /tmp/cckpPQUS.s:2363   .debug_str:0000000000000000 .LASF60
     /tmp/cckpPQUS.s:2381   .debug_str:000000000000013d .LASF39
     /tmp/cckpPQUS.s:183    .text:0000000000000154 .LFE3
     /tmp/cckpPQUS.s:2272   .debug_loc:00000000000001f9 .LLST0
     /tmp/cckpPQUS.s:2334   .debug_loc:00000000000002e9 .LLST1
     /tmp/cckpPQUS.s:50     .text:0000000000000044 .LVL2
     /tmp/cckpPQUS.s:57     .text:0000000000000054 .LVL3
     /tmp/cckpPQUS.s:63     .text:0000000000000064 .LVL4
     /tmp/cckpPQUS.s:72     .text:0000000000000074 .LVL5
     /tmp/cckpPQUS.s:78     .text:0000000000000084 .LVL6
     /tmp/cckpPQUS.s:87     .text:0000000000000094 .LVL7
     /tmp/cckpPQUS.s:93     .text:00000000000000a4 .LVL8
     /tmp/cckpPQUS.s:102    .text:00000000000000b4 .LVL9
     /tmp/cckpPQUS.s:108    .text:00000000000000c4 .LVL10
     /tmp/cckpPQUS.s:139    .text:00000000000000f4 .LVL14
     /tmp/cckpPQUS.s:143    .text:0000000000000100 .LVL15
     /tmp/cckpPQUS.s:151    .text:0000000000000110 .LVL17
     /tmp/cckpPQUS.s:155    .text:000000000000011c .LVL18
     /tmp/cckpPQUS.s:163    .text:000000000000012c .LVL20
     /tmp/cckpPQUS.s:167    .text:0000000000000138 .LVL21
     /tmp/cckpPQUS.s:175    .text:0000000000000148 .LVL23
     /tmp/cckpPQUS.s:179    .text:0000000000000154 .LVL24
     /tmp/cckpPQUS.s:2403   .debug_str:00000000000001dd .LASF40
     /tmp/cckpPQUS.s:2485   .debug_str:00000000000003f9 .LASF41
     /tmp/cckpPQUS.s:2397   .debug_str:00000000000001ae .LASF42
     /tmp/cckpPQUS.s:2453   .debug_str:0000000000000347 .LASF43
     /tmp/cckpPQUS.s:2425   .debug_str:0000000000000279 .LASF44
     /tmp/cckpPQUS.s:2475   .debug_str:00000000000003c6 .LASF45
     /tmp/cckpPQUS.s:2479   .debug_str:00000000000003da .LASF46
     /tmp/cckpPQUS.s:2449   .debug_str:000000000000032a .LASF47
     /tmp/cckpPQUS.s:2471   .debug_str:00000000000003af .LASF48
     /tmp/cckpPQUS.s:2371   .debug_str:0000000000000044 .LASF49
     /tmp/cckpPQUS.s:2481   .debug_str:00000000000003e0 .LASF61
     /tmp/cckpPQUS.s:2429   .debug_str:000000000000029e .LASF62
     /tmp/cckpPQUS.s:412    .text:0000000000000270 .LVL41
     /tmp/cckpPQUS.s:430    .text:0000000000000290 .LVL42
     /tmp/cckpPQUS.s:471    .text:00000000000002dc .LVL48
     /tmp/cckpPQUS.s:478    .text:00000000000002e8 .LVL50
     /tmp/cckpPQUS.s:448    .text:00000000000002b4 .LVL45
     /tmp/cckpPQUS.s:474    .text:00000000000002e0 .LVL49
     /tmp/cckpPQUS.s:330    .text:00000000000001e4 .LVL32
     /tmp/cckpPQUS.s:347    .text:0000000000000204 .LVL33
     /tmp/cckpPQUS.s:395    .text:0000000000000264 .LVL39
     /tmp/cckpPQUS.s:365    .text:000000000000022c .LVL36
     /tmp/cckpPQUS.s:398    .text:0000000000000268 .LVL40
     /tmp/cckpPQUS.s:250    .text:0000000000000154 .LVL25
     /tmp/cckpPQUS.s:268    .text:0000000000000178 .LVL26
     /tmp/cckpPQUS.s:314    .text:00000000000001d8 .LVL31
     /tmp/cckpPQUS.s:506    .text:00000000000002f8 .LVL51
     /tmp/cckpPQUS.s:522    .text:0000000000000314 .LVL52
     /tmp/cckpPQUS.s:637    .text:00000000000003f0 .LVL65
     /tmp/cckpPQUS.s:548    .text:000000000000034c .LVL56
     /tmp/cckpPQUS.s:19     .text:0000000000000000 .LVL0
     /tmp/cckpPQUS.s:40     .text:000000000000002c .LVL1
GAS LISTING /tmp/cckpPQUS.s 			page 23


     /tmp/cckpPQUS.s:122    .text:00000000000000d4 .LVL11
     /tmp/cckpPQUS.s:130    .text:00000000000000e4 .LVL12
     /tmp/cckpPQUS.s:134    .text:00000000000000e8 .LVL13
     /tmp/cckpPQUS.s:147    .text:0000000000000104 .LVL16
     /tmp/cckpPQUS.s:159    .text:0000000000000120 .LVL19
     /tmp/cckpPQUS.s:171    .text:000000000000013c .LVL22
     /tmp/cckpPQUS.s:660    .debug_info:0000000000000000 .Ldebug_info0
     /tmp/cckpPQUS.s:186    .gcc_except_table:0000000000000000 .LLSDA3
     /tmp/cckpPQUS.s:644    .gcc_except_table:00000000000000a1 .LLSDA6

UNDEFINED SYMBOLS
_Z9mem_allocm
_Znwm
_ZN9SemaphoreC1Ej
_ZdlPv
_Unwind_Resume
__gxx_personality_v0
_ZN9Semaphore4waitEv
_ZN9Semaphore6signalEv
_ZN7Console4putcEc
_Z11printStringPKc
_Z8mem_freePv
