GAS LISTING /tmp/ccbkW1Ru.s 			page 1


   1              		.file	"ConsumerProducer_C_API_test.cpp"
   2              		.option nopic
   3              		.option norelax
   4              		.attribute arch, "rv64i2p0_m2p0_a2p0"
   5              		.attribute unaligned_access, 0
   6              		.attribute stack_align, 16
   7              		.text
   8              	.Ltext0:
   9              		.align	2
  11              	_ZL16producerKeyboardPv:
  12              	.LFB0:
  13              		.file 1 "test/ConsumerProducer_C_API_test.cpp"
   1:test/ConsumerProducer_C_API_test.cpp **** 
   2:test/ConsumerProducer_C_API_test.cpp **** #include "../h/syscall_c.hpp"
   3:test/ConsumerProducer_C_API_test.cpp **** 
   4:test/ConsumerProducer_C_API_test.cpp **** 
   5:test/ConsumerProducer_C_API_test.cpp **** #include "buffer.hpp"
   6:test/ConsumerProducer_C_API_test.cpp **** 
   7:test/ConsumerProducer_C_API_test.cpp **** static sem_t waitForAll;
   8:test/ConsumerProducer_C_API_test.cpp **** 
   9:test/ConsumerProducer_C_API_test.cpp **** struct thread_data {
  10:test/ConsumerProducer_C_API_test.cpp ****     int id;
  11:test/ConsumerProducer_C_API_test.cpp ****     Buffer *buffer;
  12:test/ConsumerProducer_C_API_test.cpp ****     sem_t wait;
  13:test/ConsumerProducer_C_API_test.cpp **** };
  14:test/ConsumerProducer_C_API_test.cpp **** 
  15:test/ConsumerProducer_C_API_test.cpp **** static volatile int threadEnd = 0;
  16:test/ConsumerProducer_C_API_test.cpp **** 
  17:test/ConsumerProducer_C_API_test.cpp **** static void producerKeyboard(void *arg) {
  14              		.loc 1 17 41
  15              		.cfi_startproc
  16              	.LVL0:
  17 0000 130101FE 		addi	sp,sp,-32
  18              		.cfi_def_cfa_offset 32
  19 0004 233C1100 		sd	ra,24(sp)
  20 0008 23388100 		sd	s0,16(sp)
  21 000c 23349100 		sd	s1,8(sp)
  22 0010 23302101 		sd	s2,0(sp)
  23              		.cfi_offset 1, -8
  24              		.cfi_offset 8, -16
  25              		.cfi_offset 9, -24
  26              		.cfi_offset 18, -32
  27 0014 13040102 		addi	s0,sp,32
  28              		.cfi_def_cfa 8, 0
  29 0018 93040500 		mv	s1,a0
  18:test/ConsumerProducer_C_API_test.cpp ****     struct thread_data *data = (struct thread_data *) arg;
  30              		.loc 1 18 5
  31              	.LVL1:
  19:test/ConsumerProducer_C_API_test.cpp **** 
  20:test/ConsumerProducer_C_API_test.cpp ****     int key;
  32              		.loc 1 20 5
  21:test/ConsumerProducer_C_API_test.cpp ****     int i = 0;
  33              		.loc 1 21 5
  34              		.loc 1 21 9 is_stmt 0
  35 001c 13090000 		li	s2,0
  36 0020 6F00C000 		j	.L2
  37              	.LVL2:
GAS LISTING /tmp/ccbkW1Ru.s 			page 2


  38              	.L6:
  22:test/ConsumerProducer_C_API_test.cpp ****     while ((key = getc()) != 0x1b) {
  23:test/ConsumerProducer_C_API_test.cpp ****         data->buffer->put(key);
  24:test/ConsumerProducer_C_API_test.cpp ****         i++;
  25:test/ConsumerProducer_C_API_test.cpp **** 
  26:test/ConsumerProducer_C_API_test.cpp ****         if (i % (10 * data->id) == 0) {
  27:test/ConsumerProducer_C_API_test.cpp ****             thread_dispatch();
  39              		.loc 1 27 13 is_stmt 1
  40              		.loc 1 27 28 is_stmt 0
  41 0024 97000000 		call	_Z15thread_dispatchv
  41      E7800000 
  42              	.LVL3:
  43              	.L2:
  22:test/ConsumerProducer_C_API_test.cpp ****     while ((key = getc()) != 0x1b) {
  44              		.loc 1 22 5 is_stmt 1
  22:test/ConsumerProducer_C_API_test.cpp ****     while ((key = getc()) != 0x1b) {
  45              		.loc 1 22 27
  22:test/ConsumerProducer_C_API_test.cpp ****     while ((key = getc()) != 0x1b) {
  46              		.loc 1 22 23 is_stmt 0
  47 002c 97000000 		call	_Z4getcv
  47      E7800000 
  48              	.LVL4:
  22:test/ConsumerProducer_C_API_test.cpp ****     while ((key = getc()) != 0x1b) {
  49              		.loc 1 22 17
  50 0034 9B050500 		sext.w	a1,a0
  51              	.LVL5:
  22:test/ConsumerProducer_C_API_test.cpp ****     while ((key = getc()) != 0x1b) {
  52              		.loc 1 22 27
  53 0038 9307B001 		li	a5,27
  54 003c 638AF502 		beq	a1,a5,.L3
  23:test/ConsumerProducer_C_API_test.cpp ****         i++;
  55              		.loc 1 23 9 is_stmt 1
  23:test/ConsumerProducer_C_API_test.cpp ****         i++;
  56              		.loc 1 23 26 is_stmt 0
  57 0040 03B58400 		ld	a0,8(s1)
  58 0044 97000000 		call	_ZN6Buffer3putEi
  58      E7800000 
  59              	.LVL6:
  24:test/ConsumerProducer_C_API_test.cpp **** 
  60              		.loc 1 24 9 is_stmt 1
  24:test/ConsumerProducer_C_API_test.cpp **** 
  61              		.loc 1 24 10 is_stmt 0
  62 004c 1B071900 		addiw	a4,s2,1
  63 0050 1B090700 		sext.w	s2,a4
  64              	.LVL7:
  26:test/ConsumerProducer_C_API_test.cpp ****             thread_dispatch();
  65              		.loc 1 26 9 is_stmt 1
  26:test/ConsumerProducer_C_API_test.cpp ****             thread_dispatch();
  66              		.loc 1 26 29 is_stmt 0
  67 0054 83A60400 		lw	a3,0(s1)
  26:test/ConsumerProducer_C_API_test.cpp ****             thread_dispatch();
  68              		.loc 1 26 21
  69 0058 9B972600 		slliw	a5,a3,2
  70 005c BB87D700 		addw	a5,a5,a3
  71 0060 9B971700 		slliw	a5,a5,1
  26:test/ConsumerProducer_C_API_test.cpp ****             thread_dispatch();
  72              		.loc 1 26 15
GAS LISTING /tmp/ccbkW1Ru.s 			page 3


  73 0064 BB67F702 		remw	a5,a4,a5
  26:test/ConsumerProducer_C_API_test.cpp ****             thread_dispatch();
  74              		.loc 1 26 9
  75 0068 E39207FC 		bnez	a5,.L2
  76 006c 6FF09FFB 		j	.L6
  77              	.LVL8:
  78              	.L3:
  28:test/ConsumerProducer_C_API_test.cpp ****         }
  29:test/ConsumerProducer_C_API_test.cpp ****     }
  30:test/ConsumerProducer_C_API_test.cpp **** 
  31:test/ConsumerProducer_C_API_test.cpp ****     threadEnd = 1;
  79              		.loc 1 31 5 is_stmt 1
  80              		.loc 1 31 15 is_stmt 0
  81 0070 93071000 		li	a5,1
  82 0074 17070000 		sw	a5,_ZL9threadEnd,a4
  82      2320F700 
  32:test/ConsumerProducer_C_API_test.cpp ****     data->buffer->put('!');
  83              		.loc 1 32 5 is_stmt 1
  84              		.loc 1 32 22 is_stmt 0
  85 007c 93051002 		li	a1,33
  86              	.LVL9:
  87 0080 03B58400 		ld	a0,8(s1)
  88              	.LVL10:
  89 0084 97000000 		call	_ZN6Buffer3putEi
  89      E7800000 
  90              	.LVL11:
  33:test/ConsumerProducer_C_API_test.cpp **** 
  34:test/ConsumerProducer_C_API_test.cpp ****     sem_signal(data->wait);
  91              		.loc 1 34 5 is_stmt 1
  92              		.loc 1 34 15 is_stmt 0
  93 008c 03B50401 		ld	a0,16(s1)
  94 0090 97000000 		call	_Z10sem_signalP4_sem
  94      E7800000 
  95              	.LVL12:
  35:test/ConsumerProducer_C_API_test.cpp **** }
  96              		.loc 1 35 1
  97 0098 83308101 		ld	ra,24(sp)
  98              		.cfi_restore 1
  99 009c 03340101 		ld	s0,16(sp)
 100              		.cfi_restore 8
 101              		.cfi_def_cfa 2, 32
 102 00a0 83348100 		ld	s1,8(sp)
 103              		.cfi_restore 9
 104              	.LVL13:
 105 00a4 03390100 		ld	s2,0(sp)
 106              		.cfi_restore 18
 107              	.LVL14:
 108 00a8 13010102 		addi	sp,sp,32
 109              		.cfi_def_cfa_offset 0
 110 00ac 67800000 		jr	ra
 111              		.cfi_endproc
 112              	.LFE0:
 114              		.align	2
 116              	_ZL8producerPv:
 117              	.LFB1:
  36:test/ConsumerProducer_C_API_test.cpp **** 
  37:test/ConsumerProducer_C_API_test.cpp **** static void producer(void *arg) {
GAS LISTING /tmp/ccbkW1Ru.s 			page 4


 118              		.loc 1 37 33 is_stmt 1
 119              		.cfi_startproc
 120              	.LVL15:
 121 00b0 130101FE 		addi	sp,sp,-32
 122              		.cfi_def_cfa_offset 32
 123 00b4 233C1100 		sd	ra,24(sp)
 124 00b8 23388100 		sd	s0,16(sp)
 125 00bc 23349100 		sd	s1,8(sp)
 126 00c0 23302101 		sd	s2,0(sp)
 127              		.cfi_offset 1, -8
 128              		.cfi_offset 8, -16
 129              		.cfi_offset 9, -24
 130              		.cfi_offset 18, -32
 131 00c4 13040102 		addi	s0,sp,32
 132              		.cfi_def_cfa 8, 0
 133 00c8 93040500 		mv	s1,a0
  38:test/ConsumerProducer_C_API_test.cpp ****     struct thread_data *data = (struct thread_data *) arg;
 134              		.loc 1 38 5
 135              	.LVL16:
  39:test/ConsumerProducer_C_API_test.cpp **** 
  40:test/ConsumerProducer_C_API_test.cpp ****     int i = 0;
 136              		.loc 1 40 5
 137              		.loc 1 40 9 is_stmt 0
 138 00cc 13090000 		li	s2,0
 139 00d0 6F00C000 		j	.L8
 140              	.LVL17:
 141              	.L12:
  41:test/ConsumerProducer_C_API_test.cpp ****     while (!threadEnd) {
  42:test/ConsumerProducer_C_API_test.cpp ****         data->buffer->put(data->id + '0');
  43:test/ConsumerProducer_C_API_test.cpp ****         i++;
  44:test/ConsumerProducer_C_API_test.cpp **** 
  45:test/ConsumerProducer_C_API_test.cpp ****         if (i % (10 * data->id) == 0) {
  46:test/ConsumerProducer_C_API_test.cpp ****             thread_dispatch();
 142              		.loc 1 46 13 is_stmt 1
 143              		.loc 1 46 28 is_stmt 0
 144 00d4 97000000 		call	_Z15thread_dispatchv
 144      E7800000 
 145              	.LVL18:
 146              	.L8:
  41:test/ConsumerProducer_C_API_test.cpp ****     while (!threadEnd) {
 147              		.loc 1 41 5 is_stmt 1
  41:test/ConsumerProducer_C_API_test.cpp ****     while (!threadEnd) {
 148              		.loc 1 41 12
 149 00dc 97070000 		lw	a5,_ZL9threadEnd
 149      83A70700 
 150 00e4 639E0702 		bnez	a5,.L9
  42:test/ConsumerProducer_C_API_test.cpp ****         i++;
 151              		.loc 1 42 9
  42:test/ConsumerProducer_C_API_test.cpp ****         i++;
 152              		.loc 1 42 33 is_stmt 0
 153 00e8 83A50400 		lw	a1,0(s1)
  42:test/ConsumerProducer_C_API_test.cpp ****         i++;
 154              		.loc 1 42 26
 155 00ec 9B850503 		addiw	a1,a1,48
 156 00f0 03B58400 		ld	a0,8(s1)
 157 00f4 97000000 		call	_ZN6Buffer3putEi
 157      E7800000 
GAS LISTING /tmp/ccbkW1Ru.s 			page 5


 158              	.LVL19:
  43:test/ConsumerProducer_C_API_test.cpp **** 
 159              		.loc 1 43 9 is_stmt 1
  43:test/ConsumerProducer_C_API_test.cpp **** 
 160              		.loc 1 43 10 is_stmt 0
 161 00fc 1B071900 		addiw	a4,s2,1
 162 0100 1B090700 		sext.w	s2,a4
 163              	.LVL20:
  45:test/ConsumerProducer_C_API_test.cpp ****             thread_dispatch();
 164              		.loc 1 45 9 is_stmt 1
  45:test/ConsumerProducer_C_API_test.cpp ****             thread_dispatch();
 165              		.loc 1 45 29 is_stmt 0
 166 0104 83A60400 		lw	a3,0(s1)
  45:test/ConsumerProducer_C_API_test.cpp ****             thread_dispatch();
 167              		.loc 1 45 21
 168 0108 9B972600 		slliw	a5,a3,2
 169 010c BB87D700 		addw	a5,a5,a3
 170 0110 9B971700 		slliw	a5,a5,1
  45:test/ConsumerProducer_C_API_test.cpp ****             thread_dispatch();
 171              		.loc 1 45 15
 172 0114 BB67F702 		remw	a5,a4,a5
  45:test/ConsumerProducer_C_API_test.cpp ****             thread_dispatch();
 173              		.loc 1 45 9
 174 0118 E39207FC 		bnez	a5,.L8
 175 011c 6FF09FFB 		j	.L12
 176              	.LVL21:
 177              	.L9:
  47:test/ConsumerProducer_C_API_test.cpp ****         }
  48:test/ConsumerProducer_C_API_test.cpp ****     }
  49:test/ConsumerProducer_C_API_test.cpp **** 
  50:test/ConsumerProducer_C_API_test.cpp ****     sem_signal(data->wait);
 178              		.loc 1 50 5 is_stmt 1
 179              		.loc 1 50 15 is_stmt 0
 180 0120 03B50401 		ld	a0,16(s1)
 181 0124 97000000 		call	_Z10sem_signalP4_sem
 181      E7800000 
 182              	.LVL22:
  51:test/ConsumerProducer_C_API_test.cpp **** }
 183              		.loc 1 51 1
 184 012c 83308101 		ld	ra,24(sp)
 185              		.cfi_restore 1
 186 0130 03340101 		ld	s0,16(sp)
 187              		.cfi_restore 8
 188              		.cfi_def_cfa 2, 32
 189 0134 83348100 		ld	s1,8(sp)
 190              		.cfi_restore 9
 191              	.LVL23:
 192 0138 03390100 		ld	s2,0(sp)
 193              		.cfi_restore 18
 194              	.LVL24:
 195 013c 13010102 		addi	sp,sp,32
 196              		.cfi_def_cfa_offset 0
 197 0140 67800000 		jr	ra
 198              		.cfi_endproc
 199              	.LFE1:
 201              		.align	2
 203              	_ZL8consumerPv:
GAS LISTING /tmp/ccbkW1Ru.s 			page 6


 204              	.LFB2:
  52:test/ConsumerProducer_C_API_test.cpp **** 
  53:test/ConsumerProducer_C_API_test.cpp **** static void consumer(void *arg) {
 205              		.loc 1 53 33 is_stmt 1
 206              		.cfi_startproc
 207              	.LVL25:
 208 0144 130101FD 		addi	sp,sp,-48
 209              		.cfi_def_cfa_offset 48
 210 0148 23341102 		sd	ra,40(sp)
 211 014c 23308102 		sd	s0,32(sp)
 212 0150 233C9100 		sd	s1,24(sp)
 213 0154 23382101 		sd	s2,16(sp)
 214 0158 23343101 		sd	s3,8(sp)
 215              		.cfi_offset 1, -8
 216              		.cfi_offset 8, -16
 217              		.cfi_offset 9, -24
 218              		.cfi_offset 18, -32
 219              		.cfi_offset 19, -40
 220 015c 13040103 		addi	s0,sp,48
 221              		.cfi_def_cfa 8, 0
 222 0160 13090500 		mv	s2,a0
  54:test/ConsumerProducer_C_API_test.cpp ****     struct thread_data *data = (struct thread_data *) arg;
 223              		.loc 1 54 5
 224              	.LVL26:
  55:test/ConsumerProducer_C_API_test.cpp **** 
  56:test/ConsumerProducer_C_API_test.cpp ****     int i = 0;
 225              		.loc 1 56 5
 226              		.loc 1 56 9 is_stmt 0
 227 0164 93090000 		li	s3,0
 228 0168 6F00C001 		j	.L14
 229              	.LVL27:
 230              	.L20:
 231              	.LBB2:
  57:test/ConsumerProducer_C_API_test.cpp ****     while (!threadEnd) {
  58:test/ConsumerProducer_C_API_test.cpp ****         int key = data->buffer->get();
  59:test/ConsumerProducer_C_API_test.cpp ****         i++;
  60:test/ConsumerProducer_C_API_test.cpp **** 
  61:test/ConsumerProducer_C_API_test.cpp ****         putc(key);
  62:test/ConsumerProducer_C_API_test.cpp **** 
  63:test/ConsumerProducer_C_API_test.cpp ****         if (i % (5 * data->id) == 0) {
  64:test/ConsumerProducer_C_API_test.cpp ****             thread_dispatch();
 232              		.loc 1 64 13 is_stmt 1
 233              		.loc 1 64 28 is_stmt 0
 234 016c 97000000 		call	_Z15thread_dispatchv
 234      E7800000 
 235              	.LVL28:
 236 0174 6F000005 		j	.L16
 237              	.LVL29:
 238              	.L21:
  65:test/ConsumerProducer_C_API_test.cpp ****         }
  66:test/ConsumerProducer_C_API_test.cpp **** 
  67:test/ConsumerProducer_C_API_test.cpp ****         if (i % 80 == 0) {
  68:test/ConsumerProducer_C_API_test.cpp ****             putc('\n');
 239              		.loc 1 68 13 is_stmt 1
 240              		.loc 1 68 17 is_stmt 0
 241 0178 1305A000 		li	a0,10
 242 017c 97000000 		call	_Z4putcc
GAS LISTING /tmp/ccbkW1Ru.s 			page 7


 242      E7800000 
 243              	.LVL30:
 244              	.L14:
 245              	.LBE2:
  57:test/ConsumerProducer_C_API_test.cpp ****     while (!threadEnd) {
 246              		.loc 1 57 5 is_stmt 1
  57:test/ConsumerProducer_C_API_test.cpp ****     while (!threadEnd) {
 247              		.loc 1 57 12
 248 0184 97070000 		lw	a5,_ZL9threadEnd
 248      83A70700 
 249 018c 63900706 		bnez	a5,.L15
 250              	.LBB3:
  58:test/ConsumerProducer_C_API_test.cpp ****         i++;
 251              		.loc 1 58 9
  58:test/ConsumerProducer_C_API_test.cpp ****         i++;
 252              		.loc 1 58 36 is_stmt 0
 253 0190 03358900 		ld	a0,8(s2)
 254 0194 97000000 		call	_ZN6Buffer3getEv
 254      E7800000 
 255              	.LVL31:
  59:test/ConsumerProducer_C_API_test.cpp **** 
 256              		.loc 1 59 9 is_stmt 1
  59:test/ConsumerProducer_C_API_test.cpp **** 
 257              		.loc 1 59 10 is_stmt 0
 258 019c 9B841900 		addiw	s1,s3,1
 259 01a0 9B890400 		sext.w	s3,s1
 260              	.LVL32:
  61:test/ConsumerProducer_C_API_test.cpp **** 
 261              		.loc 1 61 9 is_stmt 1
  61:test/ConsumerProducer_C_API_test.cpp **** 
 262              		.loc 1 61 13 is_stmt 0
 263 01a4 1375F50F 		andi	a0,a0,0xff
 264              	.LVL33:
 265 01a8 97000000 		call	_Z4putcc
 265      E7800000 
 266              	.LVL34:
  63:test/ConsumerProducer_C_API_test.cpp ****             thread_dispatch();
 267              		.loc 1 63 9 is_stmt 1
  63:test/ConsumerProducer_C_API_test.cpp ****             thread_dispatch();
 268              		.loc 1 63 28 is_stmt 0
 269 01b0 03270900 		lw	a4,0(s2)
  63:test/ConsumerProducer_C_API_test.cpp ****             thread_dispatch();
 270              		.loc 1 63 20
 271 01b4 9B172700 		slliw	a5,a4,2
 272 01b8 BB87E700 		addw	a5,a5,a4
  63:test/ConsumerProducer_C_API_test.cpp ****             thread_dispatch();
 273              		.loc 1 63 15
 274 01bc BBE7F402 		remw	a5,s1,a5
  63:test/ConsumerProducer_C_API_test.cpp ****             thread_dispatch();
 275              		.loc 1 63 9
 276 01c0 E38607FA 		beqz	a5,.L20
 277              	.L16:
  67:test/ConsumerProducer_C_API_test.cpp ****             putc('\n');
 278              		.loc 1 67 9 is_stmt 1
  67:test/ConsumerProducer_C_API_test.cpp ****             putc('\n');
 279              		.loc 1 67 15 is_stmt 0
 280 01c4 93070005 		li	a5,80
GAS LISTING /tmp/ccbkW1Ru.s 			page 8


 281 01c8 BBE4F402 		remw	s1,s1,a5
 282              	.LVL35:
  67:test/ConsumerProducer_C_API_test.cpp ****             putc('\n');
 283              		.loc 1 67 9
 284 01cc E39C04FA 		bnez	s1,.L14
 285 01d0 6FF09FFA 		j	.L21
 286              	.L22:
 287              	.LBE3:
 288              	.LBB4:
  69:test/ConsumerProducer_C_API_test.cpp ****         }
  70:test/ConsumerProducer_C_API_test.cpp ****     }
  71:test/ConsumerProducer_C_API_test.cpp **** 
  72:test/ConsumerProducer_C_API_test.cpp ****     while (data->buffer->getCnt() > 0) {
  73:test/ConsumerProducer_C_API_test.cpp ****         int key = data->buffer->get();
 289              		.loc 1 73 9 is_stmt 1
 290              		.loc 1 73 36 is_stmt 0
 291 01d4 03358900 		ld	a0,8(s2)
 292 01d8 97000000 		call	_ZN6Buffer3getEv
 292      E7800000 
 293              	.LVL36:
  74:test/ConsumerProducer_C_API_test.cpp ****         putc(key);
 294              		.loc 1 74 9 is_stmt 1
 295              		.loc 1 74 13 is_stmt 0
 296 01e0 1375F50F 		andi	a0,a0,0xff
 297              	.LVL37:
 298 01e4 97000000 		call	_Z4putcc
 298      E7800000 
 299              	.LVL38:
 300              	.L15:
 301              	.LBE4:
  72:test/ConsumerProducer_C_API_test.cpp ****         int key = data->buffer->get();
 302              		.loc 1 72 5 is_stmt 1
  72:test/ConsumerProducer_C_API_test.cpp ****         int key = data->buffer->get();
 303              		.loc 1 72 35
  72:test/ConsumerProducer_C_API_test.cpp ****         int key = data->buffer->get();
 304              		.loc 1 72 32 is_stmt 0
 305 01ec 03358900 		ld	a0,8(s2)
 306 01f0 97000000 		call	_ZN6Buffer6getCntEv
 306      E7800000 
 307              	.LVL39:
  72:test/ConsumerProducer_C_API_test.cpp ****         int key = data->buffer->get();
 308              		.loc 1 72 35
 309 01f8 E34EA0FC 		bgtz	a0,.L22
  75:test/ConsumerProducer_C_API_test.cpp ****     }
  76:test/ConsumerProducer_C_API_test.cpp **** 
  77:test/ConsumerProducer_C_API_test.cpp ****     sem_signal(data->wait);
 310              		.loc 1 77 5 is_stmt 1
 311              		.loc 1 77 15 is_stmt 0
 312 01fc 03350901 		ld	a0,16(s2)
 313 0200 97000000 		call	_Z10sem_signalP4_sem
 313      E7800000 
 314              	.LVL40:
  78:test/ConsumerProducer_C_API_test.cpp **** }
 315              		.loc 1 78 1
 316 0208 83308102 		ld	ra,40(sp)
 317              		.cfi_restore 1
 318 020c 03340102 		ld	s0,32(sp)
GAS LISTING /tmp/ccbkW1Ru.s 			page 9


 319              		.cfi_restore 8
 320              		.cfi_def_cfa 2, 48
 321 0210 83348101 		ld	s1,24(sp)
 322              		.cfi_restore 9
 323 0214 03390101 		ld	s2,16(sp)
 324              		.cfi_restore 18
 325              	.LVL41:
 326 0218 83398100 		ld	s3,8(sp)
 327              		.cfi_restore 19
 328              	.LVL42:
 329 021c 13010103 		addi	sp,sp,48
 330              		.cfi_def_cfa_offset 0
 331 0220 67800000 		jr	ra
 332              		.cfi_endproc
 333              	.LFE2:
 335              		.section	.rodata.str1.8,"aMS",@progbits,1
 336              		.align	3
 337              	.LC0:
 338 0000 556E6573 		.string	"Unesite broj proizvodjaca?\n"
 338      69746520 
 338      62726F6A 
 338      2070726F 
 338      697A766F 
 339 001c 00000000 		.align	3
 340              	.LC1:
 341 0020 556E6573 		.string	"Unesite velicinu bafera?\n"
 341      69746520 
 341      76656C69 
 341      63696E75 
 341      20626166 
 342 003a 00000000 		.align	3
 342      0000
 343              	.LC2:
 344 0040 42726F6A 		.string	"Broj proizvodjaca "
 344      2070726F 
 344      697A766F 
 344      646A6163 
 344      612000
 345 0053 00000000 		.align	3
 345      00
 346              	.LC3:
 347 0058 20692076 		.string	" i velicina bafera "
 347      656C6963 
 347      696E6120 
 347      62616665 
 347      72612000 
 348 006c 00000000 		.align	3
 349              	.LC4:
 350 0070 2E0A00   		.string	".\n"
 351 0073 00000000 		.align	3
 351      00
 352              	.LC5:
 353 0078 42726F6A 		.string	"Broj proizvodjaca ne sme biti manji od velicine bafera!\n"
 353      2070726F 
 353      697A766F 
 353      646A6163 
 353      61206E65 
GAS LISTING /tmp/ccbkW1Ru.s 			page 10


 354 00b1 00000000 		.align	3
 354      000000
 355              	.LC6:
 356 00b8 42726F6A 		.string	"Broj proizvodjaca mora biti veci od nula!\n"
 356      2070726F 
 356      697A766F 
 356      646A6163 
 356      61206D6F 
 357              		.text
 358              		.align	2
 359              		.globl	_Z22producerConsumer_C_APIv
 361              	_Z22producerConsumer_C_APIv:
 362              	.LFB3:
  79:test/ConsumerProducer_C_API_test.cpp **** 
  80:test/ConsumerProducer_C_API_test.cpp **** void producerConsumer_C_API() {
 363              		.loc 1 80 31 is_stmt 1
 364              		.cfi_startproc
 365              		.cfi_personality 0x9b,DW.ref.__gxx_personality_v0
 366              		.cfi_lsda 0x1b,.LLSDA3
 367 0224 130101F9 		addi	sp,sp,-112
 368              		.cfi_def_cfa_offset 112
 369 0228 23341106 		sd	ra,104(sp)
 370 022c 23308106 		sd	s0,96(sp)
 371 0230 233C9104 		sd	s1,88(sp)
 372 0234 23382105 		sd	s2,80(sp)
 373 0238 23343105 		sd	s3,72(sp)
 374 023c 23304105 		sd	s4,64(sp)
 375 0240 233C5103 		sd	s5,56(sp)
 376 0244 23386103 		sd	s6,48(sp)
 377              		.cfi_offset 1, -8
 378              		.cfi_offset 8, -16
 379              		.cfi_offset 9, -24
 380              		.cfi_offset 18, -32
 381              		.cfi_offset 19, -40
 382              		.cfi_offset 20, -48
 383              		.cfi_offset 21, -56
 384              		.cfi_offset 22, -64
 385 0248 13040107 		addi	s0,sp,112
 386              		.cfi_def_cfa 8, 0
  81:test/ConsumerProducer_C_API_test.cpp ****     char input[30];
  82:test/ConsumerProducer_C_API_test.cpp ****     int n, threadNum;
  83:test/ConsumerProducer_C_API_test.cpp **** 
  84:test/ConsumerProducer_C_API_test.cpp ****     printString("Unesite broj proizvodjaca?\n");
  85:test/ConsumerProducer_C_API_test.cpp ****     getString(input, 30);
  86:test/ConsumerProducer_C_API_test.cpp ****     threadNum = stringToInt(input);
  87:test/ConsumerProducer_C_API_test.cpp **** 
  88:test/ConsumerProducer_C_API_test.cpp ****     printString("Unesite velicinu bafera?\n");
  89:test/ConsumerProducer_C_API_test.cpp ****     getString(input, 30);
  90:test/ConsumerProducer_C_API_test.cpp ****     n = stringToInt(input);
  91:test/ConsumerProducer_C_API_test.cpp **** 
  92:test/ConsumerProducer_C_API_test.cpp ****     printString("Broj proizvodjaca "); printInt(threadNum);
  93:test/ConsumerProducer_C_API_test.cpp ****     printString(" i velicina bafera "); printInt(n);
  94:test/ConsumerProducer_C_API_test.cpp ****     printString(".\n");
  95:test/ConsumerProducer_C_API_test.cpp **** 
  96:test/ConsumerProducer_C_API_test.cpp ****     if(threadNum > n) {
  97:test/ConsumerProducer_C_API_test.cpp ****         printString("Broj proizvodjaca ne sme biti manji od velicine bafera!\n");
  98:test/ConsumerProducer_C_API_test.cpp ****         return;
GAS LISTING /tmp/ccbkW1Ru.s 			page 11


  99:test/ConsumerProducer_C_API_test.cpp ****     } else if (threadNum < 1) {
 100:test/ConsumerProducer_C_API_test.cpp ****         printString("Broj proizvodjaca mora biti veci od nula!\n");
 101:test/ConsumerProducer_C_API_test.cpp ****         return;
 102:test/ConsumerProducer_C_API_test.cpp ****     }
 103:test/ConsumerProducer_C_API_test.cpp **** 
 104:test/ConsumerProducer_C_API_test.cpp ****     Buffer *buffer = new Buffer(n);
 105:test/ConsumerProducer_C_API_test.cpp **** 
 106:test/ConsumerProducer_C_API_test.cpp ****     sem_open(&waitForAll, 0);
 107:test/ConsumerProducer_C_API_test.cpp **** 
 108:test/ConsumerProducer_C_API_test.cpp ****     thread_t threads[threadNum];
 109:test/ConsumerProducer_C_API_test.cpp ****     thread_t consumerThread;
 110:test/ConsumerProducer_C_API_test.cpp **** 
 111:test/ConsumerProducer_C_API_test.cpp ****     struct thread_data data[threadNum + 1];
 112:test/ConsumerProducer_C_API_test.cpp **** 
 113:test/ConsumerProducer_C_API_test.cpp ****     data[threadNum].id = threadNum;
 114:test/ConsumerProducer_C_API_test.cpp ****     data[threadNum].buffer = buffer;
 115:test/ConsumerProducer_C_API_test.cpp ****     data[threadNum].wait = waitForAll;
 116:test/ConsumerProducer_C_API_test.cpp ****     thread_create(&consumerThread, consumer, data + threadNum);
 117:test/ConsumerProducer_C_API_test.cpp **** 
 118:test/ConsumerProducer_C_API_test.cpp ****     for (int i = 0; i < threadNum; i++) {
 119:test/ConsumerProducer_C_API_test.cpp ****         data[i].id = i;
 120:test/ConsumerProducer_C_API_test.cpp ****         data[i].buffer = buffer;
 121:test/ConsumerProducer_C_API_test.cpp ****         data[i].wait = waitForAll;
 122:test/ConsumerProducer_C_API_test.cpp **** 
 123:test/ConsumerProducer_C_API_test.cpp ****         thread_create(threads + i,
 124:test/ConsumerProducer_C_API_test.cpp ****                       i > 0 ? producer : producerKeyboard,
 125:test/ConsumerProducer_C_API_test.cpp ****                       data + i);
 126:test/ConsumerProducer_C_API_test.cpp ****     }
 127:test/ConsumerProducer_C_API_test.cpp **** 
 128:test/ConsumerProducer_C_API_test.cpp ****     thread_dispatch();
 129:test/ConsumerProducer_C_API_test.cpp **** 
 130:test/ConsumerProducer_C_API_test.cpp ****     for (int i = 0; i <= threadNum; i++) {
 131:test/ConsumerProducer_C_API_test.cpp ****         sem_wait(waitForAll);
 132:test/ConsumerProducer_C_API_test.cpp ****     }
 133:test/ConsumerProducer_C_API_test.cpp **** 
 134:test/ConsumerProducer_C_API_test.cpp ****     sem_close(waitForAll);
 135:test/ConsumerProducer_C_API_test.cpp **** 
 136:test/ConsumerProducer_C_API_test.cpp ****     delete buffer;
 387              		.loc 1 136 18 is_stmt 0
 388 024c 130B0100 		mv	s6,sp
  81:test/ConsumerProducer_C_API_test.cpp ****     char input[30];
 389              		.loc 1 81 5 is_stmt 1
  82:test/ConsumerProducer_C_API_test.cpp **** 
 390              		.loc 1 82 5
  84:test/ConsumerProducer_C_API_test.cpp ****     getString(input, 30);
 391              		.loc 1 84 5
  84:test/ConsumerProducer_C_API_test.cpp ****     getString(input, 30);
 392              		.loc 1 84 16 is_stmt 0
 393 0250 17050000 		lla	a0,.LC0
 393      13050500 
 394              	.LEHB0:
 395 0258 97000000 		call	_Z11printStringPKc
 395      E7800000 
 396              	.LVL43:
  85:test/ConsumerProducer_C_API_test.cpp ****     threadNum = stringToInt(input);
 397              		.loc 1 85 5 is_stmt 1
  85:test/ConsumerProducer_C_API_test.cpp ****     threadNum = stringToInt(input);
GAS LISTING /tmp/ccbkW1Ru.s 			page 12


 398              		.loc 1 85 14 is_stmt 0
 399 0260 9305E001 		li	a1,30
 400 0264 130504FA 		addi	a0,s0,-96
 401 0268 97000000 		call	_Z9getStringPci
 401      E7800000 
 402              	.LVL44:
  86:test/ConsumerProducer_C_API_test.cpp **** 
 403              		.loc 1 86 5 is_stmt 1
  86:test/ConsumerProducer_C_API_test.cpp **** 
 404              		.loc 1 86 28 is_stmt 0
 405 0270 130504FA 		addi	a0,s0,-96
 406 0274 97000000 		call	_Z11stringToIntPKc
 406      E7800000 
 407              	.LVL45:
 408 027c 13090500 		mv	s2,a0
 409              	.LVL46:
  88:test/ConsumerProducer_C_API_test.cpp ****     getString(input, 30);
 410              		.loc 1 88 5 is_stmt 1
  88:test/ConsumerProducer_C_API_test.cpp ****     getString(input, 30);
 411              		.loc 1 88 16 is_stmt 0
 412 0280 17050000 		lla	a0,.LC1
 412      13050500 
 413 0288 97000000 		call	_Z11printStringPKc
 413      E7800000 
 414              	.LVL47:
  89:test/ConsumerProducer_C_API_test.cpp ****     n = stringToInt(input);
 415              		.loc 1 89 5 is_stmt 1
  89:test/ConsumerProducer_C_API_test.cpp ****     n = stringToInt(input);
 416              		.loc 1 89 14 is_stmt 0
 417 0290 9305E001 		li	a1,30
 418 0294 130504FA 		addi	a0,s0,-96
 419 0298 97000000 		call	_Z9getStringPci
 419      E7800000 
 420              	.LVL48:
  90:test/ConsumerProducer_C_API_test.cpp **** 
 421              		.loc 1 90 5 is_stmt 1
  90:test/ConsumerProducer_C_API_test.cpp **** 
 422              		.loc 1 90 20 is_stmt 0
 423 02a0 130504FA 		addi	a0,s0,-96
 424 02a4 97000000 		call	_Z11stringToIntPKc
 424      E7800000 
 425              	.LVL49:
 426 02ac 93040500 		mv	s1,a0
 427              	.LVL50:
  92:test/ConsumerProducer_C_API_test.cpp ****     printString(" i velicina bafera "); printInt(n);
 428              		.loc 1 92 5 is_stmt 1
  92:test/ConsumerProducer_C_API_test.cpp ****     printString(" i velicina bafera "); printInt(n);
 429              		.loc 1 92 16 is_stmt 0
 430 02b0 17050000 		lla	a0,.LC2
 430      13050500 
 431 02b8 97000000 		call	_Z11printStringPKc
 431      E7800000 
 432              	.LVL51:
  92:test/ConsumerProducer_C_API_test.cpp ****     printString(" i velicina bafera "); printInt(n);
 433              		.loc 1 92 40 is_stmt 1
  92:test/ConsumerProducer_C_API_test.cpp ****     printString(" i velicina bafera "); printInt(n);
 434              		.loc 1 92 48 is_stmt 0
GAS LISTING /tmp/ccbkW1Ru.s 			page 13


 435 02c0 13060000 		li	a2,0
 436 02c4 9305A000 		li	a1,10
 437 02c8 13050900 		mv	a0,s2
 438 02cc 97000000 		call	_Z8printIntiii
 438      E7800000 
 439              	.LVL52:
  93:test/ConsumerProducer_C_API_test.cpp ****     printString(".\n");
 440              		.loc 1 93 5 is_stmt 1
  93:test/ConsumerProducer_C_API_test.cpp ****     printString(".\n");
 441              		.loc 1 93 16 is_stmt 0
 442 02d4 17050000 		lla	a0,.LC3
 442      13050500 
 443 02dc 97000000 		call	_Z11printStringPKc
 443      E7800000 
 444              	.LVL53:
  93:test/ConsumerProducer_C_API_test.cpp ****     printString(".\n");
 445              		.loc 1 93 41 is_stmt 1
  93:test/ConsumerProducer_C_API_test.cpp ****     printString(".\n");
 446              		.loc 1 93 49 is_stmt 0
 447 02e4 13060000 		li	a2,0
 448 02e8 9305A000 		li	a1,10
 449 02ec 13850400 		mv	a0,s1
 450 02f0 97000000 		call	_Z8printIntiii
 450      E7800000 
 451              	.LVL54:
  94:test/ConsumerProducer_C_API_test.cpp **** 
 452              		.loc 1 94 5 is_stmt 1
  94:test/ConsumerProducer_C_API_test.cpp **** 
 453              		.loc 1 94 16 is_stmt 0
 454 02f8 17050000 		lla	a0,.LC4
 454      13050500 
 455 0300 97000000 		call	_Z11printStringPKc
 455      E7800000 
 456              	.LVL55:
  96:test/ConsumerProducer_C_API_test.cpp ****         printString("Broj proizvodjaca ne sme biti manji od velicine bafera!\n");
 457              		.loc 1 96 5 is_stmt 1
 458 0308 63C42403 		bgt	s2,s1,.L38
  99:test/ConsumerProducer_C_API_test.cpp ****         printString("Broj proizvodjaca mora biti veci od nula!\n");
 459              		.loc 1 99 12
 460 030c 635C2003 		blez	s2,.L39
 104:test/ConsumerProducer_C_API_test.cpp **** 
 461              		.loc 1 104 5
 104:test/ConsumerProducer_C_API_test.cpp **** 
 462              		.loc 1 104 34 is_stmt 0
 463 0310 13058003 		li	a0,56
 464 0314 97000000 		call	_Znwm
 464      E7800000 
 465              	.LVL56:
 466              	.LEHE0:
 467 031c 130A0500 		mv	s4,a0
 468 0320 93850400 		mv	a1,s1
 469              	.LEHB1:
 470 0324 97000000 		call	_ZN6BufferC1Ei
 470      E7800000 
 471              	.LVL57:
 472              	.LEHE1:
 473 032c 6F000003 		j	.L40
GAS LISTING /tmp/ccbkW1Ru.s 			page 14


 474              	.L38:
  97:test/ConsumerProducer_C_API_test.cpp ****         return;
 475              		.loc 1 97 9 is_stmt 1
  97:test/ConsumerProducer_C_API_test.cpp ****         return;
 476              		.loc 1 97 20 is_stmt 0
 477 0330 17050000 		lla	a0,.LC5
 477      13050500 
 478              	.LEHB2:
 479 0338 97000000 		call	_Z11printStringPKc
 479      E7800000 
 480              	.LVL58:
  98:test/ConsumerProducer_C_API_test.cpp ****     } else if (threadNum < 1) {
 481              		.loc 1 98 9 is_stmt 1
 482 0340 6F004001 		j	.L25
 483              	.L39:
 100:test/ConsumerProducer_C_API_test.cpp ****         return;
 484              		.loc 1 100 9
 100:test/ConsumerProducer_C_API_test.cpp ****         return;
 485              		.loc 1 100 20 is_stmt 0
 486 0344 17050000 		lla	a0,.LC6
 486      13050500 
 487 034c 97000000 		call	_Z11printStringPKc
 487      E7800000 
 488              	.LVL59:
 101:test/ConsumerProducer_C_API_test.cpp ****     }
 489              		.loc 1 101 9 is_stmt 1
 490              	.L25:
 491 0354 13010B00 		mv	sp,s6
 492 0358 6F000015 		j	.L23
 493              	.L40:
 494              	.LVL60:
 106:test/ConsumerProducer_C_API_test.cpp **** 
 495              		.loc 1 106 5 discriminator 3
 106:test/ConsumerProducer_C_API_test.cpp **** 
 496              		.loc 1 106 13 is_stmt 0 discriminator 3
 497 035c 93050000 		li	a1,0
 498 0360 17050000 		lla	a0,_ZL10waitForAll
 498      13050500 
 499 0368 97000000 		call	_Z8sem_openPP4_semj
 499      E7800000 
 500              	.LVL61:
 108:test/ConsumerProducer_C_API_test.cpp ****     thread_t consumerThread;
 501              		.loc 1 108 5 is_stmt 1 discriminator 3
 108:test/ConsumerProducer_C_API_test.cpp ****     thread_t consumerThread;
 502              		.loc 1 108 14 is_stmt 0 discriminator 3
 503 0370 93173900 		slli	a5,s2,3
 504 0374 9387F700 		addi	a5,a5,15
 505 0378 93F707FF 		andi	a5,a5,-16
 506 037c 3301F140 		sub	sp,sp,a5
 507 0380 930A0100 		mv	s5,sp
 508              	.LVL62:
 109:test/ConsumerProducer_C_API_test.cpp **** 
 509              		.loc 1 109 5 is_stmt 1 discriminator 3
 111:test/ConsumerProducer_C_API_test.cpp **** 
 510              		.loc 1 111 5 discriminator 3
 111:test/ConsumerProducer_C_API_test.cpp **** 
 511              		.loc 1 111 39 is_stmt 0 discriminator 3
GAS LISTING /tmp/ccbkW1Ru.s 			page 15


 512 0384 1B071900 		addiw	a4,s2,1
 513              	.LVL63:
 111:test/ConsumerProducer_C_API_test.cpp **** 
 514              		.loc 1 111 24 discriminator 3
 515 0388 93171700 		slli	a5,a4,1
 516 038c B387E700 		add	a5,a5,a4
 517 0390 93973700 		slli	a5,a5,3
 518 0394 9387F700 		addi	a5,a5,15
 519 0398 93F707FF 		andi	a5,a5,-16
 520 039c 3301F140 		sub	sp,sp,a5
 521              	.LVL64:
 522 03a0 93090100 		mv	s3,sp
 523              	.LVL65:
 113:test/ConsumerProducer_C_API_test.cpp ****     data[threadNum].buffer = buffer;
 524              		.loc 1 113 5 is_stmt 1 discriminator 3
 113:test/ConsumerProducer_C_API_test.cpp ****     data[threadNum].buffer = buffer;
 525              		.loc 1 113 24 is_stmt 0 discriminator 3
 526 03a4 13161900 		slli	a2,s2,1
 527 03a8 B3072601 		add	a5,a2,s2
 528 03ac 93973700 		slli	a5,a5,3
 529 03b0 B387F900 		add	a5,s3,a5
 530 03b4 23A02701 		sw	s2,0(a5)
 114:test/ConsumerProducer_C_API_test.cpp ****     data[threadNum].wait = waitForAll;
 531              		.loc 1 114 5 is_stmt 1 discriminator 3
 114:test/ConsumerProducer_C_API_test.cpp ****     data[threadNum].wait = waitForAll;
 532              		.loc 1 114 28 is_stmt 0 discriminator 3
 533 03b8 23B44701 		sd	s4,8(a5)
 115:test/ConsumerProducer_C_API_test.cpp ****     thread_create(&consumerThread, consumer, data + threadNum);
 534              		.loc 1 115 5 is_stmt 1 discriminator 3
 115:test/ConsumerProducer_C_API_test.cpp ****     thread_create(&consumerThread, consumer, data + threadNum);
 535              		.loc 1 115 26 is_stmt 0 discriminator 3
 536 03bc 17070000 		ld	a4,_ZL10waitForAll
 536      03370700 
 537 03c4 23B8E700 		sd	a4,16(a5)
 116:test/ConsumerProducer_C_API_test.cpp **** 
 538              		.loc 1 116 5 is_stmt 1 discriminator 3
 116:test/ConsumerProducer_C_API_test.cpp **** 
 539              		.loc 1 116 18 is_stmt 0 discriminator 3
 540 03c8 13860700 		mv	a2,a5
 541 03cc 97050000 		lla	a1,_ZL8consumerPv
 541      93850500 
 542 03d4 130584F9 		addi	a0,s0,-104
 543 03d8 97000000 		call	_Z13thread_createPP7_threadPFvPvES2_
 543      E7800000 
 544              	.LVL66:
 545              	.LBB5:
 118:test/ConsumerProducer_C_API_test.cpp ****         data[i].id = i;
 546              		.loc 1 118 14 discriminator 3
 547 03e0 93040000 		li	s1,0
 548              	.LVL67:
 549 03e4 6F008002 		j	.L29
 550              	.LVL68:
 551              	.L35:
 123:test/ConsumerProducer_C_API_test.cpp ****                       i > 0 ? producer : producerKeyboard,
 552              		.loc 1 123 22
 553 03e8 97050000 		lla	a1,_ZL16producerKeyboardPv
 553      93850500 
GAS LISTING /tmp/ccbkW1Ru.s 			page 16


 554              	.L28:
 125:test/ConsumerProducer_C_API_test.cpp ****     }
 555              		.loc 1 125 28 discriminator 4
 556 03f0 13961700 		slli	a2,a5,1
 557 03f4 3306F600 		add	a2,a2,a5
 558 03f8 13163600 		slli	a2,a2,3
 123:test/ConsumerProducer_C_API_test.cpp ****                       i > 0 ? producer : producerKeyboard,
 559              		.loc 1 123 22 discriminator 4
 560 03fc 3386C900 		add	a2,s3,a2
 561 0400 97000000 		call	_Z13thread_createPP7_threadPFvPvES2_
 561      E7800000 
 562              	.LVL69:
 118:test/ConsumerProducer_C_API_test.cpp ****         data[i].id = i;
 563              		.loc 1 118 5 is_stmt 1 discriminator 4
 564 0408 9B841400 		addiw	s1,s1,1
 565              	.LVL70:
 566              	.L29:
 118:test/ConsumerProducer_C_API_test.cpp ****         data[i].id = i;
 567              		.loc 1 118 23 discriminator 1
 568 040c 63D22405 		bge	s1,s2,.L27
 119:test/ConsumerProducer_C_API_test.cpp ****         data[i].buffer = buffer;
 569              		.loc 1 119 9
 119:test/ConsumerProducer_C_API_test.cpp ****         data[i].buffer = buffer;
 570              		.loc 1 119 20 is_stmt 0
 571 0410 93971400 		slli	a5,s1,1
 572 0414 B3879700 		add	a5,a5,s1
 573 0418 93973700 		slli	a5,a5,3
 574 041c B387F900 		add	a5,s3,a5
 575 0420 23A09700 		sw	s1,0(a5)
 120:test/ConsumerProducer_C_API_test.cpp ****         data[i].wait = waitForAll;
 576              		.loc 1 120 9 is_stmt 1
 120:test/ConsumerProducer_C_API_test.cpp ****         data[i].wait = waitForAll;
 577              		.loc 1 120 24 is_stmt 0
 578 0424 23B44701 		sd	s4,8(a5)
 121:test/ConsumerProducer_C_API_test.cpp **** 
 579              		.loc 1 121 9 is_stmt 1
 121:test/ConsumerProducer_C_API_test.cpp **** 
 580              		.loc 1 121 22 is_stmt 0
 581 0428 17070000 		ld	a4,_ZL10waitForAll
 581      03370700 
 582 0430 23B8E700 		sd	a4,16(a5)
 123:test/ConsumerProducer_C_API_test.cpp ****                       i > 0 ? producer : producerKeyboard,
 583              		.loc 1 123 9 is_stmt 1
 123:test/ConsumerProducer_C_API_test.cpp ****                       i > 0 ? producer : producerKeyboard,
 584              		.loc 1 123 33 is_stmt 0
 585 0434 93870400 		mv	a5,s1
 123:test/ConsumerProducer_C_API_test.cpp ****                       i > 0 ? producer : producerKeyboard,
 586              		.loc 1 123 31
 587 0438 13953400 		slli	a0,s1,3
 123:test/ConsumerProducer_C_API_test.cpp ****                       i > 0 ? producer : producerKeyboard,
 588              		.loc 1 123 22
 589 043c 3385AA00 		add	a0,s5,a0
 590 0440 E35490FA 		blez	s1,.L35
 591 0444 97050000 		lla	a1,_ZL8producerPv
 591      93850500 
 592 044c 6FF05FFA 		j	.L28
 593              	.L27:
GAS LISTING /tmp/ccbkW1Ru.s 			page 17


 594              	.LBE5:
 128:test/ConsumerProducer_C_API_test.cpp **** 
 595              		.loc 1 128 5 is_stmt 1
 128:test/ConsumerProducer_C_API_test.cpp **** 
 596              		.loc 1 128 20 is_stmt 0
 597 0450 97000000 		call	_Z15thread_dispatchv
 597      E7800000 
 598              	.LVL71:
 599              	.LBB6:
 130:test/ConsumerProducer_C_API_test.cpp ****         sem_wait(waitForAll);
 600              		.loc 1 130 14
 601 0458 93040000 		li	s1,0
 602              	.LVL72:
 603              	.L31:
 130:test/ConsumerProducer_C_API_test.cpp ****         sem_wait(waitForAll);
 604              		.loc 1 130 23 is_stmt 1 discriminator 1
 605 045c 634E9900 		bgt	s1,s2,.L30
 131:test/ConsumerProducer_C_API_test.cpp ****     }
 606              		.loc 1 131 9
 131:test/ConsumerProducer_C_API_test.cpp ****     }
 607              		.loc 1 131 17 is_stmt 0
 608 0460 17050000 		ld	a0,_ZL10waitForAll
 608      03350500 
 609 0468 97000000 		call	_Z8sem_waitP4_sem
 609      E7800000 
 610              	.LVL73:
 130:test/ConsumerProducer_C_API_test.cpp ****         sem_wait(waitForAll);
 611              		.loc 1 130 5 is_stmt 1
 612 0470 9B841400 		addiw	s1,s1,1
 613              	.LVL74:
 614 0474 6FF09FFE 		j	.L31
 615              	.LVL75:
 616              	.L30:
 617              	.LBE6:
 134:test/ConsumerProducer_C_API_test.cpp **** 
 618              		.loc 1 134 5
 134:test/ConsumerProducer_C_API_test.cpp **** 
 619              		.loc 1 134 14 is_stmt 0
 620 0478 17050000 		ld	a0,_ZL10waitForAll
 620      03350500 
 621 0480 97000000 		call	_Z9sem_closeP4_sem
 621      E7800000 
 622              	.LVL76:
 623              		.loc 1 136 5 is_stmt 1
 624              		.loc 1 136 18 is_stmt 0
 625 0488 630E0A00 		beqz	s4,.L32
 626              		.loc 1 136 12 discriminator 1
 627 048c 13050A00 		mv	a0,s4
 628 0490 97000000 		call	_ZN6BufferD1Ev
 628      E7800000 
 629              	.LVL77:
 630 0498 13050A00 		mv	a0,s4
 631 049c 97000000 		call	_ZdlPv
 631      E7800000 
 632              	.LVL78:
 633              	.L32:
 634 04a4 13010B00 		mv	sp,s6
GAS LISTING /tmp/ccbkW1Ru.s 			page 18


 635              	.LVL79:
 636              	.L23:
 137:test/ConsumerProducer_C_API_test.cpp **** 
 138:test/ConsumerProducer_C_API_test.cpp **** }
 637              		.loc 1 138 1
 638 04a8 130104F9 		addi	sp,s0,-112
 639              		.cfi_remember_state
 640              		.cfi_def_cfa 2, 112
 641 04ac 83308106 		ld	ra,104(sp)
 642              		.cfi_restore 1
 643 04b0 03340106 		ld	s0,96(sp)
 644              		.cfi_restore 8
 645 04b4 83348105 		ld	s1,88(sp)
 646              		.cfi_restore 9
 647 04b8 03390105 		ld	s2,80(sp)
 648              		.cfi_restore 18
 649              	.LVL80:
 650 04bc 83398104 		ld	s3,72(sp)
 651              		.cfi_restore 19
 652 04c0 033A0104 		ld	s4,64(sp)
 653              		.cfi_restore 20
 654 04c4 833A8103 		ld	s5,56(sp)
 655              		.cfi_restore 21
 656 04c8 033B0103 		ld	s6,48(sp)
 657              		.cfi_restore 22
 658 04cc 13010107 		addi	sp,sp,112
 659              		.cfi_def_cfa_offset 0
 660 04d0 67800000 		jr	ra
 661              	.LVL81:
 662              	.L36:
 663              		.cfi_restore_state
 664 04d4 93040500 		mv	s1,a0
 665              	.LVL82:
 104:test/ConsumerProducer_C_API_test.cpp **** 
 666              		.loc 1 104 34
 667 04d8 13050A00 		mv	a0,s4
 668 04dc 97000000 		call	_ZdlPv
 668      E7800000 
 669              	.LVL83:
 670 04e4 13850400 		mv	a0,s1
 671 04e8 97000000 		call	_Unwind_Resume
 671      E7800000 
 672              	.LVL84:
 673              	.LEHE2:
 674              		.cfi_endproc
 675              	.LFE3:
 676              		.globl	__gxx_personality_v0
 677              		.section	.gcc_except_table,"aw",@progbits
 678              	.LLSDA3:
 679 0000 FF       		.byte	0xff
 680 0001 FF       		.byte	0xff
 681 0002 03       		.byte	0x3
 682 0003 27       		.byte	0x27
 683 0004 00000000 		.4byte	.LEHB0-.LFB3
 684 0008 00000000 		.4byte	.LEHE0-.LEHB0
 685 000c 00000000 		.4byte	0
 686 0010 00       		.byte	0
GAS LISTING /tmp/ccbkW1Ru.s 			page 19


 687 0011 00000000 		.4byte	.LEHB1-.LFB3
 688 0015 00000000 		.4byte	.LEHE1-.LEHB1
 689 0019 00000000 		.4byte	.L36-.LFB3
 690 001d 00       		.byte	0
 691 001e 00000000 		.4byte	.LEHB2-.LFB3
 692 0022 00000000 		.4byte	.LEHE2-.LEHB2
 693 0026 00000000 		.4byte	0
 694 002a 00       		.byte	0
 695              		.text
 697              		.section	.sbss,"aw",@nobits
 698              		.align	3
 701              	_ZL9threadEnd:
 702 0000 00000000 		.zero	4
 703 0004 00000000 		.zero	4
 706              	_ZL10waitForAll:
 707 0008 00000000 		.zero	8
 707      00000000 
 708              		.text
 709              	.Letext0:
 710              		.file 2 "test/../h/../lib/hw.h"
 711              		.file 3 "test/../h/syscall_c.hpp"
 712              		.file 4 "test/buffer.hpp"
 713              		.file 5 "test/printing.hpp"
 2863              		.align	3
 2866              	DW.ref.__gxx_personality_v0:
 2867 0000 00000000 		.dword	__gxx_personality_v0
 2867      00000000 
 2868              		.ident	"GCC: () 9.3.0"
GAS LISTING /tmp/ccbkW1Ru.s 			page 20

