GAS LISTING /tmp/ccWsGPEJ.s 			page 1


   1              		.file	"ConsumerProducer_CPP_API_test.cpp"
   2              		.option nopic
   3              		.option norelax
   4              		.attribute arch, "rv64i2p0_m2p0_a2p0"
   5              		.attribute unaligned_access, 0
   6              		.attribute stack_align, 16
   7              		.text
   8              	.Ltext0:
   9              		.section	.text._ZN8Consumer3runEv,"axG",@progbits,_ZN8Consumer3runEv,comdat
  10              		.align	2
  11              		.weak	_ZN8Consumer3runEv
  13              	_ZN8Consumer3runEv:
  14              	.LFB13:
  15              		.file 1 "test/ConsumerProducer_CPP_API_test.cpp"
   1:test/ConsumerProducer_CPP_API_test.cpp **** #include "../h/syscall_cpp.hpp"
   2:test/ConsumerProducer_CPP_API_test.cpp **** 
   3:test/ConsumerProducer_CPP_API_test.cpp **** #include "buffer_CPP_API.hpp"
   4:test/ConsumerProducer_CPP_API_test.cpp **** #include "printing.hpp"
   5:test/ConsumerProducer_CPP_API_test.cpp **** 
   6:test/ConsumerProducer_CPP_API_test.cpp **** 
   7:test/ConsumerProducer_CPP_API_test.cpp **** static Semaphore *waitForAll;
   8:test/ConsumerProducer_CPP_API_test.cpp **** 
   9:test/ConsumerProducer_CPP_API_test.cpp **** struct thread_data {
  10:test/ConsumerProducer_CPP_API_test.cpp ****     int id;
  11:test/ConsumerProducer_CPP_API_test.cpp ****     BufferCPP *buffer;
  12:test/ConsumerProducer_CPP_API_test.cpp ****     Semaphore *sem;
  13:test/ConsumerProducer_CPP_API_test.cpp **** };
  14:test/ConsumerProducer_CPP_API_test.cpp **** 
  15:test/ConsumerProducer_CPP_API_test.cpp **** static volatile int threadEnd = 0;
  16:test/ConsumerProducer_CPP_API_test.cpp **** 
  17:test/ConsumerProducer_CPP_API_test.cpp **** class ProducerKeyborad : public Thread {
  18:test/ConsumerProducer_CPP_API_test.cpp ****     thread_data *td;
  19:test/ConsumerProducer_CPP_API_test.cpp **** public:
  20:test/ConsumerProducer_CPP_API_test.cpp ****     ProducerKeyborad(thread_data *_td) : Thread(), td(_td) {}
  21:test/ConsumerProducer_CPP_API_test.cpp **** 
  22:test/ConsumerProducer_CPP_API_test.cpp ****     void run() override {
  23:test/ConsumerProducer_CPP_API_test.cpp ****         int key;
  24:test/ConsumerProducer_CPP_API_test.cpp ****         int i = 0;
  25:test/ConsumerProducer_CPP_API_test.cpp ****         while ((key = getc()) != 0x1b) {
  26:test/ConsumerProducer_CPP_API_test.cpp ****             td->buffer->put(key);
  27:test/ConsumerProducer_CPP_API_test.cpp ****             i++;
  28:test/ConsumerProducer_CPP_API_test.cpp ****         }
  29:test/ConsumerProducer_CPP_API_test.cpp **** 
  30:test/ConsumerProducer_CPP_API_test.cpp ****         threadEnd = 1;
  31:test/ConsumerProducer_CPP_API_test.cpp ****         td->buffer->put('!');
  32:test/ConsumerProducer_CPP_API_test.cpp **** 
  33:test/ConsumerProducer_CPP_API_test.cpp ****         td->sem->signal();
  34:test/ConsumerProducer_CPP_API_test.cpp ****     }
  35:test/ConsumerProducer_CPP_API_test.cpp **** };
  36:test/ConsumerProducer_CPP_API_test.cpp **** 
  37:test/ConsumerProducer_CPP_API_test.cpp **** class Producer : public Thread {
  38:test/ConsumerProducer_CPP_API_test.cpp ****     thread_data *td;
  39:test/ConsumerProducer_CPP_API_test.cpp **** public:
  40:test/ConsumerProducer_CPP_API_test.cpp ****     Producer(thread_data *_td) : Thread(), td(_td) {}
  41:test/ConsumerProducer_CPP_API_test.cpp **** 
  42:test/ConsumerProducer_CPP_API_test.cpp ****     void run() override {
  43:test/ConsumerProducer_CPP_API_test.cpp ****         int i = 0;
GAS LISTING /tmp/ccWsGPEJ.s 			page 2


  44:test/ConsumerProducer_CPP_API_test.cpp ****         while (!threadEnd) {
  45:test/ConsumerProducer_CPP_API_test.cpp ****             td->buffer->put(td->id + '0');
  46:test/ConsumerProducer_CPP_API_test.cpp ****             i++;
  47:test/ConsumerProducer_CPP_API_test.cpp ****             Thread::sleep((i + td->id) % 5);
  48:test/ConsumerProducer_CPP_API_test.cpp ****         }
  49:test/ConsumerProducer_CPP_API_test.cpp **** 
  50:test/ConsumerProducer_CPP_API_test.cpp ****         td->sem->signal();
  51:test/ConsumerProducer_CPP_API_test.cpp ****     }
  52:test/ConsumerProducer_CPP_API_test.cpp **** };
  53:test/ConsumerProducer_CPP_API_test.cpp **** 
  54:test/ConsumerProducer_CPP_API_test.cpp **** class Consumer : public Thread {
  55:test/ConsumerProducer_CPP_API_test.cpp ****     thread_data *td;
  56:test/ConsumerProducer_CPP_API_test.cpp **** public:
  57:test/ConsumerProducer_CPP_API_test.cpp ****     Consumer(thread_data *_td) : Thread(), td(_td) {}
  58:test/ConsumerProducer_CPP_API_test.cpp **** 
  59:test/ConsumerProducer_CPP_API_test.cpp ****     void run() override {
  16              		.loc 1 59 10
  17              		.cfi_startproc
  18              	.LVL0:
  19 0000 130101FD 		addi	sp,sp,-48
  20              		.cfi_def_cfa_offset 48
  21 0004 23341102 		sd	ra,40(sp)
  22 0008 23308102 		sd	s0,32(sp)
  23 000c 233C9100 		sd	s1,24(sp)
  24 0010 23382101 		sd	s2,16(sp)
  25 0014 23343101 		sd	s3,8(sp)
  26              		.cfi_offset 1, -8
  27              		.cfi_offset 8, -16
  28              		.cfi_offset 9, -24
  29              		.cfi_offset 18, -32
  30              		.cfi_offset 19, -40
  31 0018 13040103 		addi	s0,sp,48
  32              		.cfi_def_cfa 8, 0
  33 001c 13090500 		mv	s2,a0
  60:test/ConsumerProducer_CPP_API_test.cpp ****         int i = 0;
  34              		.loc 1 60 9
  35              	.LVL1:
  36              		.loc 1 60 13 is_stmt 0
  37 0020 93090000 		li	s3,0
  38 0024 6F000001 		j	.L2
  39              	.LVL2:
  40              	.L7:
  41              	.LBB23:
  61:test/ConsumerProducer_CPP_API_test.cpp ****         while (!threadEnd) {
  62:test/ConsumerProducer_CPP_API_test.cpp ****             int key = td->buffer->get();
  63:test/ConsumerProducer_CPP_API_test.cpp ****             i++;
  64:test/ConsumerProducer_CPP_API_test.cpp **** 
  65:test/ConsumerProducer_CPP_API_test.cpp ****             Console::putc(key);
  66:test/ConsumerProducer_CPP_API_test.cpp **** 
  67:test/ConsumerProducer_CPP_API_test.cpp ****             if (i % 80 == 0) {
  68:test/ConsumerProducer_CPP_API_test.cpp ****                 Console::putc('\n');
  42              		.loc 1 68 17 is_stmt 1
  43              		.loc 1 68 30 is_stmt 0
  44 0028 1305A000 		li	a0,10
  45 002c 97000000 		call	_ZN7Console4putcEc
  45      E7800000 
  46              	.LVL3:
GAS LISTING /tmp/ccWsGPEJ.s 			page 3


  47              	.L2:
  48              	.LBE23:
  61:test/ConsumerProducer_CPP_API_test.cpp ****         while (!threadEnd) {
  49              		.loc 1 61 9 is_stmt 1
  61:test/ConsumerProducer_CPP_API_test.cpp ****         while (!threadEnd) {
  50              		.loc 1 61 16
  51 0034 97070000 		lw	a5,_ZL9threadEnd
  51      83A70700 
  52 003c 639A0704 		bnez	a5,.L3
  53              	.LBB24:
  62:test/ConsumerProducer_CPP_API_test.cpp ****             i++;
  54              		.loc 1 62 13
  62:test/ConsumerProducer_CPP_API_test.cpp ****             i++;
  55              		.loc 1 62 23 is_stmt 0
  56 0040 83370902 		ld	a5,32(s2)
  62:test/ConsumerProducer_CPP_API_test.cpp ****             i++;
  57              		.loc 1 62 38
  58 0044 03B58700 		ld	a0,8(a5)
  59 0048 97000000 		call	_ZN9BufferCPP3getEv
  59      E7800000 
  60              	.LVL4:
  63:test/ConsumerProducer_CPP_API_test.cpp **** 
  61              		.loc 1 63 13 is_stmt 1
  63:test/ConsumerProducer_CPP_API_test.cpp **** 
  62              		.loc 1 63 14 is_stmt 0
  63 0050 9B841900 		addiw	s1,s3,1
  64 0054 9B890400 		sext.w	s3,s1
  65              	.LVL5:
  65:test/ConsumerProducer_CPP_API_test.cpp **** 
  66              		.loc 1 65 13 is_stmt 1
  65:test/ConsumerProducer_CPP_API_test.cpp **** 
  67              		.loc 1 65 26 is_stmt 0
  68 0058 1375F50F 		andi	a0,a0,0xff
  69              	.LVL6:
  70 005c 97000000 		call	_ZN7Console4putcEc
  70      E7800000 
  71              	.LVL7:
  67:test/ConsumerProducer_CPP_API_test.cpp ****                 Console::putc('\n');
  72              		.loc 1 67 13 is_stmt 1
  67:test/ConsumerProducer_CPP_API_test.cpp ****                 Console::putc('\n');
  73              		.loc 1 67 19 is_stmt 0
  74 0064 93070005 		li	a5,80
  75 0068 BBE4F402 		remw	s1,s1,a5
  76              	.LVL8:
  67:test/ConsumerProducer_CPP_API_test.cpp ****                 Console::putc('\n');
  77              		.loc 1 67 13
  78 006c E39404FC 		bnez	s1,.L2
  79 0070 6FF09FFB 		j	.L7
  80              	.L8:
  81              	.LBE24:
  82              	.LBB25:
  69:test/ConsumerProducer_CPP_API_test.cpp ****             }
  70:test/ConsumerProducer_CPP_API_test.cpp ****         }
  71:test/ConsumerProducer_CPP_API_test.cpp **** 
  72:test/ConsumerProducer_CPP_API_test.cpp ****         while (td->buffer->getCnt() > 0) {
  73:test/ConsumerProducer_CPP_API_test.cpp ****             int key = td->buffer->get();
  83              		.loc 1 73 13 is_stmt 1
GAS LISTING /tmp/ccWsGPEJ.s 			page 4


  84              		.loc 1 73 23 is_stmt 0
  85 0074 83370902 		ld	a5,32(s2)
  86              		.loc 1 73 38
  87 0078 03B58700 		ld	a0,8(a5)
  88 007c 97000000 		call	_ZN9BufferCPP3getEv
  88      E7800000 
  89              	.LVL9:
  74:test/ConsumerProducer_CPP_API_test.cpp ****             Console::putc(key);
  90              		.loc 1 74 13 is_stmt 1
  91              		.loc 1 74 26 is_stmt 0
  92 0084 1375F50F 		andi	a0,a0,0xff
  93              	.LVL10:
  94 0088 97000000 		call	_ZN7Console4putcEc
  94      E7800000 
  95              	.LVL11:
  96              	.L3:
  97              	.LBE25:
  72:test/ConsumerProducer_CPP_API_test.cpp ****             int key = td->buffer->get();
  98              		.loc 1 72 9 is_stmt 1
  72:test/ConsumerProducer_CPP_API_test.cpp ****             int key = td->buffer->get();
  99              		.loc 1 72 37
  72:test/ConsumerProducer_CPP_API_test.cpp ****             int key = td->buffer->get();
 100              		.loc 1 72 16 is_stmt 0
 101 0090 83370902 		ld	a5,32(s2)
  72:test/ConsumerProducer_CPP_API_test.cpp ****             int key = td->buffer->get();
 102              		.loc 1 72 34
 103 0094 03B58700 		ld	a0,8(a5)
 104 0098 97000000 		call	_ZN9BufferCPP6getCntEv
 104      E7800000 
 105              	.LVL12:
  72:test/ConsumerProducer_CPP_API_test.cpp ****             int key = td->buffer->get();
 106              		.loc 1 72 37
 107 00a0 E34AA0FC 		bgtz	a0,.L8
  75:test/ConsumerProducer_CPP_API_test.cpp ****         }
  76:test/ConsumerProducer_CPP_API_test.cpp **** 
  77:test/ConsumerProducer_CPP_API_test.cpp ****         td->sem->signal();
 108              		.loc 1 77 9 is_stmt 1
 109 00a4 83370902 		ld	a5,32(s2)
 110              		.loc 1 77 24 is_stmt 0
 111 00a8 03B50701 		ld	a0,16(a5)
 112 00ac 97000000 		call	_ZN9Semaphore6signalEv
 112      E7800000 
 113              	.LVL13:
  78:test/ConsumerProducer_CPP_API_test.cpp ****     }
 114              		.loc 1 78 5
 115 00b4 83308102 		ld	ra,40(sp)
 116              		.cfi_restore 1
 117 00b8 03340102 		ld	s0,32(sp)
 118              		.cfi_restore 8
 119              		.cfi_def_cfa 2, 48
 120 00bc 83348101 		ld	s1,24(sp)
 121              		.cfi_restore 9
 122 00c0 03390101 		ld	s2,16(sp)
 123              		.cfi_restore 18
 124              	.LVL14:
 125 00c4 83398100 		ld	s3,8(sp)
 126              		.cfi_restore 19
GAS LISTING /tmp/ccWsGPEJ.s 			page 5


 127              	.LVL15:
 128 00c8 13010103 		addi	sp,sp,48
 129              		.cfi_def_cfa_offset 0
 130 00cc 67800000 		jr	ra
 131              		.cfi_endproc
 132              	.LFE13:
 134              		.section	.text._ZN8ConsumerD2Ev,"axG",@progbits,_ZN8ConsumerD5Ev,comdat
 135              		.align	2
 136              		.weak	_ZN8ConsumerD2Ev
 138              	_ZN8ConsumerD2Ev:
 139              	.LFB16:
  54:test/ConsumerProducer_CPP_API_test.cpp ****     thread_data *td;
 140              		.loc 1 54 7 is_stmt 1
 141              		.cfi_startproc
 142              	.LVL16:
 143 0000 130101FF 		addi	sp,sp,-16
 144              		.cfi_def_cfa_offset 16
 145 0004 23341100 		sd	ra,8(sp)
 146 0008 23308100 		sd	s0,0(sp)
 147              		.cfi_offset 1, -8
 148              		.cfi_offset 8, -16
 149 000c 13040101 		addi	s0,sp,16
 150              		.cfi_def_cfa 8, 0
 151              	.LBB26:
  54:test/ConsumerProducer_CPP_API_test.cpp ****     thread_data *td;
 152              		.loc 1 54 7 is_stmt 0
 153 0010 97070000 		lla	a5,_ZTV8Consumer+16
 153      93870700 
 154 0018 2330F500 		sd	a5,0(a0)
 155 001c 97000000 		call	_ZN6ThreadD2Ev
 155      E7800000 
 156              	.LVL17:
 157              	.LBE26:
 158 0024 83308100 		ld	ra,8(sp)
 159              		.cfi_restore 1
 160 0028 03340100 		ld	s0,0(sp)
 161              		.cfi_restore 8
 162              		.cfi_def_cfa 2, 16
 163 002c 13010101 		addi	sp,sp,16
 164              		.cfi_def_cfa_offset 0
 165 0030 67800000 		jr	ra
 166              		.cfi_endproc
 167              	.LFE16:
 169              		.weak	_ZN8ConsumerD1Ev
 170              		.set	_ZN8ConsumerD1Ev,_ZN8ConsumerD2Ev
 171              		.section	.text._ZN8ConsumerD0Ev,"axG",@progbits,_ZN8ConsumerD5Ev,comdat
 172              		.align	2
 173              		.weak	_ZN8ConsumerD0Ev
 175              	_ZN8ConsumerD0Ev:
 176              	.LFB18:
  54:test/ConsumerProducer_CPP_API_test.cpp ****     thread_data *td;
 177              		.loc 1 54 7 is_stmt 1
 178              		.cfi_startproc
 179              	.LVL18:
 180 0000 130101FE 		addi	sp,sp,-32
 181              		.cfi_def_cfa_offset 32
 182 0004 233C1100 		sd	ra,24(sp)
GAS LISTING /tmp/ccWsGPEJ.s 			page 6


 183 0008 23388100 		sd	s0,16(sp)
 184 000c 23349100 		sd	s1,8(sp)
 185              		.cfi_offset 1, -8
 186              		.cfi_offset 8, -16
 187              		.cfi_offset 9, -24
 188 0010 13040102 		addi	s0,sp,32
 189              		.cfi_def_cfa 8, 0
 190 0014 93040500 		mv	s1,a0
 191              	.LVL19:
 192              	.LBB27:
 193              	.LBB28:
  54:test/ConsumerProducer_CPP_API_test.cpp ****     thread_data *td;
 194              		.loc 1 54 7 is_stmt 0
 195 0018 97070000 		lla	a5,_ZTV8Consumer+16
 195      93870700 
 196 0020 2330F500 		sd	a5,0(a0)
 197 0024 97000000 		call	_ZN6ThreadD2Ev
 197      E7800000 
 198              	.LVL20:
 199              	.LBE28:
 200              	.LBE27:
 201 002c 13850400 		mv	a0,s1
 202 0030 97000000 		call	_ZdlPv
 202      E7800000 
 203              	.LVL21:
 204 0038 83308101 		ld	ra,24(sp)
 205              		.cfi_restore 1
 206 003c 03340101 		ld	s0,16(sp)
 207              		.cfi_restore 8
 208              		.cfi_def_cfa 2, 32
 209 0040 83348100 		ld	s1,8(sp)
 210              		.cfi_restore 9
 211              	.LVL22:
 212 0044 13010102 		addi	sp,sp,32
 213              		.cfi_def_cfa_offset 0
 214 0048 67800000 		jr	ra
 215              		.cfi_endproc
 216              	.LFE18:
 218              		.section	.text._ZN16ProducerKeyboradD2Ev,"axG",@progbits,_ZN16ProducerKeyboradD5Ev,comdat
 219              		.align	2
 220              		.weak	_ZN16ProducerKeyboradD2Ev
 222              	_ZN16ProducerKeyboradD2Ev:
 223              	.LFB24:
  17:test/ConsumerProducer_CPP_API_test.cpp ****     thread_data *td;
 224              		.loc 1 17 7 is_stmt 1
 225              		.cfi_startproc
 226              	.LVL23:
 227 0000 130101FF 		addi	sp,sp,-16
 228              		.cfi_def_cfa_offset 16
 229 0004 23341100 		sd	ra,8(sp)
 230 0008 23308100 		sd	s0,0(sp)
 231              		.cfi_offset 1, -8
 232              		.cfi_offset 8, -16
 233 000c 13040101 		addi	s0,sp,16
 234              		.cfi_def_cfa 8, 0
 235              	.LBB29:
  17:test/ConsumerProducer_CPP_API_test.cpp ****     thread_data *td;
GAS LISTING /tmp/ccWsGPEJ.s 			page 7


 236              		.loc 1 17 7 is_stmt 0
 237 0010 97070000 		lla	a5,_ZTV16ProducerKeyborad+16
 237      93870700 
 238 0018 2330F500 		sd	a5,0(a0)
 239 001c 97000000 		call	_ZN6ThreadD2Ev
 239      E7800000 
 240              	.LVL24:
 241              	.LBE29:
 242 0024 83308100 		ld	ra,8(sp)
 243              		.cfi_restore 1
 244 0028 03340100 		ld	s0,0(sp)
 245              		.cfi_restore 8
 246              		.cfi_def_cfa 2, 16
 247 002c 13010101 		addi	sp,sp,16
 248              		.cfi_def_cfa_offset 0
 249 0030 67800000 		jr	ra
 250              		.cfi_endproc
 251              	.LFE24:
 253              		.weak	_ZN16ProducerKeyboradD1Ev
 254              		.set	_ZN16ProducerKeyboradD1Ev,_ZN16ProducerKeyboradD2Ev
 255              		.section	.text._ZN16ProducerKeyboradD0Ev,"axG",@progbits,_ZN16ProducerKeyboradD5Ev,comdat
 256              		.align	2
 257              		.weak	_ZN16ProducerKeyboradD0Ev
 259              	_ZN16ProducerKeyboradD0Ev:
 260              	.LFB26:
  17:test/ConsumerProducer_CPP_API_test.cpp ****     thread_data *td;
 261              		.loc 1 17 7 is_stmt 1
 262              		.cfi_startproc
 263              	.LVL25:
 264 0000 130101FE 		addi	sp,sp,-32
 265              		.cfi_def_cfa_offset 32
 266 0004 233C1100 		sd	ra,24(sp)
 267 0008 23388100 		sd	s0,16(sp)
 268 000c 23349100 		sd	s1,8(sp)
 269              		.cfi_offset 1, -8
 270              		.cfi_offset 8, -16
 271              		.cfi_offset 9, -24
 272 0010 13040102 		addi	s0,sp,32
 273              		.cfi_def_cfa 8, 0
 274 0014 93040500 		mv	s1,a0
 275              	.LVL26:
 276              	.LBB30:
 277              	.LBB31:
  17:test/ConsumerProducer_CPP_API_test.cpp ****     thread_data *td;
 278              		.loc 1 17 7 is_stmt 0
 279 0018 97070000 		lla	a5,_ZTV16ProducerKeyborad+16
 279      93870700 
 280 0020 2330F500 		sd	a5,0(a0)
 281 0024 97000000 		call	_ZN6ThreadD2Ev
 281      E7800000 
 282              	.LVL27:
 283              	.LBE31:
 284              	.LBE30:
 285 002c 13850400 		mv	a0,s1
 286 0030 97000000 		call	_ZdlPv
 286      E7800000 
 287              	.LVL28:
GAS LISTING /tmp/ccWsGPEJ.s 			page 8


 288 0038 83308101 		ld	ra,24(sp)
 289              		.cfi_restore 1
 290 003c 03340101 		ld	s0,16(sp)
 291              		.cfi_restore 8
 292              		.cfi_def_cfa 2, 32
 293 0040 83348100 		ld	s1,8(sp)
 294              		.cfi_restore 9
 295              	.LVL29:
 296 0044 13010102 		addi	sp,sp,32
 297              		.cfi_def_cfa_offset 0
 298 0048 67800000 		jr	ra
 299              		.cfi_endproc
 300              	.LFE26:
 302              		.section	.text._ZN8ProducerD2Ev,"axG",@progbits,_ZN8ProducerD5Ev,comdat
 303              		.align	2
 304              		.weak	_ZN8ProducerD2Ev
 306              	_ZN8ProducerD2Ev:
 307              	.LFB20:
  37:test/ConsumerProducer_CPP_API_test.cpp ****     thread_data *td;
 308              		.loc 1 37 7 is_stmt 1
 309              		.cfi_startproc
 310              	.LVL30:
 311 0000 130101FF 		addi	sp,sp,-16
 312              		.cfi_def_cfa_offset 16
 313 0004 23341100 		sd	ra,8(sp)
 314 0008 23308100 		sd	s0,0(sp)
 315              		.cfi_offset 1, -8
 316              		.cfi_offset 8, -16
 317 000c 13040101 		addi	s0,sp,16
 318              		.cfi_def_cfa 8, 0
 319              	.LBB32:
  37:test/ConsumerProducer_CPP_API_test.cpp ****     thread_data *td;
 320              		.loc 1 37 7 is_stmt 0
 321 0010 97070000 		lla	a5,_ZTV8Producer+16
 321      93870700 
 322 0018 2330F500 		sd	a5,0(a0)
 323 001c 97000000 		call	_ZN6ThreadD2Ev
 323      E7800000 
 324              	.LVL31:
 325              	.LBE32:
 326 0024 83308100 		ld	ra,8(sp)
 327              		.cfi_restore 1
 328 0028 03340100 		ld	s0,0(sp)
 329              		.cfi_restore 8
 330              		.cfi_def_cfa 2, 16
 331 002c 13010101 		addi	sp,sp,16
 332              		.cfi_def_cfa_offset 0
 333 0030 67800000 		jr	ra
 334              		.cfi_endproc
 335              	.LFE20:
 337              		.weak	_ZN8ProducerD1Ev
 338              		.set	_ZN8ProducerD1Ev,_ZN8ProducerD2Ev
 339              		.section	.text._ZN8ProducerD0Ev,"axG",@progbits,_ZN8ProducerD5Ev,comdat
 340              		.align	2
 341              		.weak	_ZN8ProducerD0Ev
 343              	_ZN8ProducerD0Ev:
 344              	.LFB22:
GAS LISTING /tmp/ccWsGPEJ.s 			page 9


  37:test/ConsumerProducer_CPP_API_test.cpp ****     thread_data *td;
 345              		.loc 1 37 7 is_stmt 1
 346              		.cfi_startproc
 347              	.LVL32:
 348 0000 130101FE 		addi	sp,sp,-32
 349              		.cfi_def_cfa_offset 32
 350 0004 233C1100 		sd	ra,24(sp)
 351 0008 23388100 		sd	s0,16(sp)
 352 000c 23349100 		sd	s1,8(sp)
 353              		.cfi_offset 1, -8
 354              		.cfi_offset 8, -16
 355              		.cfi_offset 9, -24
 356 0010 13040102 		addi	s0,sp,32
 357              		.cfi_def_cfa 8, 0
 358 0014 93040500 		mv	s1,a0
 359              	.LVL33:
 360              	.LBB33:
 361              	.LBB34:
  37:test/ConsumerProducer_CPP_API_test.cpp ****     thread_data *td;
 362              		.loc 1 37 7 is_stmt 0
 363 0018 97070000 		lla	a5,_ZTV8Producer+16
 363      93870700 
 364 0020 2330F500 		sd	a5,0(a0)
 365 0024 97000000 		call	_ZN6ThreadD2Ev
 365      E7800000 
 366              	.LVL34:
 367              	.LBE34:
 368              	.LBE33:
 369 002c 13850400 		mv	a0,s1
 370 0030 97000000 		call	_ZdlPv
 370      E7800000 
 371              	.LVL35:
 372 0038 83308101 		ld	ra,24(sp)
 373              		.cfi_restore 1
 374 003c 03340101 		ld	s0,16(sp)
 375              		.cfi_restore 8
 376              		.cfi_def_cfa 2, 32
 377 0040 83348100 		ld	s1,8(sp)
 378              		.cfi_restore 9
 379              	.LVL36:
 380 0044 13010102 		addi	sp,sp,32
 381              		.cfi_def_cfa_offset 0
 382 0048 67800000 		jr	ra
 383              		.cfi_endproc
 384              	.LFE22:
 386              		.section	.text._ZN16ProducerKeyborad3runEv,"axG",@progbits,_ZN16ProducerKeyborad3runEv,comdat
 387              		.align	2
 388              		.weak	_ZN16ProducerKeyborad3runEv
 390              	_ZN16ProducerKeyborad3runEv:
 391              	.LFB5:
  22:test/ConsumerProducer_CPP_API_test.cpp ****         int key;
 392              		.loc 1 22 10 is_stmt 1
 393              		.cfi_startproc
 394              	.LVL37:
 395 0000 130101FE 		addi	sp,sp,-32
 396              		.cfi_def_cfa_offset 32
 397 0004 233C1100 		sd	ra,24(sp)
GAS LISTING /tmp/ccWsGPEJ.s 			page 10


 398 0008 23388100 		sd	s0,16(sp)
 399 000c 23349100 		sd	s1,8(sp)
 400              		.cfi_offset 1, -8
 401              		.cfi_offset 8, -16
 402              		.cfi_offset 9, -24
 403 0010 13040102 		addi	s0,sp,32
 404              		.cfi_def_cfa 8, 0
 405 0014 93040500 		mv	s1,a0
  23:test/ConsumerProducer_CPP_API_test.cpp ****         int i = 0;
 406              		.loc 1 23 9
  24:test/ConsumerProducer_CPP_API_test.cpp ****         while ((key = getc()) != 0x1b) {
 407              		.loc 1 24 9
 408              	.LVL38:
 409              	.L23:
  25:test/ConsumerProducer_CPP_API_test.cpp ****             td->buffer->put(key);
 410              		.loc 1 25 9
  25:test/ConsumerProducer_CPP_API_test.cpp ****             td->buffer->put(key);
 411              		.loc 1 25 31
  25:test/ConsumerProducer_CPP_API_test.cpp ****             td->buffer->put(key);
 412              		.loc 1 25 27 is_stmt 0
 413 0018 97000000 		call	_Z4getcv
 413      E7800000 
 414              	.LVL39:
  25:test/ConsumerProducer_CPP_API_test.cpp ****             td->buffer->put(key);
 415              		.loc 1 25 21
 416 0020 9B050500 		sext.w	a1,a0
 417              	.LVL40:
  25:test/ConsumerProducer_CPP_API_test.cpp ****             td->buffer->put(key);
 418              		.loc 1 25 31
 419 0024 9307B001 		li	a5,27
 420 0028 638CF500 		beq	a1,a5,.L22
  26:test/ConsumerProducer_CPP_API_test.cpp ****             i++;
 421              		.loc 1 26 13 is_stmt 1
 422 002c 83B70402 		ld	a5,32(s1)
  26:test/ConsumerProducer_CPP_API_test.cpp ****             i++;
 423              		.loc 1 26 28 is_stmt 0
 424 0030 03B58700 		ld	a0,8(a5)
 425 0034 97000000 		call	_ZN9BufferCPP3putEi
 425      E7800000 
 426              	.LVL41:
  27:test/ConsumerProducer_CPP_API_test.cpp ****         }
 427              		.loc 1 27 13 is_stmt 1
  25:test/ConsumerProducer_CPP_API_test.cpp ****             td->buffer->put(key);
 428              		.loc 1 25 9 is_stmt 0
 429 003c 6FF0DFFD 		j	.L23
 430              	.LVL42:
 431              	.L22:
  30:test/ConsumerProducer_CPP_API_test.cpp ****         td->buffer->put('!');
 432              		.loc 1 30 9 is_stmt 1
  30:test/ConsumerProducer_CPP_API_test.cpp ****         td->buffer->put('!');
 433              		.loc 1 30 19 is_stmt 0
 434 0040 93071000 		li	a5,1
 435 0044 17070000 		sw	a5,_ZL9threadEnd,a4
 435      2320F700 
  31:test/ConsumerProducer_CPP_API_test.cpp **** 
 436              		.loc 1 31 9 is_stmt 1
 437 004c 83B70402 		ld	a5,32(s1)
GAS LISTING /tmp/ccWsGPEJ.s 			page 11


  31:test/ConsumerProducer_CPP_API_test.cpp **** 
 438              		.loc 1 31 24 is_stmt 0
 439 0050 93051002 		li	a1,33
 440              	.LVL43:
 441 0054 03B58700 		ld	a0,8(a5)
 442              	.LVL44:
 443 0058 97000000 		call	_ZN9BufferCPP3putEi
 443      E7800000 
 444              	.LVL45:
  33:test/ConsumerProducer_CPP_API_test.cpp ****     }
 445              		.loc 1 33 9 is_stmt 1
 446 0060 83B70402 		ld	a5,32(s1)
  33:test/ConsumerProducer_CPP_API_test.cpp ****     }
 447              		.loc 1 33 24 is_stmt 0
 448 0064 03B50701 		ld	a0,16(a5)
 449 0068 97000000 		call	_ZN9Semaphore6signalEv
 449      E7800000 
 450              	.LVL46:
  34:test/ConsumerProducer_CPP_API_test.cpp **** };
 451              		.loc 1 34 5
 452 0070 83308101 		ld	ra,24(sp)
 453              		.cfi_restore 1
 454 0074 03340101 		ld	s0,16(sp)
 455              		.cfi_restore 8
 456              		.cfi_def_cfa 2, 32
 457 0078 83348100 		ld	s1,8(sp)
 458              		.cfi_restore 9
 459              	.LVL47:
 460 007c 13010102 		addi	sp,sp,32
 461              		.cfi_def_cfa_offset 0
 462 0080 67800000 		jr	ra
 463              		.cfi_endproc
 464              	.LFE5:
 466              		.section	.text._ZN8Producer3runEv,"axG",@progbits,_ZN8Producer3runEv,comdat
 467              		.align	2
 468              		.weak	_ZN8Producer3runEv
 470              	_ZN8Producer3runEv:
 471              	.LFB9:
  42:test/ConsumerProducer_CPP_API_test.cpp ****         int i = 0;
 472              		.loc 1 42 10 is_stmt 1
 473              		.cfi_startproc
 474              	.LVL48:
 475 0000 130101FE 		addi	sp,sp,-32
 476              		.cfi_def_cfa_offset 32
 477 0004 233C1100 		sd	ra,24(sp)
 478 0008 23388100 		sd	s0,16(sp)
 479 000c 23349100 		sd	s1,8(sp)
 480 0010 23302101 		sd	s2,0(sp)
 481              		.cfi_offset 1, -8
 482              		.cfi_offset 8, -16
 483              		.cfi_offset 9, -24
 484              		.cfi_offset 18, -32
 485 0014 13040102 		addi	s0,sp,32
 486              		.cfi_def_cfa 8, 0
 487 0018 93040500 		mv	s1,a0
  43:test/ConsumerProducer_CPP_API_test.cpp ****         while (!threadEnd) {
 488              		.loc 1 43 9
GAS LISTING /tmp/ccWsGPEJ.s 			page 12


 489              	.LVL49:
  43:test/ConsumerProducer_CPP_API_test.cpp ****         while (!threadEnd) {
 490              		.loc 1 43 13 is_stmt 0
 491 001c 13090000 		li	s2,0
 492              	.LVL50:
 493              	.L27:
  44:test/ConsumerProducer_CPP_API_test.cpp ****             td->buffer->put(td->id + '0');
 494              		.loc 1 44 9 is_stmt 1
  44:test/ConsumerProducer_CPP_API_test.cpp ****             td->buffer->put(td->id + '0');
 495              		.loc 1 44 16
 496 0020 97070000 		lw	a5,_ZL9threadEnd
 496      83A70700 
 497 0028 63920704 		bnez	a5,.L26
  45:test/ConsumerProducer_CPP_API_test.cpp ****             i++;
 498              		.loc 1 45 13
 499 002c 83B70402 		ld	a5,32(s1)
  45:test/ConsumerProducer_CPP_API_test.cpp ****             i++;
 500              		.loc 1 45 33 is_stmt 0
 501 0030 83A50700 		lw	a1,0(a5)
  45:test/ConsumerProducer_CPP_API_test.cpp ****             i++;
 502              		.loc 1 45 28
 503 0034 9B850503 		addiw	a1,a1,48
 504 0038 03B58700 		ld	a0,8(a5)
 505 003c 97000000 		call	_ZN9BufferCPP3putEi
 505      E7800000 
 506              	.LVL51:
  46:test/ConsumerProducer_CPP_API_test.cpp ****             Thread::sleep((i + td->id) % 5);
 507              		.loc 1 46 13 is_stmt 1
  46:test/ConsumerProducer_CPP_API_test.cpp ****             Thread::sleep((i + td->id) % 5);
 508              		.loc 1 46 14 is_stmt 0
 509 0044 1B071900 		addiw	a4,s2,1
 510 0048 1B090700 		sext.w	s2,a4
 511              	.LVL52:
  47:test/ConsumerProducer_CPP_API_test.cpp ****         }
 512              		.loc 1 47 13 is_stmt 1
  47:test/ConsumerProducer_CPP_API_test.cpp ****         }
 513              		.loc 1 47 32 is_stmt 0
 514 004c 83B70402 		ld	a5,32(s1)
  47:test/ConsumerProducer_CPP_API_test.cpp ****         }
 515              		.loc 1 47 36
 516 0050 83A70700 		lw	a5,0(a5)
  47:test/ConsumerProducer_CPP_API_test.cpp ****         }
 517              		.loc 1 47 30
 518 0054 BB87E700 		addw	a5,a5,a4
  47:test/ConsumerProducer_CPP_API_test.cpp ****         }
 519              		.loc 1 47 26
 520 0058 13055000 		li	a0,5
 521 005c 3BE5A702 		remw	a0,a5,a0
 522 0060 97000000 		call	_ZN6Thread5sleepEm
 522      E7800000 
 523              	.LVL53:
  44:test/ConsumerProducer_CPP_API_test.cpp ****             td->buffer->put(td->id + '0');
 524              		.loc 1 44 9
 525 0068 6FF09FFB 		j	.L27
 526              	.L26:
  50:test/ConsumerProducer_CPP_API_test.cpp ****     }
 527              		.loc 1 50 9 is_stmt 1
GAS LISTING /tmp/ccWsGPEJ.s 			page 13


 528 006c 83B70402 		ld	a5,32(s1)
  50:test/ConsumerProducer_CPP_API_test.cpp ****     }
 529              		.loc 1 50 24 is_stmt 0
 530 0070 03B50701 		ld	a0,16(a5)
 531 0074 97000000 		call	_ZN9Semaphore6signalEv
 531      E7800000 
 532              	.LVL54:
  51:test/ConsumerProducer_CPP_API_test.cpp **** };
 533              		.loc 1 51 5
 534 007c 83308101 		ld	ra,24(sp)
 535              		.cfi_restore 1
 536 0080 03340101 		ld	s0,16(sp)
 537              		.cfi_restore 8
 538              		.cfi_def_cfa 2, 32
 539 0084 83348100 		ld	s1,8(sp)
 540              		.cfi_restore 9
 541              	.LVL55:
 542 0088 03390100 		ld	s2,0(sp)
 543              		.cfi_restore 18
 544              	.LVL56:
 545 008c 13010102 		addi	sp,sp,32
 546              		.cfi_def_cfa_offset 0
 547 0090 67800000 		jr	ra
 548              		.cfi_endproc
 549              	.LFE9:
 551              		.section	.rodata.str1.8,"aMS",@progbits,1
 552              		.align	3
 553              	.LC0:
 554 0000 556E6573 		.string	"Unesite broj proizvodjaca?\n"
 554      69746520 
 554      62726F6A 
 554      2070726F 
 554      697A766F 
 555 001c 00000000 		.align	3
 556              	.LC1:
 557 0020 556E6573 		.string	"Unesite velicinu bafera?\n"
 557      69746520 
 557      76656C69 
 557      63696E75 
 557      20626166 
 558 003a 00000000 		.align	3
 558      0000
 559              	.LC2:
 560 0040 42726F6A 		.string	"Broj proizvodjaca "
 560      2070726F 
 560      697A766F 
 560      646A6163 
 560      612000
 561 0053 00000000 		.align	3
 561      00
 562              	.LC3:
 563 0058 20692076 		.string	" i velicina bafera "
 563      656C6963 
 563      696E6120 
 563      62616665 
 563      72612000 
 564 006c 00000000 		.align	3
GAS LISTING /tmp/ccWsGPEJ.s 			page 14


 565              	.LC4:
 566 0070 2E0A00   		.string	".\n"
 567 0073 00000000 		.align	3
 567      00
 568              	.LC5:
 569 0078 42726F6A 		.string	"Broj proizvodjaca ne sme biti manji od velicine bafera!\n"
 569      2070726F 
 569      697A766F 
 569      646A6163 
 569      61206E65 
 570 00b1 00000000 		.align	3
 570      000000
 571              	.LC6:
 572 00b8 42726F6A 		.string	"Broj proizvodjaca mora biti veci od nula!\n"
 572      2070726F 
 572      697A766F 
 572      646A6163 
 572      61206D6F 
 573              		.text
 574              		.align	2
 575              		.globl	_Z20testConsumerProducerv
 577              	_Z20testConsumerProducerv:
 578              	.LFB14:
  79:test/ConsumerProducer_CPP_API_test.cpp **** };
  80:test/ConsumerProducer_CPP_API_test.cpp **** 
  81:test/ConsumerProducer_CPP_API_test.cpp **** void testConsumerProducer() {
 579              		.loc 1 81 29 is_stmt 1
 580              		.cfi_startproc
 581              		.cfi_personality 0x9b,DW.ref.__gxx_personality_v0
 582              		.cfi_lsda 0x1b,.LLSDA14
 583 0000 130101F8 		addi	sp,sp,-128
 584              		.cfi_def_cfa_offset 128
 585 0004 233C1106 		sd	ra,120(sp)
 586 0008 23388106 		sd	s0,112(sp)
 587 000c 23349106 		sd	s1,104(sp)
 588 0010 23302107 		sd	s2,96(sp)
 589 0014 233C3105 		sd	s3,88(sp)
 590 0018 23384105 		sd	s4,80(sp)
 591 001c 23345105 		sd	s5,72(sp)
 592 0020 23306105 		sd	s6,64(sp)
 593 0024 233C7103 		sd	s7,56(sp)
 594 0028 23388103 		sd	s8,48(sp)
 595 002c 23349103 		sd	s9,40(sp)
 596              		.cfi_offset 1, -8
 597              		.cfi_offset 8, -16
 598              		.cfi_offset 9, -24
 599              		.cfi_offset 18, -32
 600              		.cfi_offset 19, -40
 601              		.cfi_offset 20, -48
 602              		.cfi_offset 21, -56
 603              		.cfi_offset 22, -64
 604              		.cfi_offset 23, -72
 605              		.cfi_offset 24, -80
 606              		.cfi_offset 25, -88
 607 0030 13040108 		addi	s0,sp,128
 608              		.cfi_def_cfa 8, 0
  82:test/ConsumerProducer_CPP_API_test.cpp ****     char input[30];
GAS LISTING /tmp/ccWsGPEJ.s 			page 15


  83:test/ConsumerProducer_CPP_API_test.cpp ****     int n, threadNum;
  84:test/ConsumerProducer_CPP_API_test.cpp **** 
  85:test/ConsumerProducer_CPP_API_test.cpp ****     printString("Unesite broj proizvodjaca?\n");
  86:test/ConsumerProducer_CPP_API_test.cpp ****     getString(input, 30);
  87:test/ConsumerProducer_CPP_API_test.cpp ****     threadNum = stringToInt(input);
  88:test/ConsumerProducer_CPP_API_test.cpp **** 
  89:test/ConsumerProducer_CPP_API_test.cpp ****     printString("Unesite velicinu bafera?\n");
  90:test/ConsumerProducer_CPP_API_test.cpp ****     getString(input, 30);
  91:test/ConsumerProducer_CPP_API_test.cpp ****     n = stringToInt(input);
  92:test/ConsumerProducer_CPP_API_test.cpp **** 
  93:test/ConsumerProducer_CPP_API_test.cpp ****     printString("Broj proizvodjaca ");
  94:test/ConsumerProducer_CPP_API_test.cpp ****     printInt(threadNum);
  95:test/ConsumerProducer_CPP_API_test.cpp ****     printString(" i velicina bafera ");
  96:test/ConsumerProducer_CPP_API_test.cpp ****     printInt(n);
  97:test/ConsumerProducer_CPP_API_test.cpp ****     printString(".\n");
  98:test/ConsumerProducer_CPP_API_test.cpp **** 
  99:test/ConsumerProducer_CPP_API_test.cpp ****     if (threadNum > n) {
 100:test/ConsumerProducer_CPP_API_test.cpp ****         printString("Broj proizvodjaca ne sme biti manji od velicine bafera!\n");
 101:test/ConsumerProducer_CPP_API_test.cpp ****         return;
 102:test/ConsumerProducer_CPP_API_test.cpp ****     } else if (threadNum < 1) {
 103:test/ConsumerProducer_CPP_API_test.cpp ****         printString("Broj proizvodjaca mora biti veci od nula!\n");
 104:test/ConsumerProducer_CPP_API_test.cpp ****         return;
 105:test/ConsumerProducer_CPP_API_test.cpp ****     }
 106:test/ConsumerProducer_CPP_API_test.cpp **** 
 107:test/ConsumerProducer_CPP_API_test.cpp ****     BufferCPP *buffer = new BufferCPP(n);
 108:test/ConsumerProducer_CPP_API_test.cpp **** 
 109:test/ConsumerProducer_CPP_API_test.cpp ****     waitForAll = new Semaphore(0);
 110:test/ConsumerProducer_CPP_API_test.cpp ****     Thread *producers[threadNum];
 111:test/ConsumerProducer_CPP_API_test.cpp ****     thread_data threadData[threadNum + 1];
 112:test/ConsumerProducer_CPP_API_test.cpp **** 
 113:test/ConsumerProducer_CPP_API_test.cpp ****     threadData[threadNum].id = threadNum;
 114:test/ConsumerProducer_CPP_API_test.cpp ****     threadData[threadNum].buffer = buffer;
 115:test/ConsumerProducer_CPP_API_test.cpp ****     threadData[threadNum].sem = waitForAll;
 116:test/ConsumerProducer_CPP_API_test.cpp ****     Thread *consumer = new Consumer(&threadData[threadNum]);
 117:test/ConsumerProducer_CPP_API_test.cpp ****     consumer->start();
 118:test/ConsumerProducer_CPP_API_test.cpp **** 
 119:test/ConsumerProducer_CPP_API_test.cpp ****     threadData[0].id = 0;
 120:test/ConsumerProducer_CPP_API_test.cpp ****     threadData[0].buffer = buffer;
 121:test/ConsumerProducer_CPP_API_test.cpp ****     threadData[0].sem = waitForAll;
 122:test/ConsumerProducer_CPP_API_test.cpp ****     producers[0] = new ProducerKeyborad(&threadData[0]);
 123:test/ConsumerProducer_CPP_API_test.cpp ****     producers[0]->start();
 124:test/ConsumerProducer_CPP_API_test.cpp **** 
 125:test/ConsumerProducer_CPP_API_test.cpp ****     for (int i = 1; i < threadNum; i++) {
 126:test/ConsumerProducer_CPP_API_test.cpp ****         threadData[i].id = i;
 127:test/ConsumerProducer_CPP_API_test.cpp ****         threadData[i].buffer = buffer;
 128:test/ConsumerProducer_CPP_API_test.cpp ****         threadData[i].sem = waitForAll;
 129:test/ConsumerProducer_CPP_API_test.cpp **** 
 130:test/ConsumerProducer_CPP_API_test.cpp ****         producers[i] = new Producer(&threadData[i]);
 131:test/ConsumerProducer_CPP_API_test.cpp ****         producers[i]->start();
 132:test/ConsumerProducer_CPP_API_test.cpp **** 
 133:test/ConsumerProducer_CPP_API_test.cpp ****     }
 134:test/ConsumerProducer_CPP_API_test.cpp **** 
 135:test/ConsumerProducer_CPP_API_test.cpp ****     Thread::dispatch();
 136:test/ConsumerProducer_CPP_API_test.cpp **** 
 137:test/ConsumerProducer_CPP_API_test.cpp ****     for (int i = 0; i <= threadNum; i++) {
 138:test/ConsumerProducer_CPP_API_test.cpp ****         waitForAll->wait();
 139:test/ConsumerProducer_CPP_API_test.cpp ****     }
GAS LISTING /tmp/ccWsGPEJ.s 			page 16


 140:test/ConsumerProducer_CPP_API_test.cpp **** 
 141:test/ConsumerProducer_CPP_API_test.cpp ****     delete waitForAll;
 142:test/ConsumerProducer_CPP_API_test.cpp ****     for (int i = 0; i < threadNum; i++) {
 143:test/ConsumerProducer_CPP_API_test.cpp ****         delete producers[i];
 144:test/ConsumerProducer_CPP_API_test.cpp ****     }
 145:test/ConsumerProducer_CPP_API_test.cpp ****     delete consumer;
 146:test/ConsumerProducer_CPP_API_test.cpp ****     delete buffer;
 609              		.loc 1 146 18 is_stmt 0
 610 0034 130C0100 		mv	s8,sp
  82:test/ConsumerProducer_CPP_API_test.cpp ****     char input[30];
 611              		.loc 1 82 5 is_stmt 1
  83:test/ConsumerProducer_CPP_API_test.cpp **** 
 612              		.loc 1 83 5
  85:test/ConsumerProducer_CPP_API_test.cpp ****     getString(input, 30);
 613              		.loc 1 85 5
  85:test/ConsumerProducer_CPP_API_test.cpp ****     getString(input, 30);
 614              		.loc 1 85 16 is_stmt 0
 615 0038 17050000 		lla	a0,.LC0
 615      13050500 
 616              	.LEHB0:
 617 0040 97000000 		call	_Z11printStringPKc
 617      E7800000 
 618              	.LVL57:
  86:test/ConsumerProducer_CPP_API_test.cpp ****     threadNum = stringToInt(input);
 619              		.loc 1 86 5 is_stmt 1
  86:test/ConsumerProducer_CPP_API_test.cpp ****     threadNum = stringToInt(input);
 620              		.loc 1 86 14 is_stmt 0
 621 0048 9305E001 		li	a1,30
 622 004c 130504F8 		addi	a0,s0,-128
 623 0050 97000000 		call	_Z9getStringPci
 623      E7800000 
 624              	.LVL58:
  87:test/ConsumerProducer_CPP_API_test.cpp **** 
 625              		.loc 1 87 5 is_stmt 1
  87:test/ConsumerProducer_CPP_API_test.cpp **** 
 626              		.loc 1 87 28 is_stmt 0
 627 0058 130504F8 		addi	a0,s0,-128
 628 005c 97000000 		call	_Z11stringToIntPKc
 628      E7800000 
 629              	.LVL59:
 630 0064 93090500 		mv	s3,a0
 631              	.LVL60:
  89:test/ConsumerProducer_CPP_API_test.cpp ****     getString(input, 30);
 632              		.loc 1 89 5 is_stmt 1
  89:test/ConsumerProducer_CPP_API_test.cpp ****     getString(input, 30);
 633              		.loc 1 89 16 is_stmt 0
 634 0068 17050000 		lla	a0,.LC1
 634      13050500 
 635 0070 97000000 		call	_Z11printStringPKc
 635      E7800000 
 636              	.LVL61:
  90:test/ConsumerProducer_CPP_API_test.cpp ****     n = stringToInt(input);
 637              		.loc 1 90 5 is_stmt 1
  90:test/ConsumerProducer_CPP_API_test.cpp ****     n = stringToInt(input);
 638              		.loc 1 90 14 is_stmt 0
 639 0078 9305E001 		li	a1,30
 640 007c 130504F8 		addi	a0,s0,-128
GAS LISTING /tmp/ccWsGPEJ.s 			page 17


 641 0080 97000000 		call	_Z9getStringPci
 641      E7800000 
 642              	.LVL62:
  91:test/ConsumerProducer_CPP_API_test.cpp **** 
 643              		.loc 1 91 5 is_stmt 1
  91:test/ConsumerProducer_CPP_API_test.cpp **** 
 644              		.loc 1 91 20 is_stmt 0
 645 0088 130504F8 		addi	a0,s0,-128
 646 008c 97000000 		call	_Z11stringToIntPKc
 646      E7800000 
 647              	.LVL63:
 648 0094 93040500 		mv	s1,a0
 649              	.LVL64:
  93:test/ConsumerProducer_CPP_API_test.cpp ****     printInt(threadNum);
 650              		.loc 1 93 5 is_stmt 1
  93:test/ConsumerProducer_CPP_API_test.cpp ****     printInt(threadNum);
 651              		.loc 1 93 16 is_stmt 0
 652 0098 17050000 		lla	a0,.LC2
 652      13050500 
 653 00a0 97000000 		call	_Z11printStringPKc
 653      E7800000 
 654              	.LVL65:
  94:test/ConsumerProducer_CPP_API_test.cpp ****     printString(" i velicina bafera ");
 655              		.loc 1 94 5 is_stmt 1
  94:test/ConsumerProducer_CPP_API_test.cpp ****     printString(" i velicina bafera ");
 656              		.loc 1 94 13 is_stmt 0
 657 00a8 13060000 		li	a2,0
 658 00ac 9305A000 		li	a1,10
 659 00b0 13850900 		mv	a0,s3
 660 00b4 97000000 		call	_Z8printIntiii
 660      E7800000 
 661              	.LVL66:
  95:test/ConsumerProducer_CPP_API_test.cpp ****     printInt(n);
 662              		.loc 1 95 5 is_stmt 1
  95:test/ConsumerProducer_CPP_API_test.cpp ****     printInt(n);
 663              		.loc 1 95 16 is_stmt 0
 664 00bc 17050000 		lla	a0,.LC3
 664      13050500 
 665 00c4 97000000 		call	_Z11printStringPKc
 665      E7800000 
 666              	.LVL67:
  96:test/ConsumerProducer_CPP_API_test.cpp ****     printString(".\n");
 667              		.loc 1 96 5 is_stmt 1
  96:test/ConsumerProducer_CPP_API_test.cpp ****     printString(".\n");
 668              		.loc 1 96 13 is_stmt 0
 669 00cc 13060000 		li	a2,0
 670 00d0 9305A000 		li	a1,10
 671 00d4 13850400 		mv	a0,s1
 672 00d8 97000000 		call	_Z8printIntiii
 672      E7800000 
 673              	.LVL68:
  97:test/ConsumerProducer_CPP_API_test.cpp **** 
 674              		.loc 1 97 5 is_stmt 1
  97:test/ConsumerProducer_CPP_API_test.cpp **** 
 675              		.loc 1 97 16 is_stmt 0
 676 00e0 17050000 		lla	a0,.LC4
 676      13050500 
GAS LISTING /tmp/ccWsGPEJ.s 			page 18


 677 00e8 97000000 		call	_Z11printStringPKc
 677      E7800000 
 678              	.LVL69:
  99:test/ConsumerProducer_CPP_API_test.cpp ****         printString("Broj proizvodjaca ne sme biti manji od velicine bafera!\n");
 679              		.loc 1 99 5 is_stmt 1
 680 00f0 63C43403 		bgt	s3,s1,.L55
 102:test/ConsumerProducer_CPP_API_test.cpp ****         printString("Broj proizvodjaca mora biti veci od nula!\n");
 681              		.loc 1 102 12
 682 00f4 635C3003 		blez	s3,.L56
 107:test/ConsumerProducer_CPP_API_test.cpp **** 
 683              		.loc 1 107 5
 107:test/ConsumerProducer_CPP_API_test.cpp **** 
 684              		.loc 1 107 40 is_stmt 0
 685 00f8 13058003 		li	a0,56
 686 00fc 97000000 		call	_Znwm
 686      E7800000 
 687              	.LVL70:
 688              	.LEHE0:
 689 0104 930A0500 		mv	s5,a0
 690 0108 93850400 		mv	a1,s1
 691              	.LEHB1:
 692 010c 97000000 		call	_ZN9BufferCPPC1Ei
 692      E7800000 
 693              	.LVL71:
 694              	.LEHE1:
 695 0114 6F000003 		j	.L57
 696              	.L55:
 100:test/ConsumerProducer_CPP_API_test.cpp ****         return;
 697              		.loc 1 100 9 is_stmt 1
 100:test/ConsumerProducer_CPP_API_test.cpp ****         return;
 698              		.loc 1 100 20 is_stmt 0
 699 0118 17050000 		lla	a0,.LC5
 699      13050500 
 700              	.LEHB2:
 701 0120 97000000 		call	_Z11printStringPKc
 701      E7800000 
 702              	.LVL72:
 101:test/ConsumerProducer_CPP_API_test.cpp ****     } else if (threadNum < 1) {
 703              		.loc 1 101 9 is_stmt 1
 704 0128 6F004001 		j	.L31
 705              	.L56:
 103:test/ConsumerProducer_CPP_API_test.cpp ****         return;
 706              		.loc 1 103 9
 103:test/ConsumerProducer_CPP_API_test.cpp ****         return;
 707              		.loc 1 103 20 is_stmt 0
 708 012c 17050000 		lla	a0,.LC6
 708      13050500 
 709 0134 97000000 		call	_Z11printStringPKc
 709      E7800000 
 710              	.LVL73:
 104:test/ConsumerProducer_CPP_API_test.cpp ****     }
 711              		.loc 1 104 9 is_stmt 1
 712              	.L31:
 713 013c 13010C00 		mv	sp,s8
 714 0140 6F004021 		j	.L29
 715              	.L57:
 716              	.LVL74:
GAS LISTING /tmp/ccWsGPEJ.s 			page 19


 109:test/ConsumerProducer_CPP_API_test.cpp ****     Thread *producers[threadNum];
 717              		.loc 1 109 5 discriminator 3
 109:test/ConsumerProducer_CPP_API_test.cpp ****     Thread *producers[threadNum];
 718              		.loc 1 109 33 is_stmt 0 discriminator 3
 719 0144 13050001 		li	a0,16
 720 0148 97000000 		call	_Znwm
 720      E7800000 
 721              	.LVL75:
 722              	.LEHE2:
 723 0150 13090500 		mv	s2,a0
 724 0154 93050000 		li	a1,0
 725              	.LEHB3:
 726 0158 97000000 		call	_ZN9SemaphoreC1Ej
 726      E7800000 
 727              	.LVL76:
 728              	.LEHE3:
 109:test/ConsumerProducer_CPP_API_test.cpp ****     Thread *producers[threadNum];
 729              		.loc 1 109 16 discriminator 3
 730 0160 97070000 		sd	s2,_ZL10waitForAll,a5
 730      23B02701 
 110:test/ConsumerProducer_CPP_API_test.cpp ****     thread_data threadData[threadNum + 1];
 731              		.loc 1 110 5 is_stmt 1 discriminator 3
 732              	.LVL77:
 110:test/ConsumerProducer_CPP_API_test.cpp ****     thread_data threadData[threadNum + 1];
 733              		.loc 1 110 13 is_stmt 0 discriminator 3
 734 0168 93973900 		slli	a5,s3,3
 735 016c 9387F700 		addi	a5,a5,15
 736 0170 93F707FF 		andi	a5,a5,-16
 737 0174 3301F140 		sub	sp,sp,a5
 738 0178 130A0100 		mv	s4,sp
 739              	.LVL78:
 111:test/ConsumerProducer_CPP_API_test.cpp **** 
 740              		.loc 1 111 5 is_stmt 1 discriminator 3
 111:test/ConsumerProducer_CPP_API_test.cpp **** 
 741              		.loc 1 111 38 is_stmt 0 discriminator 3
 742 017c 1B871900 		addiw	a4,s3,1
 743              	.LVL79:
 111:test/ConsumerProducer_CPP_API_test.cpp **** 
 744              		.loc 1 111 17 discriminator 3
 745 0180 93171700 		slli	a5,a4,1
 746 0184 B387E700 		add	a5,a5,a4
 747 0188 93973700 		slli	a5,a5,3
 748 018c 9387F700 		addi	a5,a5,15
 749 0190 93F707FF 		andi	a5,a5,-16
 750 0194 3301F140 		sub	sp,sp,a5
 751              	.LVL80:
 752 0198 130B0100 		mv	s6,sp
 753              	.LVL81:
 113:test/ConsumerProducer_CPP_API_test.cpp ****     threadData[threadNum].buffer = buffer;
 754              		.loc 1 113 5 is_stmt 1 discriminator 3
 113:test/ConsumerProducer_CPP_API_test.cpp ****     threadData[threadNum].buffer = buffer;
 755              		.loc 1 113 30 is_stmt 0 discriminator 3
 756 019c 93941900 		slli	s1,s3,1
 757              	.LVL82:
 758 01a0 B3843401 		add	s1,s1,s3
 759 01a4 93943400 		slli	s1,s1,3
 760 01a8 B3049B00 		add	s1,s6,s1
GAS LISTING /tmp/ccWsGPEJ.s 			page 20


 761 01ac 23A03401 		sw	s3,0(s1)
 114:test/ConsumerProducer_CPP_API_test.cpp ****     threadData[threadNum].sem = waitForAll;
 762              		.loc 1 114 5 is_stmt 1 discriminator 3
 114:test/ConsumerProducer_CPP_API_test.cpp ****     threadData[threadNum].sem = waitForAll;
 763              		.loc 1 114 34 is_stmt 0 discriminator 3
 764 01b0 23B45401 		sd	s5,8(s1)
 115:test/ConsumerProducer_CPP_API_test.cpp ****     Thread *consumer = new Consumer(&threadData[threadNum]);
 765              		.loc 1 115 5 is_stmt 1 discriminator 3
 115:test/ConsumerProducer_CPP_API_test.cpp ****     Thread *consumer = new Consumer(&threadData[threadNum]);
 766              		.loc 1 115 31 is_stmt 0 discriminator 3
 767 01b4 23B82401 		sd	s2,16(s1)
 116:test/ConsumerProducer_CPP_API_test.cpp ****     consumer->start();
 768              		.loc 1 116 5 is_stmt 1 discriminator 3
 116:test/ConsumerProducer_CPP_API_test.cpp ****     consumer->start();
 769              		.loc 1 116 59 is_stmt 0 discriminator 3
 770 01b8 13058002 		li	a0,40
 771              	.LEHB4:
 772 01bc 97000000 		call	_Znwm
 772      E7800000 
 773              	.LVL83:
 774              	.LEHE4:
 775 01c4 930B0500 		mv	s7,a0
 776              	.LVL84:
 777              	.LEHB5:
 778              	.LBB35:
 779              	.LBB36:
  57:test/ConsumerProducer_CPP_API_test.cpp **** 
 780              		.loc 1 57 50 discriminator 3
 781 01c8 97000000 		call	_ZN6ThreadC2Ev
 781      E7800000 
 782              	.LVL85:
 783              	.LEHE5:
  57:test/ConsumerProducer_CPP_API_test.cpp **** 
 784              		.loc 1 57 50
 785 01d0 97070000 		lla	a5,_ZTV8Consumer+16
 785      93870700 
 786 01d8 23B0FB00 		sd	a5,0(s7)
 787 01dc 23B09B02 		sd	s1,32(s7)
 788              	.LVL86:
 789              	.LBE36:
 790              	.LBE35:
 117:test/ConsumerProducer_CPP_API_test.cpp **** 
 791              		.loc 1 117 5 is_stmt 1
 117:test/ConsumerProducer_CPP_API_test.cpp **** 
 792              		.loc 1 117 20 is_stmt 0
 793 01e0 13850B00 		mv	a0,s7
 794              	.LEHB6:
 795 01e4 97000000 		call	_ZN6Thread5startEv
 795      E7800000 
 796              	.LVL87:
 119:test/ConsumerProducer_CPP_API_test.cpp ****     threadData[0].buffer = buffer;
 797              		.loc 1 119 5 is_stmt 1
 119:test/ConsumerProducer_CPP_API_test.cpp ****     threadData[0].buffer = buffer;
 798              		.loc 1 119 22 is_stmt 0
 799 01ec 23200B00 		sw	zero,0(s6)
 120:test/ConsumerProducer_CPP_API_test.cpp ****     threadData[0].sem = waitForAll;
 800              		.loc 1 120 5 is_stmt 1
GAS LISTING /tmp/ccWsGPEJ.s 			page 21


 120:test/ConsumerProducer_CPP_API_test.cpp ****     threadData[0].sem = waitForAll;
 801              		.loc 1 120 26 is_stmt 0
 802 01f0 23345B01 		sd	s5,8(s6)
 121:test/ConsumerProducer_CPP_API_test.cpp ****     producers[0] = new ProducerKeyborad(&threadData[0]);
 803              		.loc 1 121 5 is_stmt 1
 121:test/ConsumerProducer_CPP_API_test.cpp ****     producers[0] = new ProducerKeyborad(&threadData[0]);
 804              		.loc 1 121 23 is_stmt 0
 805 01f4 97070000 		ld	a5,_ZL10waitForAll
 805      83B70700 
 806 01fc 2338FB00 		sd	a5,16(s6)
 122:test/ConsumerProducer_CPP_API_test.cpp ****     producers[0]->start();
 807              		.loc 1 122 5 is_stmt 1
 122:test/ConsumerProducer_CPP_API_test.cpp ****     producers[0]->start();
 808              		.loc 1 122 55 is_stmt 0
 809 0200 13058002 		li	a0,40
 810 0204 97000000 		call	_Znwm
 810      E7800000 
 811              	.LVL88:
 812              	.LEHE6:
 813 020c 93040500 		mv	s1,a0
 814              	.LVL89:
 815              	.LEHB7:
 816              	.LBB37:
 817              	.LBB38:
  20:test/ConsumerProducer_CPP_API_test.cpp **** 
 818              		.loc 1 20 58
 819 0210 97000000 		call	_ZN6ThreadC2Ev
 819      E7800000 
 820              	.LVL90:
 821              	.LEHE7:
 822 0218 97070000 		lla	a5,_ZTV16ProducerKeyborad+16
 822      93870700 
 823 0220 23B0F400 		sd	a5,0(s1)
 824 0224 23B06403 		sd	s6,32(s1)
 825              	.LVL91:
 826              	.LBE38:
 827              	.LBE37:
 122:test/ConsumerProducer_CPP_API_test.cpp ****     producers[0]->start();
 828              		.loc 1 122 18
 829 0228 23309A00 		sd	s1,0(s4)
 123:test/ConsumerProducer_CPP_API_test.cpp **** 
 830              		.loc 1 123 5 is_stmt 1
 123:test/ConsumerProducer_CPP_API_test.cpp **** 
 831              		.loc 1 123 24 is_stmt 0
 832 022c 13850400 		mv	a0,s1
 833              	.LEHB8:
 834 0230 97000000 		call	_ZN6Thread5startEv
 834      E7800000 
 835              	.LVL92:
 836              	.LBB39:
 125:test/ConsumerProducer_CPP_API_test.cpp ****         threadData[i].id = i;
 837              		.loc 1 125 14
 838 0238 13091000 		li	s2,1
 839 023c 6F000003 		j	.L34
 840              	.LVL93:
 841              	.L58:
 842              	.LBB40:
GAS LISTING /tmp/ccWsGPEJ.s 			page 22


 843              	.LBB41:
  40:test/ConsumerProducer_CPP_API_test.cpp **** 
 844              		.loc 1 40 50
 845 0240 97070000 		lla	a5,_ZTV8Producer+16
 845      93870700 
 846 0248 23B0FC00 		sd	a5,0(s9)
 847 024c 23B09C02 		sd	s1,32(s9)
 848              	.LVL94:
 849              	.LBE41:
 850              	.LBE40:
 130:test/ConsumerProducer_CPP_API_test.cpp ****         producers[i]->start();
 851              		.loc 1 130 22
 852 0250 93173900 		slli	a5,s2,3
 853 0254 B307FA00 		add	a5,s4,a5
 854 0258 23B09701 		sd	s9,0(a5)
 131:test/ConsumerProducer_CPP_API_test.cpp **** 
 855              		.loc 1 131 9 is_stmt 1
 131:test/ConsumerProducer_CPP_API_test.cpp **** 
 856              		.loc 1 131 28 is_stmt 0
 857 025c 13850C00 		mv	a0,s9
 858 0260 97000000 		call	_ZN6Thread5startEv
 858      E7800000 
 859              	.LVL95:
 125:test/ConsumerProducer_CPP_API_test.cpp ****         threadData[i].id = i;
 860              		.loc 1 125 5 is_stmt 1
 861 0268 1B091900 		addiw	s2,s2,1
 862              	.LVL96:
 863              	.L34:
 125:test/ConsumerProducer_CPP_API_test.cpp ****         threadData[i].id = i;
 864              		.loc 1 125 23 discriminator 1
 865 026c 63523905 		bge	s2,s3,.L33
 126:test/ConsumerProducer_CPP_API_test.cpp ****         threadData[i].buffer = buffer;
 866              		.loc 1 126 9
 126:test/ConsumerProducer_CPP_API_test.cpp ****         threadData[i].buffer = buffer;
 867              		.loc 1 126 26 is_stmt 0
 868 0270 93141900 		slli	s1,s2,1
 869 0274 B3842401 		add	s1,s1,s2
 870 0278 93943400 		slli	s1,s1,3
 871 027c B3049B00 		add	s1,s6,s1
 872 0280 23A02401 		sw	s2,0(s1)
 127:test/ConsumerProducer_CPP_API_test.cpp ****         threadData[i].sem = waitForAll;
 873              		.loc 1 127 9 is_stmt 1
 127:test/ConsumerProducer_CPP_API_test.cpp ****         threadData[i].sem = waitForAll;
 874              		.loc 1 127 30 is_stmt 0
 875 0284 23B45401 		sd	s5,8(s1)
 128:test/ConsumerProducer_CPP_API_test.cpp **** 
 876              		.loc 1 128 9 is_stmt 1
 128:test/ConsumerProducer_CPP_API_test.cpp **** 
 877              		.loc 1 128 27 is_stmt 0
 878 0288 97070000 		ld	a5,_ZL10waitForAll
 878      83B70700 
 879 0290 23B8F400 		sd	a5,16(s1)
 130:test/ConsumerProducer_CPP_API_test.cpp ****         producers[i]->start();
 880              		.loc 1 130 9 is_stmt 1
 130:test/ConsumerProducer_CPP_API_test.cpp ****         producers[i]->start();
 881              		.loc 1 130 51 is_stmt 0
 882 0294 13058002 		li	a0,40
GAS LISTING /tmp/ccWsGPEJ.s 			page 23


 883 0298 97000000 		call	_Znwm
 883      E7800000 
 884              	.LVL97:
 885              	.LEHE8:
 886 02a0 930C0500 		mv	s9,a0
 887              	.LVL98:
 888              	.LEHB9:
 889              	.LBB43:
 890              	.LBB42:
  40:test/ConsumerProducer_CPP_API_test.cpp **** 
 891              		.loc 1 40 50
 892 02a4 97000000 		call	_ZN6ThreadC2Ev
 892      E7800000 
 893              	.LVL99:
 894              	.LEHE9:
 895 02ac 6FF05FF9 		j	.L58
 896              	.LVL100:
 897              	.L33:
 898              	.LBE42:
 899              	.LBE43:
 900              	.LBE39:
 135:test/ConsumerProducer_CPP_API_test.cpp **** 
 901              		.loc 1 135 5 is_stmt 1
 902              	.LEHB10:
 135:test/ConsumerProducer_CPP_API_test.cpp **** 
 903              		.loc 1 135 21 is_stmt 0
 904 02b0 97000000 		call	_ZN6Thread8dispatchEv
 904      E7800000 
 905              	.LVL101:
 906              	.LBB44:
 137:test/ConsumerProducer_CPP_API_test.cpp ****         waitForAll->wait();
 907              		.loc 1 137 14
 908 02b8 93040000 		li	s1,0
 909              	.L36:
 910              	.LVL102:
 137:test/ConsumerProducer_CPP_API_test.cpp ****         waitForAll->wait();
 911              		.loc 1 137 23 is_stmt 1 discriminator 1
 912 02bc 63CE9900 		bgt	s1,s3,.L35
 138:test/ConsumerProducer_CPP_API_test.cpp ****     }
 913              		.loc 1 138 9
 138:test/ConsumerProducer_CPP_API_test.cpp ****     }
 914              		.loc 1 138 25 is_stmt 0
 915 02c0 17050000 		ld	a0,_ZL10waitForAll
 915      03350500 
 916 02c8 97000000 		call	_ZN9Semaphore4waitEv
 916      E7800000 
 917              	.LVL103:
 137:test/ConsumerProducer_CPP_API_test.cpp ****         waitForAll->wait();
 918              		.loc 1 137 5 is_stmt 1
 919 02d0 9B841400 		addiw	s1,s1,1
 920              	.LVL104:
 921 02d4 6FF09FFE 		j	.L36
 922              	.LVL105:
 923              	.L35:
 924              	.LBE44:
 141:test/ConsumerProducer_CPP_API_test.cpp ****     for (int i = 0; i < threadNum; i++) {
 925              		.loc 1 141 5
GAS LISTING /tmp/ccWsGPEJ.s 			page 24


 141:test/ConsumerProducer_CPP_API_test.cpp ****     for (int i = 0; i < threadNum; i++) {
 926              		.loc 1 141 12 is_stmt 0
 927 02d8 17050000 		ld	a0,_ZL10waitForAll
 927      03350500 
 141:test/ConsumerProducer_CPP_API_test.cpp ****     for (int i = 0; i < threadNum; i++) {
 928              		.loc 1 141 22
 929 02e0 63080500 		beqz	a0,.L37
 141:test/ConsumerProducer_CPP_API_test.cpp ****     for (int i = 0; i < threadNum; i++) {
 930              		.loc 1 141 12 discriminator 1
 931 02e4 83370500 		ld	a5,0(a0)
 932 02e8 83B78700 		ld	a5,8(a5)
 933 02ec E7800700 		jalr	a5
 934              	.LVL106:
 935              	.L37:
 936              	.LBB45:
 137:test/ConsumerProducer_CPP_API_test.cpp ****         waitForAll->wait();
 937              		.loc 1 137 14 discriminator 1
 938 02f0 93040000 		li	s1,0
 939              	.LVL107:
 940 02f4 6F008000 		j	.L40
 941              	.LVL108:
 942              	.L39:
 943              	.LBE45:
 944              	.LBB46:
 142:test/ConsumerProducer_CPP_API_test.cpp ****         delete producers[i];
 945              		.loc 1 142 5 is_stmt 1 discriminator 2
 946 02f8 9B841400 		addiw	s1,s1,1
 947              	.LVL109:
 948              	.L40:
 142:test/ConsumerProducer_CPP_API_test.cpp ****         delete producers[i];
 949              		.loc 1 142 23 discriminator 1
 950 02fc 63D23403 		bge	s1,s3,.L38
 143:test/ConsumerProducer_CPP_API_test.cpp ****     }
 951              		.loc 1 143 9
 143:test/ConsumerProducer_CPP_API_test.cpp ****     }
 952              		.loc 1 143 27 is_stmt 0
 953 0300 93973400 		slli	a5,s1,3
 954 0304 B307FA00 		add	a5,s4,a5
 955 0308 03B50700 		ld	a0,0(a5)
 143:test/ConsumerProducer_CPP_API_test.cpp ****     }
 956              		.loc 1 143 28
 957 030c E30605FE 		beqz	a0,.L39
 143:test/ConsumerProducer_CPP_API_test.cpp ****     }
 958              		.loc 1 143 27 discriminator 1
 959 0310 83370500 		ld	a5,0(a0)
 960 0314 83B78700 		ld	a5,8(a5)
 961 0318 E7800700 		jalr	a5
 962              	.LVL110:
 963 031c 6FF0DFFD 		j	.L39
 964              	.L38:
 965              	.LBE46:
 145:test/ConsumerProducer_CPP_API_test.cpp ****     delete buffer;
 966              		.loc 1 145 5 is_stmt 1
 145:test/ConsumerProducer_CPP_API_test.cpp ****     delete buffer;
 967              		.loc 1 145 20 is_stmt 0
 968 0320 638A0B00 		beqz	s7,.L41
 145:test/ConsumerProducer_CPP_API_test.cpp ****     delete buffer;
GAS LISTING /tmp/ccWsGPEJ.s 			page 25


 969              		.loc 1 145 12 discriminator 1
 970 0324 83B70B00 		ld	a5,0(s7)
 971 0328 83B78700 		ld	a5,8(a5)
 972 032c 13850B00 		mv	a0,s7
 973 0330 E7800700 		jalr	a5
 974              	.LVL111:
 975              	.L41:
 976              		.loc 1 146 5 is_stmt 1
 977              		.loc 1 146 18 is_stmt 0
 978 0334 638E0A00 		beqz	s5,.L42
 979              		.loc 1 146 12 discriminator 1
 980 0338 13850A00 		mv	a0,s5
 981 033c 97000000 		call	_ZN9BufferCPPD1Ev
 981      E7800000 
 982              	.LVL112:
 983 0344 13850A00 		mv	a0,s5
 984 0348 97000000 		call	_ZdlPv
 984      E7800000 
 985              	.LVL113:
 986              	.LEHE10:
 987              	.L42:
 988 0350 13010C00 		mv	sp,s8
 989              	.LVL114:
 990              	.L29:
 147:test/ConsumerProducer_CPP_API_test.cpp **** }
 991              		.loc 1 147 1
 992 0354 130104F8 		addi	sp,s0,-128
 993              		.cfi_remember_state
 994              		.cfi_def_cfa 2, 128
 995 0358 83308107 		ld	ra,120(sp)
 996              		.cfi_restore 1
 997 035c 03340107 		ld	s0,112(sp)
 998              		.cfi_restore 8
 999 0360 83348106 		ld	s1,104(sp)
 1000              		.cfi_restore 9
 1001 0364 03390106 		ld	s2,96(sp)
 1002              		.cfi_restore 18
 1003 0368 83398105 		ld	s3,88(sp)
 1004              		.cfi_restore 19
 1005              	.LVL115:
 1006 036c 033A0105 		ld	s4,80(sp)
 1007              		.cfi_restore 20
 1008 0370 833A8104 		ld	s5,72(sp)
 1009              		.cfi_restore 21
 1010 0374 033B0104 		ld	s6,64(sp)
 1011              		.cfi_restore 22
 1012 0378 833B8103 		ld	s7,56(sp)
 1013              		.cfi_restore 23
 1014 037c 033C0103 		ld	s8,48(sp)
 1015              		.cfi_restore 24
 1016 0380 833C8102 		ld	s9,40(sp)
 1017              		.cfi_restore 25
 1018 0384 13010108 		addi	sp,sp,128
 1019              		.cfi_def_cfa_offset 0
 1020 0388 67800000 		jr	ra
 1021              	.LVL116:
 1022              	.L49:
GAS LISTING /tmp/ccWsGPEJ.s 			page 26


 1023              		.cfi_restore_state
 1024 038c 93040500 		mv	s1,a0
 1025              	.LVL117:
 107:test/ConsumerProducer_CPP_API_test.cpp **** 
 1026              		.loc 1 107 40
 1027 0390 13850A00 		mv	a0,s5
 1028 0394 97000000 		call	_ZdlPv
 1028      E7800000 
 1029              	.LVL118:
 1030 039c 13850400 		mv	a0,s1
 1031              	.LEHB11:
 1032 03a0 97000000 		call	_Unwind_Resume
 1032      E7800000 
 1033              	.LVL119:
 1034              	.LEHE11:
 1035              	.L50:
 1036 03a8 93040500 		mv	s1,a0
 1037              	.LVL120:
 109:test/ConsumerProducer_CPP_API_test.cpp ****     Thread *producers[threadNum];
 1038              		.loc 1 109 33
 1039 03ac 13050900 		mv	a0,s2
 1040 03b0 97000000 		call	_ZdlPv
 1040      E7800000 
 1041              	.LVL121:
 1042 03b8 13850400 		mv	a0,s1
 1043              	.LEHB12:
 1044 03bc 97000000 		call	_Unwind_Resume
 1044      E7800000 
 1045              	.LVL122:
 1046              	.LEHE12:
 1047              	.L51:
 1048 03c4 93040500 		mv	s1,a0
 1049              	.LVL123:
 116:test/ConsumerProducer_CPP_API_test.cpp ****     consumer->start();
 1050              		.loc 1 116 59
 1051 03c8 13850B00 		mv	a0,s7
 1052 03cc 97000000 		call	_ZdlPv
 1052      E7800000 
 1053              	.LVL124:
 1054 03d4 13850400 		mv	a0,s1
 1055              	.LEHB13:
 1056 03d8 97000000 		call	_Unwind_Resume
 1056      E7800000 
 1057              	.LVL125:
 1058              	.LEHE13:
 1059              	.L52:
 1060 03e0 13090500 		mv	s2,a0
 122:test/ConsumerProducer_CPP_API_test.cpp ****     producers[0]->start();
 1061              		.loc 1 122 55
 1062 03e4 13850400 		mv	a0,s1
 1063 03e8 97000000 		call	_ZdlPv
 1063      E7800000 
 1064              	.LVL126:
 1065 03f0 13050900 		mv	a0,s2
 1066              	.LEHB14:
 1067 03f4 97000000 		call	_Unwind_Resume
 1067      E7800000 
GAS LISTING /tmp/ccWsGPEJ.s 			page 27


 1068              	.LVL127:
 1069              	.LEHE14:
 1070              	.L53:
 1071 03fc 93040500 		mv	s1,a0
 1072              	.LVL128:
 1073              	.LBB47:
 130:test/ConsumerProducer_CPP_API_test.cpp ****         producers[i]->start();
 1074              		.loc 1 130 51
 1075 0400 13850C00 		mv	a0,s9
 1076 0404 97000000 		call	_ZdlPv
 1076      E7800000 
 1077              	.LVL129:
 1078 040c 13850400 		mv	a0,s1
 1079              	.LEHB15:
 1080 0410 97000000 		call	_Unwind_Resume
 1080      E7800000 
 1081              	.LVL130:
 1082              	.LEHE15:
 1083              	.LBE47:
 1084              		.cfi_endproc
 1085              	.LFE14:
 1086              		.globl	__gxx_personality_v0
 1087              		.section	.gcc_except_table,"aw",@progbits
 1088              	.LLSDA14:
 1089 0000 FF       		.byte	0xff
 1090 0001 FF       		.byte	0xff
 1091 0002 03       		.byte	0x3
 1092 0003 D001     		.byte	0xd0,0x1
 1093 0005 00000000 		.4byte	.LEHB0-.LFB14
 1094 0009 00000000 		.4byte	.LEHE0-.LEHB0
 1095 000d 00000000 		.4byte	0
 1096 0011 00       		.byte	0
 1097 0012 00000000 		.4byte	.LEHB1-.LFB14
 1098 0016 00000000 		.4byte	.LEHE1-.LEHB1
 1099 001a 00000000 		.4byte	.L49-.LFB14
 1100 001e 00       		.byte	0
 1101 001f 00000000 		.4byte	.LEHB2-.LFB14
 1102 0023 00000000 		.4byte	.LEHE2-.LEHB2
 1103 0027 00000000 		.4byte	0
 1104 002b 00       		.byte	0
 1105 002c 00000000 		.4byte	.LEHB3-.LFB14
 1106 0030 00000000 		.4byte	.LEHE3-.LEHB3
 1107 0034 00000000 		.4byte	.L50-.LFB14
 1108 0038 00       		.byte	0
 1109 0039 00000000 		.4byte	.LEHB4-.LFB14
 1110 003d 00000000 		.4byte	.LEHE4-.LEHB4
 1111 0041 00000000 		.4byte	0
 1112 0045 00       		.byte	0
 1113 0046 00000000 		.4byte	.LEHB5-.LFB14
 1114 004a 00000000 		.4byte	.LEHE5-.LEHB5
 1115 004e 00000000 		.4byte	.L51-.LFB14
 1116 0052 00       		.byte	0
 1117 0053 00000000 		.4byte	.LEHB6-.LFB14
 1118 0057 00000000 		.4byte	.LEHE6-.LEHB6
 1119 005b 00000000 		.4byte	0
 1120 005f 00       		.byte	0
 1121 0060 00000000 		.4byte	.LEHB7-.LFB14
GAS LISTING /tmp/ccWsGPEJ.s 			page 28


 1122 0064 00000000 		.4byte	.LEHE7-.LEHB7
 1123 0068 00000000 		.4byte	.L52-.LFB14
 1124 006c 00       		.byte	0
 1125 006d 00000000 		.4byte	.LEHB8-.LFB14
 1126 0071 00000000 		.4byte	.LEHE8-.LEHB8
 1127 0075 00000000 		.4byte	0
 1128 0079 00       		.byte	0
 1129 007a 00000000 		.4byte	.LEHB9-.LFB14
 1130 007e 00000000 		.4byte	.LEHE9-.LEHB9
 1131 0082 00000000 		.4byte	.L53-.LFB14
 1132 0086 00       		.byte	0
 1133 0087 00000000 		.4byte	.LEHB10-.LFB14
 1134 008b 00000000 		.4byte	.LEHE10-.LEHB10
 1135 008f 00000000 		.4byte	0
 1136 0093 00       		.byte	0
 1137 0094 00000000 		.4byte	.LEHB11-.LFB14
 1138 0098 00000000 		.4byte	.LEHE11-.LEHB11
 1139 009c 00000000 		.4byte	0
 1140 00a0 00       		.byte	0
 1141 00a1 00000000 		.4byte	.LEHB12-.LFB14
 1142 00a5 00000000 		.4byte	.LEHE12-.LEHB12
 1143 00a9 00000000 		.4byte	0
 1144 00ad 00       		.byte	0
 1145 00ae 00000000 		.4byte	.LEHB13-.LFB14
 1146 00b2 00000000 		.4byte	.LEHE13-.LEHB13
 1147 00b6 00000000 		.4byte	0
 1148 00ba 00       		.byte	0
 1149 00bb 00000000 		.4byte	.LEHB14-.LFB14
 1150 00bf 00000000 		.4byte	.LEHE14-.LEHB14
 1151 00c3 00000000 		.4byte	0
 1152 00c7 00       		.byte	0
 1153 00c8 00000000 		.4byte	.LEHB15-.LFB14
 1154 00cc 00000000 		.4byte	.LEHE15-.LEHB15
 1155 00d0 00000000 		.4byte	0
 1156 00d4 00       		.byte	0
 1157              		.text
 1159              		.weak	_ZTV16ProducerKeyborad
 1160              		.section	.rodata._ZTV16ProducerKeyborad,"aG",@progbits,_ZTV16ProducerKeyborad,comdat
 1161              		.align	3
 1164              	_ZTV16ProducerKeyborad:
 1165 0000 00000000 		.dword	0
 1165      00000000 
 1166 0008 00000000 		.dword	0
 1166      00000000 
 1167 0010 00000000 		.dword	_ZN16ProducerKeyboradD1Ev
 1167      00000000 
 1168 0018 00000000 		.dword	_ZN16ProducerKeyboradD0Ev
 1168      00000000 
 1169 0020 00000000 		.dword	_ZN16ProducerKeyborad3runEv
 1169      00000000 
 1170              		.weak	_ZTV8Producer
 1171              		.section	.rodata._ZTV8Producer,"aG",@progbits,_ZTV8Producer,comdat
 1172              		.align	3
 1175              	_ZTV8Producer:
 1176 0000 00000000 		.dword	0
 1176      00000000 
 1177 0008 00000000 		.dword	0
GAS LISTING /tmp/ccWsGPEJ.s 			page 29


 1177      00000000 
 1178 0010 00000000 		.dword	_ZN8ProducerD1Ev
 1178      00000000 
 1179 0018 00000000 		.dword	_ZN8ProducerD0Ev
 1179      00000000 
 1180 0020 00000000 		.dword	_ZN8Producer3runEv
 1180      00000000 
 1181              		.weak	_ZTV8Consumer
 1182              		.section	.rodata._ZTV8Consumer,"aG",@progbits,_ZTV8Consumer,comdat
 1183              		.align	3
 1186              	_ZTV8Consumer:
 1187 0000 00000000 		.dword	0
 1187      00000000 
 1188 0008 00000000 		.dword	0
 1188      00000000 
 1189 0010 00000000 		.dword	_ZN8ConsumerD1Ev
 1189      00000000 
 1190 0018 00000000 		.dword	_ZN8ConsumerD0Ev
 1190      00000000 
 1191 0020 00000000 		.dword	_ZN8Consumer3runEv
 1191      00000000 
 1192              		.section	.sbss,"aw",@nobits
 1193              		.align	3
 1196              	_ZL9threadEnd:
 1197 0000 00000000 		.zero	4
 1198 0004 00000000 		.zero	4
 1201              	_ZL10waitForAll:
 1202 0008 00000000 		.zero	8
 1202      00000000 
 1203              		.text
 1204              	.Letext0:
 1205              		.file 2 "test/../h/../lib/hw.h"
 1206              		.file 3 "test/../h/syscall_cpp.hpp"
 1207              		.file 4 "test/buffer_CPP_API.hpp"
 1208              		.file 5 "test/../h/syscall_c.hpp"
 1209              		.file 6 "test/printing.hpp"
 4825              		.align	3
 4828              	DW.ref.__gxx_personality_v0:
 4829 0000 00000000 		.dword	__gxx_personality_v0
 4829      00000000 
 4830              		.ident	"GCC: () 9.3.0"
GAS LISTING /tmp/ccWsGPEJ.s 			page 30

