GAS LISTING /tmp/cc1NGXtT.s 			page 1


   1              		.file	"printing.cpp"
   2              		.option nopic
   3              		.option norelax
   4              		.attribute arch, "rv64i2p0_m2p0_a2p0"
   5              		.attribute unaligned_access, 0
   6              		.attribute stack_align, 16
   7              		.text
   8              	.Ltext0:
   9              		.align	2
  10              		.globl	_Z11printStringPKc
  12              	_Z11printStringPKc:
  13              	.LFB0:
  14              		.file 1 "test/printing.cpp"
   1:test/printing.cpp **** //
   2:test/printing.cpp **** // Created by os on 5/18/22.
   3:test/printing.cpp **** //
   4:test/printing.cpp **** 
   5:test/printing.cpp **** #include "printing.hpp"
   6:test/printing.cpp **** 
   7:test/printing.cpp **** uint64 lockPrint = 0;
   8:test/printing.cpp **** 
   9:test/printing.cpp **** #define LOCK() while(copy_and_swap(lockPrint, 0, 1)) thread_dispatch()
  10:test/printing.cpp **** #define UNLOCK() while(copy_and_swap(lockPrint, 1, 0))
  11:test/printing.cpp **** 
  12:test/printing.cpp **** void printString(char const *string)
  13:test/printing.cpp **** {
  15              		.loc 1 13 1
  16              		.cfi_startproc
  17              	.LVL0:
  18 0000 130101FE 		addi	sp,sp,-32
  19              		.cfi_def_cfa_offset 32
  20 0004 233C1100 		sd	ra,24(sp)
  21 0008 23388100 		sd	s0,16(sp)
  22 000c 23349100 		sd	s1,8(sp)
  23              		.cfi_offset 1, -8
  24              		.cfi_offset 8, -16
  25              		.cfi_offset 9, -24
  26 0010 13040102 		addi	s0,sp,32
  27              		.cfi_def_cfa 8, 0
  28 0014 93040500 		mv	s1,a0
  29              	.LVL1:
  30              	.L3:
  14:test/printing.cpp ****     LOCK();
  31              		.loc 1 14 5 discriminator 2
  32              		.loc 1 14 5 discriminator 2
  33 0018 13061000 		li	a2,1
  34 001c 93050000 		li	a1,0
  35 0020 17050000 		lla	a0,lockPrint
  35      13050500 
  36 0028 97000000 		call	copy_and_swap
  36      E7800000 
  37              	.LVL2:
  38 0030 63080500 		beqz	a0,.L2
  39              		.loc 1 14 5 discriminator 1
  40 0034 97000000 		call	_Z15thread_dispatchv
  40      E7800000 
  41              	.LVL3:
GAS LISTING /tmp/cc1NGXtT.s 			page 2


  42 003c 6FF0DFFD 		j	.L3
  43              	.L2:
  15:test/printing.cpp ****     while (*string != '\0')
  44              		.loc 1 15 5
  45              		.loc 1 15 20
  46              		.loc 1 15 12 is_stmt 0
  47 0040 03C50400 		lbu	a0,0(s1)
  48              		.loc 1 15 20
  49 0044 630A0500 		beqz	a0,.L4
  16:test/printing.cpp ****     {
  17:test/printing.cpp ****         putc(*string);
  50              		.loc 1 17 9 is_stmt 1
  51              		.loc 1 17 13 is_stmt 0
  52 0048 97000000 		call	_Z4putcc
  52      E7800000 
  53              	.LVL4:
  18:test/printing.cpp ****         string++;
  54              		.loc 1 18 9 is_stmt 1
  55              		.loc 1 18 15 is_stmt 0
  56 0050 93841400 		addi	s1,s1,1
  57              	.LVL5:
  15:test/printing.cpp ****     while (*string != '\0')
  58              		.loc 1 15 5
  59 0054 6FF0DFFE 		j	.L2
  60              	.L4:
  19:test/printing.cpp ****     }
  20:test/printing.cpp ****     UNLOCK();
  61              		.loc 1 20 5 is_stmt 1
  62              		.loc 1 20 5
  63 0058 13060000 		li	a2,0
  64 005c 93051000 		li	a1,1
  65 0060 17050000 		lla	a0,lockPrint
  65      13050500 
  66 0068 97000000 		call	copy_and_swap
  66      E7800000 
  67              	.LVL6:
  68 0070 E31405FE 		bnez	a0,.L4
  21:test/printing.cpp **** }
  69              		.loc 1 21 1 is_stmt 0
  70 0074 83308101 		ld	ra,24(sp)
  71              		.cfi_restore 1
  72 0078 03340101 		ld	s0,16(sp)
  73              		.cfi_restore 8
  74              		.cfi_def_cfa 2, 32
  75 007c 83348100 		ld	s1,8(sp)
  76              		.cfi_restore 9
  77              	.LVL7:
  78 0080 13010102 		addi	sp,sp,32
  79              		.cfi_def_cfa_offset 0
  80 0084 67800000 		jr	ra
  81              		.cfi_endproc
  82              	.LFE0:
  84              		.align	2
  85              		.globl	_Z9getStringPci
  87              	_Z9getStringPci:
  88              	.LFB1:
  22:test/printing.cpp **** 
GAS LISTING /tmp/cc1NGXtT.s 			page 3


  23:test/printing.cpp **** char* getString(char *buf, int max) {
  89              		.loc 1 23 37 is_stmt 1
  90              		.cfi_startproc
  91              	.LVL8:
  92 0088 130101FD 		addi	sp,sp,-48
  93              		.cfi_def_cfa_offset 48
  94 008c 23341102 		sd	ra,40(sp)
  95 0090 23308102 		sd	s0,32(sp)
  96 0094 233C9100 		sd	s1,24(sp)
  97 0098 23382101 		sd	s2,16(sp)
  98 009c 23343101 		sd	s3,8(sp)
  99 00a0 23304101 		sd	s4,0(sp)
 100              		.cfi_offset 1, -8
 101              		.cfi_offset 8, -16
 102              		.cfi_offset 9, -24
 103              		.cfi_offset 18, -32
 104              		.cfi_offset 19, -40
 105              		.cfi_offset 20, -48
 106 00a4 13040103 		addi	s0,sp,48
 107              		.cfi_def_cfa 8, 0
 108 00a8 93090500 		mv	s3,a0
 109 00ac 138A0500 		mv	s4,a1
 110              	.LVL9:
 111              	.L8:
  24:test/printing.cpp ****     LOCK();
 112              		.loc 1 24 5 discriminator 2
 113              		.loc 1 24 5 discriminator 2
 114 00b0 13061000 		li	a2,1
 115 00b4 93050000 		li	a1,0
 116 00b8 17050000 		lla	a0,lockPrint
 116      13050500 
 117 00c0 97000000 		call	copy_and_swap
 117      E7800000 
 118              	.LVL10:
 119 00c8 63080500 		beqz	a0,.L11
 120              		.loc 1 24 5 discriminator 1
 121 00cc 97000000 		call	_Z15thread_dispatchv
 121      E7800000 
 122              	.LVL11:
 123 00d4 6FF0DFFD 		j	.L8
 124              	.L11:
  25:test/printing.cpp ****     int i, cc;
  26:test/printing.cpp ****     char c;
  27:test/printing.cpp **** 
  28:test/printing.cpp ****     for(i=0; i+1 < max; ){
 125              		.loc 1 28 10 is_stmt 0
 126 00d8 13090000 		li	s2,0
 127              	.L7:
 128              	.LVL12:
 129              		.loc 1 28 18 is_stmt 1 discriminator 1
 130 00dc 93040900 		mv	s1,s2
 131              		.loc 1 28 15 is_stmt 0 discriminator 1
 132 00e0 1B091900 		addiw	s2,s2,1
 133              	.LVL13:
 134              		.loc 1 28 18 discriminator 1
 135 00e4 635A4903 		bge	s2,s4,.L9
  29:test/printing.cpp ****         cc = getc();
GAS LISTING /tmp/cc1NGXtT.s 			page 4


 136              		.loc 1 29 9 is_stmt 1
 137              		.loc 1 29 18 is_stmt 0
 138 00e8 97000000 		call	_Z4getcv
 138      E7800000 
 139              	.LVL14:
  30:test/printing.cpp ****         if(cc < 1)
 140              		.loc 1 30 9 is_stmt 1
 141 00f0 63040502 		beqz	a0,.L9
  31:test/printing.cpp ****             break;
  32:test/printing.cpp ****         c = cc;
 142              		.loc 1 32 9
 143              	.LVL15:
  33:test/printing.cpp ****         buf[i++] = c;
 144              		.loc 1 33 9
 145              		.loc 1 33 16 is_stmt 0
 146 00f4 B3849900 		add	s1,s3,s1
 147              		.loc 1 33 18
 148 00f8 2380A400 		sb	a0,0(s1)
  34:test/printing.cpp ****         if(c == '\n' || c == '\r')
 149              		.loc 1 34 9 is_stmt 1
 150 00fc 9307A000 		li	a5,10
 151 0100 630AF500 		beq	a0,a5,.L12
 152              		.loc 1 34 22 is_stmt 0 discriminator 1
 153 0104 9307D000 		li	a5,13
 154 0108 E31AF5FC 		bne	a0,a5,.L7
  33:test/printing.cpp ****         buf[i++] = c;
 155              		.loc 1 33 14
 156 010c 93040900 		mv	s1,s2
 157 0110 6F008000 		j	.L9
 158              	.L12:
 159 0114 93040900 		mv	s1,s2
 160              	.LVL16:
 161              	.L9:
  35:test/printing.cpp ****             break;
  36:test/printing.cpp ****     }
  37:test/printing.cpp ****     buf[i] = '\0';
 162              		.loc 1 37 5 is_stmt 1
 163              		.loc 1 37 10 is_stmt 0
 164 0118 B3849900 		add	s1,s3,s1
 165              	.LVL17:
 166              		.loc 1 37 12
 167 011c 23800400 		sb	zero,0(s1)
 168              	.L10:
  38:test/printing.cpp **** 
  39:test/printing.cpp ****     UNLOCK();
 169              		.loc 1 39 5 is_stmt 1
 170              		.loc 1 39 5
 171 0120 13060000 		li	a2,0
 172 0124 93051000 		li	a1,1
 173 0128 17050000 		lla	a0,lockPrint
 173      13050500 
 174 0130 97000000 		call	copy_and_swap
 174      E7800000 
 175              	.LVL18:
 176 0138 E31405FE 		bnez	a0,.L10
  40:test/printing.cpp ****     return buf;
 177              		.loc 1 40 5
GAS LISTING /tmp/cc1NGXtT.s 			page 5


  41:test/printing.cpp **** }
 178              		.loc 1 41 1 is_stmt 0
 179 013c 13850900 		mv	a0,s3
 180 0140 83308102 		ld	ra,40(sp)
 181              		.cfi_restore 1
 182 0144 03340102 		ld	s0,32(sp)
 183              		.cfi_restore 8
 184              		.cfi_def_cfa 2, 48
 185 0148 83348101 		ld	s1,24(sp)
 186              		.cfi_restore 9
 187 014c 03390101 		ld	s2,16(sp)
 188              		.cfi_restore 18
 189 0150 83398100 		ld	s3,8(sp)
 190              		.cfi_restore 19
 191              	.LVL19:
 192 0154 033A0100 		ld	s4,0(sp)
 193              		.cfi_restore 20
 194 0158 13010103 		addi	sp,sp,48
 195              		.cfi_def_cfa_offset 0
 196 015c 67800000 		jr	ra
 197              		.cfi_endproc
 198              	.LFE1:
 200              		.align	2
 201              		.globl	_Z11stringToIntPKc
 203              	_Z11stringToIntPKc:
 204              	.LFB2:
  42:test/printing.cpp **** 
  43:test/printing.cpp **** int stringToInt(const char *s) {
 205              		.loc 1 43 32 is_stmt 1
 206              		.cfi_startproc
 207              	.LVL20:
 208 0160 130101FF 		addi	sp,sp,-16
 209              		.cfi_def_cfa_offset 16
 210 0164 23348100 		sd	s0,8(sp)
 211              		.cfi_offset 8, -8
 212 0168 13040101 		addi	s0,sp,16
 213              		.cfi_def_cfa 8, 0
 214 016c 93060500 		mv	a3,a0
  44:test/printing.cpp ****     int n;
 215              		.loc 1 44 5
  45:test/printing.cpp **** 
  46:test/printing.cpp ****     n = 0;
 216              		.loc 1 46 5
 217              	.LVL21:
 218              		.loc 1 46 7 is_stmt 0
 219 0170 13050000 		li	a0,0
 220              	.LVL22:
 221              	.L16:
  47:test/printing.cpp ****     while ('0' <= *s && *s <= '9')
 222              		.loc 1 47 5 is_stmt 1
 223              		.loc 1 47 22
 224              		.loc 1 47 19 is_stmt 0
 225 0174 03C60600 		lbu	a2,0(a3)
 226              		.loc 1 47 22
 227 0178 1B0706FD 		addiw	a4,a2,-48
 228 017c 1377F70F 		andi	a4,a4,0xff
 229 0180 93079000 		li	a5,9
GAS LISTING /tmp/cc1NGXtT.s 			page 6


 230 0184 63E0E702 		bgtu	a4,a5,.L15
  48:test/printing.cpp ****         n = n * 10 + *s++ - '0';
 231              		.loc 1 48 9 is_stmt 1
 232              		.loc 1 48 15 is_stmt 0
 233 0188 9B172500 		slliw	a5,a0,2
 234 018c BB87A700 		addw	a5,a5,a0
 235 0190 9B971700 		slliw	a5,a5,1
 236              		.loc 1 48 24
 237 0194 93861600 		addi	a3,a3,1
 238              	.LVL23:
 239              		.loc 1 48 20
 240 0198 BB87C700 		addw	a5,a5,a2
 241              		.loc 1 48 11
 242 019c 1B8507FD 		addiw	a0,a5,-48
 243              	.LVL24:
  47:test/printing.cpp ****     while ('0' <= *s && *s <= '9')
 244              		.loc 1 47 5
 245 01a0 6FF05FFD 		j	.L16
 246              	.LVL25:
 247              	.L15:
  49:test/printing.cpp ****     return n;
 248              		.loc 1 49 5 is_stmt 1
  50:test/printing.cpp **** }
 249              		.loc 1 50 1 is_stmt 0
 250 01a4 03348100 		ld	s0,8(sp)
 251              		.cfi_restore 8
 252              		.cfi_def_cfa 2, 16
 253 01a8 13010101 		addi	sp,sp,16
 254              		.cfi_def_cfa_offset 0
 255 01ac 67800000 		jr	ra
 256              		.cfi_endproc
 257              	.LFE2:
 259              		.align	2
 260              		.globl	_Z8printIntiii
 262              	_Z8printIntiii:
 263              	.LFB3:
  51:test/printing.cpp **** 
  52:test/printing.cpp **** char digits[] = "0123456789ABCDEF";
  53:test/printing.cpp **** 
  54:test/printing.cpp **** void printInt(int xx, int base, int sgn)
  55:test/printing.cpp **** {
 264              		.loc 1 55 1 is_stmt 1
 265              		.cfi_startproc
 266              	.LVL26:
 267 01b0 130101FC 		addi	sp,sp,-64
 268              		.cfi_def_cfa_offset 64
 269 01b4 233C1102 		sd	ra,56(sp)
 270 01b8 23388102 		sd	s0,48(sp)
 271 01bc 23349102 		sd	s1,40(sp)
 272 01c0 23302103 		sd	s2,32(sp)
 273 01c4 233C3101 		sd	s3,24(sp)
 274              		.cfi_offset 1, -8
 275              		.cfi_offset 8, -16
 276              		.cfi_offset 9, -24
 277              		.cfi_offset 18, -32
 278              		.cfi_offset 19, -40
 279 01c8 13040104 		addi	s0,sp,64
GAS LISTING /tmp/cc1NGXtT.s 			page 7


 280              		.cfi_def_cfa 8, 0
 281 01cc 93040500 		mv	s1,a0
 282 01d0 13890500 		mv	s2,a1
 283 01d4 93090600 		mv	s3,a2
 284              	.LVL27:
 285              	.L20:
  56:test/printing.cpp ****     LOCK();
 286              		.loc 1 56 5
 287              		.loc 1 56 5
 288 01d8 13061000 		li	a2,1
 289 01dc 93050000 		li	a1,0
 290 01e0 17050000 		lla	a0,lockPrint
 290      13050500 
 291 01e8 97000000 		call	copy_and_swap
 291      E7800000 
 292              	.LVL28:
 293 01f0 63080500 		beqz	a0,.L19
 294              		.loc 1 56 5 discriminator 2
 295 01f4 97000000 		call	_Z15thread_dispatchv
 295      E7800000 
 296              	.LVL29:
 297 01fc 6FF0DFFD 		j	.L20
 298              	.L19:
  57:test/printing.cpp ****     char buf[16];
 299              		.loc 1 57 5
  58:test/printing.cpp ****     int i, neg;
 300              		.loc 1 58 5
  59:test/printing.cpp ****     uint x;
 301              		.loc 1 59 5
  60:test/printing.cpp **** 
  61:test/printing.cpp ****     neg = 0;
 302              		.loc 1 61 5
 303              	.LVL30:
  62:test/printing.cpp ****     if(sgn && xx < 0){
 304              		.loc 1 62 5
 305 0200 63840900 		beqz	s3,.L21
 306              		.loc 1 62 12 is_stmt 0 discriminator 1
 307 0204 63C40408 		bltz	s1,.L28
 308              	.L21:
  63:test/printing.cpp ****         neg = 1;
  64:test/printing.cpp ****         x = -xx;
  65:test/printing.cpp ****     } else {
  66:test/printing.cpp ****         x = xx;
 309              		.loc 1 66 9 is_stmt 1
 310              		.loc 1 66 11 is_stmt 0
 311 0208 1B850400 		sext.w	a0,s1
 312              	.LVL31:
  61:test/printing.cpp ****     if(sgn && xx < 0){
 313              		.loc 1 61 9
 314 020c 93050000 		li	a1,0
 315              	.LVL32:
 316              	.L22:
  67:test/printing.cpp ****     }
  68:test/printing.cpp **** 
  69:test/printing.cpp ****     i = 0;
 317              		.loc 1 69 5 is_stmt 1
 318              		.loc 1 69 7 is_stmt 0
GAS LISTING /tmp/cc1NGXtT.s 			page 8


 319 0210 93040000 		li	s1,0
 320              	.LVL33:
 321              	.L23:
  70:test/printing.cpp ****     do{
 322              		.loc 1 70 5 is_stmt 1
  71:test/printing.cpp ****         buf[i++] = digits[x % base];
 323              		.loc 1 71 9
 324              		.loc 1 71 31 is_stmt 0
 325 0214 9B070900 		sext.w	a5,s2
 326              		.loc 1 71 29
 327 0218 3B772503 		remuw	a4,a0,s2
 328 021c 13860400 		mv	a2,s1
 329              		.loc 1 71 14
 330 0220 9B841400 		addiw	s1,s1,1
 331              	.LVL34:
 332              		.loc 1 71 35
 333 0224 93160702 		slli	a3,a4,32
 334 0228 93D60602 		srli	a3,a3,32
 335 022c 17070000 		lla	a4,.LANCHOR0
 335      13070700 
 336 0234 3307D700 		add	a4,a4,a3
 337 0238 83460700 		lbu	a3,0(a4)
 338              		.loc 1 71 18
 339 023c 130704FD 		addi	a4,s0,-48
 340 0240 3307C700 		add	a4,a4,a2
 341 0244 2308D7FE 		sb	a3,-16(a4)
  72:test/printing.cpp ****     }while((x /= base) != 0);
 342              		.loc 1 72 24 is_stmt 1
 343 0248 1B070500 		sext.w	a4,a0
 344              		.loc 1 72 15 is_stmt 0
 345 024c 3B552503 		divuw	a0,a0,s2
 346              	.LVL35:
 347              		.loc 1 72 24
 348 0250 E372F7FC 		bleu	a5,a4,.L23
  73:test/printing.cpp ****     if(neg)
 349              		.loc 1 73 5 is_stmt 1
 350 0254 638C0500 		beqz	a1,.L26
  74:test/printing.cpp ****         buf[i++] = '-';
 351              		.loc 1 74 9
 352              	.LVL36:
 353              		.loc 1 74 18 is_stmt 0
 354 0258 930704FD 		addi	a5,s0,-48
 355 025c B3849700 		add	s1,a5,s1
 356 0260 9307D002 		li	a5,45
 357 0264 2388F4FE 		sb	a5,-16(s1)
 358              		.loc 1 74 14
 359 0268 9B042600 		addiw	s1,a2,2
 360              	.LVL37:
 361              	.L26:
  75:test/printing.cpp **** 
  76:test/printing.cpp ****     while(--i >= 0)
 362              		.loc 1 76 5 is_stmt 1
 363              		.loc 1 76 15
 364 026c 9B84F4FF 		addiw	s1,s1,-1
 365              	.LVL38:
 366 0270 63C40402 		bltz	s1,.L25
  77:test/printing.cpp ****         putc(buf[i]);
GAS LISTING /tmp/cc1NGXtT.s 			page 9


 367              		.loc 1 77 9
 368              		.loc 1 77 13 is_stmt 0
 369 0274 930704FD 		addi	a5,s0,-48
 370 0278 B3879700 		add	a5,a5,s1
 371 027c 03C507FF 		lbu	a0,-16(a5)
 372 0280 97000000 		call	_Z4putcc
 372      E7800000 
 373              	.LVL39:
 374 0288 6FF05FFE 		j	.L26
 375              	.LVL40:
 376              	.L28:
  63:test/printing.cpp ****         x = -xx;
 377              		.loc 1 63 9 is_stmt 1
  64:test/printing.cpp ****     } else {
 378              		.loc 1 64 9
  64:test/printing.cpp ****     } else {
 379              		.loc 1 64 11 is_stmt 0
 380 028c 3B059040 		negw	a0,s1
 381              	.LVL41:
  63:test/printing.cpp ****         x = -xx;
 382              		.loc 1 63 13
 383 0290 93051000 		li	a1,1
  64:test/printing.cpp ****     } else {
 384              		.loc 1 64 11
 385 0294 6FF0DFF7 		j	.L22
 386              	.LVL42:
 387              	.L25:
  78:test/printing.cpp **** 
  79:test/printing.cpp ****     UNLOCK();
 388              		.loc 1 79 5 is_stmt 1
 389              		.loc 1 79 5
 390 0298 13060000 		li	a2,0
 391 029c 93051000 		li	a1,1
 392 02a0 17050000 		lla	a0,lockPrint
 392      13050500 
 393 02a8 97000000 		call	copy_and_swap
 393      E7800000 
 394              	.LVL43:
 395 02b0 E31405FE 		bnez	a0,.L25
  80:test/printing.cpp **** }...
 396              		.loc 1 80 1 is_stmt 0
 397 02b4 83308103 		ld	ra,56(sp)
 398              		.cfi_restore 1
 399 02b8 03340103 		ld	s0,48(sp)
 400              		.cfi_restore 8
 401              		.cfi_def_cfa 2, 64
 402 02bc 83348102 		ld	s1,40(sp)
 403              		.cfi_restore 9
 404 02c0 03390102 		ld	s2,32(sp)
 405              		.cfi_restore 18
 406 02c4 83398101 		ld	s3,24(sp)
 407              		.cfi_restore 19
 408 02c8 13010104 		addi	sp,sp,64
 409              		.cfi_def_cfa_offset 0
 410 02cc 67800000 		jr	ra
 411              		.cfi_endproc
 412              	.LFE3:
GAS LISTING /tmp/cc1NGXtT.s 			page 10


 414              		.globl	digits
 415              		.globl	lockPrint
 416              		.data
 417              		.align	3
 418              		.set	.LANCHOR0,. + 0
 421              	digits:
 422 0000 30313233 		.string	"0123456789ABCDEF"
 422      34353637 
 422      38394142 
 422      43444546 
 422      00
 423              		.section	.sbss,"aw",@nobits
 424              		.align	3
 427              	lockPrint:
 428 0000 00000000 		.zero	8
 428      00000000 
 429              		.text
 430              	.Letext0:
 431              		.file 2 "test/../h/../lib/hw.h"
 432              		.file 3 "test/../h/syscall_c.hpp"
 433              		.file 4 "test/printing.hpp"
GAS LISTING /tmp/cc1NGXtT.s 			page 11


DEFINED SYMBOLS
                            *ABS*:0000000000000000 printing.cpp
     /tmp/cc1NGXtT.s:12     .text:0000000000000000 _Z11printStringPKc
     /tmp/cc1NGXtT.s:16     .text:0000000000000000 .L0 
     /tmp/cc1NGXtT.s:18     .text:0000000000000000 .L0 
     /tmp/cc1NGXtT.s:19     .text:0000000000000004 .L0 
     /tmp/cc1NGXtT.s:23     .text:0000000000000010 .L0 
     /tmp/cc1NGXtT.s:24     .text:0000000000000010 .L0 
     /tmp/cc1NGXtT.s:25     .text:0000000000000010 .L0 
     /tmp/cc1NGXtT.s:27     .text:0000000000000014 .L0 
     /tmp/cc1NGXtT.s:32     .text:0000000000000018 .L0 
     /tmp/cc1NGXtT.s:33     .text:0000000000000018 .L0 
     /tmp/cc1NGXtT.s:427    .sbss:0000000000000000 lockPrint
     /tmp/cc1NGXtT.s:40     .text:0000000000000034 .L0 
     /tmp/cc1NGXtT.s:45     .text:0000000000000040 .L0 
     /tmp/cc1NGXtT.s:46     .text:0000000000000040 .L0 
     /tmp/cc1NGXtT.s:47     .text:0000000000000040 .L0 
     /tmp/cc1NGXtT.s:49     .text:0000000000000044 .L0 
     /tmp/cc1NGXtT.s:51     .text:0000000000000048 .L0 
     /tmp/cc1NGXtT.s:52     .text:0000000000000048 .L0 
     /tmp/cc1NGXtT.s:55     .text:0000000000000050 .L0 
     /tmp/cc1NGXtT.s:56     .text:0000000000000050 .L0 
     /tmp/cc1NGXtT.s:59     .text:0000000000000054 .L0 
     /tmp/cc1NGXtT.s:62     .text:0000000000000058 .L0 
     /tmp/cc1NGXtT.s:63     .text:0000000000000058 .L0 
     /tmp/cc1NGXtT.s:70     .text:0000000000000074 .L0 
     /tmp/cc1NGXtT.s:71     .text:0000000000000078 .L0 
     /tmp/cc1NGXtT.s:73     .text:000000000000007c .L0 
     /tmp/cc1NGXtT.s:74     .text:000000000000007c .L0 
     /tmp/cc1NGXtT.s:76     .text:0000000000000080 .L0 
     /tmp/cc1NGXtT.s:79     .text:0000000000000084 .L0 
     /tmp/cc1NGXtT.s:81     .text:0000000000000088 .L0 
     /tmp/cc1NGXtT.s:87     .text:0000000000000088 _Z9getStringPci
     /tmp/cc1NGXtT.s:90     .text:0000000000000088 .L0 
     /tmp/cc1NGXtT.s:92     .text:0000000000000088 .L0 
     /tmp/cc1NGXtT.s:93     .text:000000000000008c .L0 
     /tmp/cc1NGXtT.s:100    .text:00000000000000a4 .L0 
     /tmp/cc1NGXtT.s:101    .text:00000000000000a4 .L0 
     /tmp/cc1NGXtT.s:102    .text:00000000000000a4 .L0 
     /tmp/cc1NGXtT.s:103    .text:00000000000000a4 .L0 
     /tmp/cc1NGXtT.s:104    .text:00000000000000a4 .L0 
     /tmp/cc1NGXtT.s:105    .text:00000000000000a4 .L0 
     /tmp/cc1NGXtT.s:107    .text:00000000000000a8 .L0 
     /tmp/cc1NGXtT.s:113    .text:00000000000000b0 .L0 
     /tmp/cc1NGXtT.s:114    .text:00000000000000b0 .L0 
     /tmp/cc1NGXtT.s:121    .text:00000000000000cc .L0 
     /tmp/cc1NGXtT.s:126    .text:00000000000000d8 .L0 
     /tmp/cc1NGXtT.s:130    .text:00000000000000dc .L0 
     /tmp/cc1NGXtT.s:132    .text:00000000000000e0 .L0 
     /tmp/cc1NGXtT.s:135    .text:00000000000000e4 .L0 
     /tmp/cc1NGXtT.s:137    .text:00000000000000e8 .L0 
     /tmp/cc1NGXtT.s:138    .text:00000000000000e8 .L0 
     /tmp/cc1NGXtT.s:141    .text:00000000000000f0 .L0 
     /tmp/cc1NGXtT.s:144    .text:00000000000000f4 .L0 
     /tmp/cc1NGXtT.s:145    .text:00000000000000f4 .L0 
     /tmp/cc1NGXtT.s:146    .text:00000000000000f4 .L0 
     /tmp/cc1NGXtT.s:148    .text:00000000000000f8 .L0 
GAS LISTING /tmp/cc1NGXtT.s 			page 12


     /tmp/cc1NGXtT.s:150    .text:00000000000000fc .L0 
     /tmp/cc1NGXtT.s:153    .text:0000000000000104 .L0 
     /tmp/cc1NGXtT.s:156    .text:000000000000010c .L0 
     /tmp/cc1NGXtT.s:163    .text:0000000000000118 .L0 
     /tmp/cc1NGXtT.s:164    .text:0000000000000118 .L0 
     /tmp/cc1NGXtT.s:167    .text:000000000000011c .L0 
     /tmp/cc1NGXtT.s:170    .text:0000000000000120 .L0 
     /tmp/cc1NGXtT.s:171    .text:0000000000000120 .L0 
     /tmp/cc1NGXtT.s:178    .text:000000000000013c .L0 
     /tmp/cc1NGXtT.s:179    .text:000000000000013c .L0 
     /tmp/cc1NGXtT.s:181    .text:0000000000000144 .L0 
     /tmp/cc1NGXtT.s:183    .text:0000000000000148 .L0 
     /tmp/cc1NGXtT.s:184    .text:0000000000000148 .L0 
     /tmp/cc1NGXtT.s:186    .text:000000000000014c .L0 
     /tmp/cc1NGXtT.s:188    .text:0000000000000150 .L0 
     /tmp/cc1NGXtT.s:190    .text:0000000000000154 .L0 
     /tmp/cc1NGXtT.s:193    .text:0000000000000158 .L0 
     /tmp/cc1NGXtT.s:195    .text:000000000000015c .L0 
     /tmp/cc1NGXtT.s:197    .text:0000000000000160 .L0 
     /tmp/cc1NGXtT.s:203    .text:0000000000000160 _Z11stringToIntPKc
     /tmp/cc1NGXtT.s:206    .text:0000000000000160 .L0 
     /tmp/cc1NGXtT.s:208    .text:0000000000000160 .L0 
     /tmp/cc1NGXtT.s:209    .text:0000000000000164 .L0 
     /tmp/cc1NGXtT.s:211    .text:0000000000000168 .L0 
     /tmp/cc1NGXtT.s:213    .text:000000000000016c .L0 
     /tmp/cc1NGXtT.s:216    .text:0000000000000170 .L0 
     /tmp/cc1NGXtT.s:218    .text:0000000000000170 .L0 
     /tmp/cc1NGXtT.s:219    .text:0000000000000170 .L0 
     /tmp/cc1NGXtT.s:223    .text:0000000000000174 .L0 
     /tmp/cc1NGXtT.s:224    .text:0000000000000174 .L0 
     /tmp/cc1NGXtT.s:225    .text:0000000000000174 .L0 
     /tmp/cc1NGXtT.s:227    .text:0000000000000178 .L0 
     /tmp/cc1NGXtT.s:232    .text:0000000000000188 .L0 
     /tmp/cc1NGXtT.s:233    .text:0000000000000188 .L0 
     /tmp/cc1NGXtT.s:237    .text:0000000000000194 .L0 
     /tmp/cc1NGXtT.s:240    .text:0000000000000198 .L0 
     /tmp/cc1NGXtT.s:242    .text:000000000000019c .L0 
     /tmp/cc1NGXtT.s:245    .text:00000000000001a0 .L0 
     /tmp/cc1NGXtT.s:249    .text:00000000000001a4 .L0 
     /tmp/cc1NGXtT.s:250    .text:00000000000001a4 .L0 
     /tmp/cc1NGXtT.s:251    .text:00000000000001a8 .L0 
     /tmp/cc1NGXtT.s:252    .text:00000000000001a8 .L0 
     /tmp/cc1NGXtT.s:254    .text:00000000000001ac .L0 
     /tmp/cc1NGXtT.s:256    .text:00000000000001b0 .L0 
     /tmp/cc1NGXtT.s:262    .text:00000000000001b0 _Z8printIntiii
     /tmp/cc1NGXtT.s:265    .text:00000000000001b0 .L0 
     /tmp/cc1NGXtT.s:267    .text:00000000000001b0 .L0 
     /tmp/cc1NGXtT.s:268    .text:00000000000001b4 .L0 
     /tmp/cc1NGXtT.s:274    .text:00000000000001c8 .L0 
     /tmp/cc1NGXtT.s:275    .text:00000000000001c8 .L0 
     /tmp/cc1NGXtT.s:276    .text:00000000000001c8 .L0 
     /tmp/cc1NGXtT.s:277    .text:00000000000001c8 .L0 
     /tmp/cc1NGXtT.s:278    .text:00000000000001c8 .L0 
     /tmp/cc1NGXtT.s:280    .text:00000000000001cc .L0 
     /tmp/cc1NGXtT.s:287    .text:00000000000001d8 .L0 
     /tmp/cc1NGXtT.s:288    .text:00000000000001d8 .L0 
     /tmp/cc1NGXtT.s:295    .text:00000000000001f4 .L0 
GAS LISTING /tmp/cc1NGXtT.s 			page 13


     /tmp/cc1NGXtT.s:300    .text:0000000000000200 .L0 
     /tmp/cc1NGXtT.s:301    .text:0000000000000200 .L0 
     /tmp/cc1NGXtT.s:302    .text:0000000000000200 .L0 
     /tmp/cc1NGXtT.s:304    .text:0000000000000200 .L0 
     /tmp/cc1NGXtT.s:305    .text:0000000000000200 .L0 
     /tmp/cc1NGXtT.s:307    .text:0000000000000204 .L0 
     /tmp/cc1NGXtT.s:310    .text:0000000000000208 .L0 
     /tmp/cc1NGXtT.s:311    .text:0000000000000208 .L0 
     /tmp/cc1NGXtT.s:314    .text:000000000000020c .L0 
     /tmp/cc1NGXtT.s:318    .text:0000000000000210 .L0 
     /tmp/cc1NGXtT.s:319    .text:0000000000000210 .L0 
     /tmp/cc1NGXtT.s:323    .text:0000000000000214 .L0 
     /tmp/cc1NGXtT.s:324    .text:0000000000000214 .L0 
     /tmp/cc1NGXtT.s:325    .text:0000000000000214 .L0 
     /tmp/cc1NGXtT.s:327    .text:0000000000000218 .L0 
     /tmp/cc1NGXtT.s:330    .text:0000000000000220 .L0 
     /tmp/cc1NGXtT.s:333    .text:0000000000000224 .L0 
     /tmp/cc1NGXtT.s:339    .text:000000000000023c .L0 
     /tmp/cc1NGXtT.s:343    .text:0000000000000248 .L0 
     /tmp/cc1NGXtT.s:345    .text:000000000000024c .L0 
     /tmp/cc1NGXtT.s:348    .text:0000000000000250 .L0 
     /tmp/cc1NGXtT.s:350    .text:0000000000000254 .L0 
     /tmp/cc1NGXtT.s:353    .text:0000000000000258 .L0 
     /tmp/cc1NGXtT.s:354    .text:0000000000000258 .L0 
     /tmp/cc1NGXtT.s:359    .text:0000000000000268 .L0 
     /tmp/cc1NGXtT.s:363    .text:000000000000026c .L0 
     /tmp/cc1NGXtT.s:364    .text:000000000000026c .L0 
     /tmp/cc1NGXtT.s:368    .text:0000000000000274 .L0 
     /tmp/cc1NGXtT.s:369    .text:0000000000000274 .L0 
     /tmp/cc1NGXtT.s:378    .text:000000000000028c .L0 
     /tmp/cc1NGXtT.s:379    .text:000000000000028c .L0 
     /tmp/cc1NGXtT.s:380    .text:000000000000028c .L0 
     /tmp/cc1NGXtT.s:383    .text:0000000000000290 .L0 
     /tmp/cc1NGXtT.s:385    .text:0000000000000294 .L0 
     /tmp/cc1NGXtT.s:389    .text:0000000000000298 .L0 
     /tmp/cc1NGXtT.s:390    .text:0000000000000298 .L0 
     /tmp/cc1NGXtT.s:397    .text:00000000000002b4 .L0 
     /tmp/cc1NGXtT.s:398    .text:00000000000002b8 .L0 
     /tmp/cc1NGXtT.s:400    .text:00000000000002bc .L0 
     /tmp/cc1NGXtT.s:401    .text:00000000000002bc .L0 
     /tmp/cc1NGXtT.s:403    .text:00000000000002c0 .L0 
     /tmp/cc1NGXtT.s:405    .text:00000000000002c4 .L0 
     /tmp/cc1NGXtT.s:407    .text:00000000000002c8 .L0 
     /tmp/cc1NGXtT.s:409    .text:00000000000002cc .L0 
     /tmp/cc1NGXtT.s:411    .text:00000000000002d0 .L0 
     /tmp/cc1NGXtT.s:421    .data:0000000000000000 digits
     /tmp/cc1NGXtT.s:418    .data:0000000000000000 .LANCHOR0
     /tmp/cc1NGXtT.s:434    .text:00000000000002d0 .L0 
     /tmp/cc1NGXtT.s:35     .text:0000000000000020 .L0 
     /tmp/cc1NGXtT.s:65     .text:0000000000000060 .L0 
     /tmp/cc1NGXtT.s:116    .text:00000000000000b8 .L0 
     /tmp/cc1NGXtT.s:173    .text:0000000000000128 .L0 
     /tmp/cc1NGXtT.s:290    .text:00000000000001e0 .L0 
     /tmp/cc1NGXtT.s:335    .text:000000000000022c .L0 
     /tmp/cc1NGXtT.s:392    .text:00000000000002a0 .L0 
     /tmp/cc1NGXtT.s:43     .text:0000000000000040 .L2
     /tmp/cc1NGXtT.s:30     .text:0000000000000018 .L3
GAS LISTING /tmp/cc1NGXtT.s 			page 14


     /tmp/cc1NGXtT.s:60     .text:0000000000000058 .L4
     /tmp/cc1NGXtT.s:124    .text:00000000000000d8 .L11
     /tmp/cc1NGXtT.s:111    .text:00000000000000b0 .L8
     /tmp/cc1NGXtT.s:161    .text:0000000000000118 .L9
     /tmp/cc1NGXtT.s:158    .text:0000000000000114 .L12
     /tmp/cc1NGXtT.s:127    .text:00000000000000dc .L7
     /tmp/cc1NGXtT.s:168    .text:0000000000000120 .L10
     /tmp/cc1NGXtT.s:247    .text:00000000000001a4 .L15
     /tmp/cc1NGXtT.s:221    .text:0000000000000174 .L16
     /tmp/cc1NGXtT.s:298    .text:0000000000000200 .L19
     /tmp/cc1NGXtT.s:285    .text:00000000000001d8 .L20
     /tmp/cc1NGXtT.s:308    .text:0000000000000208 .L21
     /tmp/cc1NGXtT.s:376    .text:000000000000028c .L28
     /tmp/cc1NGXtT.s:321    .text:0000000000000214 .L23
     /tmp/cc1NGXtT.s:361    .text:000000000000026c .L26
     /tmp/cc1NGXtT.s:387    .text:0000000000000298 .L25
     /tmp/cc1NGXtT.s:316    .text:0000000000000210 .L22
     /tmp/cc1NGXtT.s:959    .debug_abbrev:0000000000000000 .Ldebug_abbrev0
     /tmp/cc1NGXtT.s:1562   .debug_str:000000000000002a .LASF38
     /tmp/cc1NGXtT.s:1630   .debug_str:00000000000002a7 .LASF39
     /tmp/cc1NGXtT.s:1612   .debug_str:0000000000000213 .LASF40
     /tmp/cc1NGXtT.s:8      .text:0000000000000000 .Ltext0
     /tmp/cc1NGXtT.s:430    .text:00000000000002d0 .Letext0
     /tmp/cc1NGXtT.s:1554   .debug_line:0000000000000000 .Ldebug_line0
     /tmp/cc1NGXtT.s:1606   .debug_str:00000000000001fc .LASF0
     /tmp/cc1NGXtT.s:1602   .debug_str:00000000000001f2 .LASF3
     /tmp/cc1NGXtT.s:1594   .debug_str:00000000000001b7 .LASF1
     /tmp/cc1NGXtT.s:1586   .debug_str:0000000000000188 .LASF2
     /tmp/cc1NGXtT.s:1566   .debug_str:00000000000000fc .LASF4
     /tmp/cc1NGXtT.s:1592   .debug_str:00000000000001a5 .LASF5
     /tmp/cc1NGXtT.s:1558   .debug_str:0000000000000013 .LASF6
     /tmp/cc1NGXtT.s:1556   .debug_str:0000000000000000 .LASF7
     /tmp/cc1NGXtT.s:1580   .debug_str:000000000000015c .LASF8
     /tmp/cc1NGXtT.s:1560   .debug_str:000000000000001a .LASF9
     /tmp/cc1NGXtT.s:1564   .debug_str:00000000000000ee .LASF10
     /tmp/cc1NGXtT.s:1636   .debug_str:00000000000002ce .LASF11
     /tmp/cc1NGXtT.s:1582   .debug_str:000000000000016f .LASF12
     /tmp/cc1NGXtT.s:1628   .debug_str:0000000000000297 .LASF13
     /tmp/cc1NGXtT.s:1616   .debug_str:0000000000000242 .LASF14
     /tmp/cc1NGXtT.s:1598   .debug_str:00000000000001d3 .LASF15
     /tmp/cc1NGXtT.s:1572   .debug_str:000000000000011c .LASF16
     /tmp/cc1NGXtT.s:1614   .debug_str:000000000000022c .LASF17
     /tmp/cc1NGXtT.s:1584   .debug_str:000000000000017e .LASF18
     /tmp/cc1NGXtT.s:1610   .debug_str:000000000000020e .LASF19
     /tmp/cc1NGXtT.s:1624   .debug_str:000000000000027d .LASF20
     /tmp/cc1NGXtT.s:1570   .debug_str:0000000000000113 .LASF26
     /tmp/cc1NGXtT.s:1622   .debug_str:000000000000026e .LASF28
     /tmp/cc1NGXtT.s:263    .text:00000000000001b0 .LFB3
     /tmp/cc1NGXtT.s:412    .text:00000000000002d0 .LFE3
     /tmp/cc1NGXtT.s:1328   .debug_loc:0000000000000000 .LLST8
     /tmp/cc1NGXtT.s:1604   .debug_str:00000000000001f7 .LASF21
     /tmp/cc1NGXtT.s:1342   .debug_loc:0000000000000039 .LLST9
     /tmp/cc1NGXtT.s:1356   .debug_loc:0000000000000072 .LLST10
     /tmp/cc1NGXtT.s:1370   .debug_loc:00000000000000ab .LLST11
     /tmp/cc1NGXtT.s:1392   .debug_loc:000000000000010a .LLST12
     /tmp/cc1NGXtT.s:1409   .debug_loc:0000000000000155 .LLST13
     /tmp/cc1NGXtT.s:292    .text:00000000000001f0 .LVL28
GAS LISTING /tmp/cc1NGXtT.s 			page 15


     /tmp/cc1NGXtT.s:296    .text:00000000000001fc .LVL29
     /tmp/cc1NGXtT.s:373    .text:0000000000000288 .LVL39
     /tmp/cc1NGXtT.s:394    .text:00000000000002b0 .LVL43
     /tmp/cc1NGXtT.s:1618   .debug_str:0000000000000252 .LASF22
     /tmp/cc1NGXtT.s:1626   .debug_str:0000000000000284 .LASF24
     /tmp/cc1NGXtT.s:204    .text:0000000000000160 .LFB2
     /tmp/cc1NGXtT.s:257    .text:00000000000001b0 .LFE2
     /tmp/cc1NGXtT.s:1438   .debug_loc:00000000000001ac .LLST6
     /tmp/cc1NGXtT.s:1449   .debug_loc:00000000000001e2 .LLST7
     /tmp/cc1NGXtT.s:1590   .debug_str:000000000000019b .LASF23
     /tmp/cc1NGXtT.s:1568   .debug_str:0000000000000103 .LASF25
     /tmp/cc1NGXtT.s:88     .text:0000000000000088 .LFB1
     /tmp/cc1NGXtT.s:198    .text:0000000000000160 .LFE1
     /tmp/cc1NGXtT.s:1471   .debug_loc:0000000000000241 .LLST1
     /tmp/cc1NGXtT.s:1486   .debug_loc:000000000000028a .LLST2
     /tmp/cc1NGXtT.s:1500   .debug_loc:00000000000002c3 .LLST3
     /tmp/cc1NGXtT.s:1511   .debug_loc:00000000000002f9 .LLST4
     /tmp/cc1NGXtT.s:1523   .debug_loc:0000000000000321 .LLST5
     /tmp/cc1NGXtT.s:118    .text:00000000000000c8 .LVL10
     /tmp/cc1NGXtT.s:122    .text:00000000000000d4 .LVL11
     /tmp/cc1NGXtT.s:139    .text:00000000000000f0 .LVL14
     /tmp/cc1NGXtT.s:175    .text:0000000000000138 .LVL18
     /tmp/cc1NGXtT.s:1634   .debug_str:00000000000002c2 .LASF27
     /tmp/cc1NGXtT.s:1600   .debug_str:00000000000001df .LASF29
     /tmp/cc1NGXtT.s:13     .text:0000000000000000 .LFB0
     /tmp/cc1NGXtT.s:82     .text:0000000000000088 .LFE0
     /tmp/cc1NGXtT.s:1576   .debug_str:0000000000000140 .LASF30
     /tmp/cc1NGXtT.s:1530   .debug_loc:0000000000000344 .LLST0
     /tmp/cc1NGXtT.s:37     .text:0000000000000030 .LVL2
     /tmp/cc1NGXtT.s:41     .text:000000000000003c .LVL3
     /tmp/cc1NGXtT.s:53     .text:0000000000000050 .LVL4
     /tmp/cc1NGXtT.s:67     .text:0000000000000070 .LVL6
     /tmp/cc1NGXtT.s:1574   .debug_str:0000000000000132 .LASF31
     /tmp/cc1NGXtT.s:1578   .debug_str:0000000000000147 .LASF32
     /tmp/cc1NGXtT.s:1620   .debug_str:000000000000025e .LASF33
     /tmp/cc1NGXtT.s:1596   .debug_str:00000000000001ca .LASF34
     /tmp/cc1NGXtT.s:1608   .debug_str:0000000000000209 .LASF35
     /tmp/cc1NGXtT.s:1632   .debug_str:00000000000002b9 .LASF36
     /tmp/cc1NGXtT.s:1588   .debug_str:0000000000000196 .LASF37
     /tmp/cc1NGXtT.s:266    .text:00000000000001b0 .LVL26
     /tmp/cc1NGXtT.s:284    .text:00000000000001d8 .LVL27
     /tmp/cc1NGXtT.s:315    .text:0000000000000210 .LVL32
     /tmp/cc1NGXtT.s:320    .text:0000000000000214 .LVL33
     /tmp/cc1NGXtT.s:331    .text:0000000000000224 .LVL34
     /tmp/cc1NGXtT.s:352    .text:0000000000000258 .LVL36
     /tmp/cc1NGXtT.s:360    .text:000000000000026c .LVL37
     /tmp/cc1NGXtT.s:365    .text:0000000000000270 .LVL38
     /tmp/cc1NGXtT.s:303    .text:0000000000000200 .LVL30
     /tmp/cc1NGXtT.s:375    .text:000000000000028c .LVL40
     /tmp/cc1NGXtT.s:386    .text:0000000000000298 .LVL42
     /tmp/cc1NGXtT.s:312    .text:000000000000020c .LVL31
     /tmp/cc1NGXtT.s:346    .text:0000000000000250 .LVL35
     /tmp/cc1NGXtT.s:381    .text:0000000000000290 .LVL41
     /tmp/cc1NGXtT.s:207    .text:0000000000000160 .LVL20
     /tmp/cc1NGXtT.s:220    .text:0000000000000174 .LVL22
     /tmp/cc1NGXtT.s:217    .text:0000000000000170 .LVL21
     /tmp/cc1NGXtT.s:243    .text:00000000000001a0 .LVL24
GAS LISTING /tmp/cc1NGXtT.s 			page 16


     /tmp/cc1NGXtT.s:246    .text:00000000000001a4 .LVL25
     /tmp/cc1NGXtT.s:91     .text:0000000000000088 .LVL8
     /tmp/cc1NGXtT.s:110    .text:00000000000000b0 .LVL9
     /tmp/cc1NGXtT.s:191    .text:0000000000000154 .LVL19
     /tmp/cc1NGXtT.s:128    .text:00000000000000dc .LVL12
     /tmp/cc1NGXtT.s:133    .text:00000000000000e4 .LVL13
     /tmp/cc1NGXtT.s:160    .text:0000000000000118 .LVL16
     /tmp/cc1NGXtT.s:165    .text:000000000000011c .LVL17
     /tmp/cc1NGXtT.s:143    .text:00000000000000f4 .LVL15
     /tmp/cc1NGXtT.s:17     .text:0000000000000000 .LVL0
     /tmp/cc1NGXtT.s:29     .text:0000000000000018 .LVL1
     /tmp/cc1NGXtT.s:77     .text:0000000000000080 .LVL7
     /tmp/cc1NGXtT.s:435    .debug_info:0000000000000000 .Ldebug_info0

UNDEFINED SYMBOLS
copy_and_swap
_Z15thread_dispatchv
_Z4putcc
_Z4getcv
