GAS LISTING /tmp/ccMaDkgu.s 			page 1


   1              		.file	"userMain.cpp"
   2              		.option nopic
   3              		.option norelax
   4              		.attribute arch, "rv64i2p0_m2p0_a2p0"
   5              		.attribute unaligned_access, 0
   6              		.attribute stack_align, 16
   7              		.text
   8              	.Ltext0:
   9              		.section	.rodata.str1.8,"aMS",@progbits,1
  10              		.align	3
  11              	.LC0:
  12 0000 556E6573 		.string	"Unesite broj testa? [1-7]\n"
  12      69746520 
  12      62726F6A 
  12      20746573 
  12      74613F20 
  13 001b 00000000 		.align	3
  13      00
  14              	.LC1:
  15 0020 54455354 		.string	"TEST 1 (zadatak 2, niti C API i sinhrona promena konteksta)\n"
  15      20312028 
  15      7A616461 
  15      74616B20 
  15      322C206E 
  16 005d 000000   		.align	3
  17              	.LC2:
  18 0060 54455354 		.string	"TEST 2 (zadatak 2., niti CPP API i sinhrona promena konteksta)\n"
  18      20322028 
  18      7A616461 
  18      74616B20 
  18      322E2C20 
  19              		.align	3
  20              	.LC3:
  21 00a0 54455354 		.string	"TEST 3 (zadatak 3., kompletan C API sa semaforima, sinhrona promena konteksta)\n"
  21      20332028 
  21      7A616461 
  21      74616B20 
  21      332E2C20 
  22              		.align	3
  23              	.LC4:
  24 00f0 54455354 		.string	"TEST 4 (zadatak 3., kompletan CPP API sa semaforima, sinhrona promena konteksta)\n"
  24      20342028 
  24      7A616461 
  24      74616B20 
  24      332E2C20 
  25 0142 00000000 		.align	3
  25      0000
  26              	.LC5:
  27 0148 54455354 		.string	"TEST 5 (zadatak 4., thread_sleep test C API)\n"
  27      20352028 
  27      7A616461 
  27      74616B20 
  27      342E2C20 
  28 0176 0000     		.align	3
  29              	.LC6:
  30 0178 54455354 		.string	"TEST 6 (zadatak 4. CPP API i asinhrona promena konteksta)\n"
  30      20362028 
GAS LISTING /tmp/ccMaDkgu.s 			page 2


  30      7A616461 
  30      74616B20 
  30      342E2043 
  31 01b3 00000000 		.align	3
  31      00
  32              	.LC7:
  33 01b8 54657374 		.string	"Test se nije uspesno zavrsio\n"
  33      20736520 
  33      6E696A65 
  33      20757370 
  33      65736E6F 
  34 01d6 0000     		.align	3
  35              	.LC8:
  36 01d8 54455354 		.string	"TEST 7 (zadatak 2., testiranje da li se korisnicki kod izvrsava u korisnickom rezimu)\n"
  36      20372028 
  36      7A616461 
  36      74616B20 
  36      322E2C20 
  37 022f 00       		.align	3
  38              	.LC9:
  39 0230 4E697374 		.string	"Niste uneli odgovarajuci broj za test\n"
  39      6520756E 
  39      656C6920 
  39      6F64676F 
  39      76617261 
  40              		.text
  41              		.align	2
  42              		.globl	_Z8userMainv
  44              	_Z8userMainv:
  45              	.LFB0:
  46              		.file 1 "test/userMain.cpp"
   1:test/userMain.cpp **** #include "printing.hpp"
   2:test/userMain.cpp **** 
   3:test/userMain.cpp **** #define LEVEL_1_IMPLEMENTED 1
   4:test/userMain.cpp **** #define LEVEL_2_IMPLEMENTED 1
   5:test/userMain.cpp **** #define LEVEL_3_IMPLEMENTED 1
   6:test/userMain.cpp **** #define LEVEL_4_IMPLEMENTED 1
   7:test/userMain.cpp **** 
   8:test/userMain.cpp **** #if LEVEL_2_IMPLEMENTED == 1
   9:test/userMain.cpp **** // TEST 1 (zadatak 2, niti C API i sinhrona promena konteksta)
  10:test/userMain.cpp **** #include "../test/Threads_C_API_test.hpp"
  11:test/userMain.cpp **** // TEST 2 (zadatak 2., niti CPP API i sinhrona promena konteksta)
  12:test/userMain.cpp **** #include "../test/Threads_CPP_API_test.hpp"
  13:test/userMain.cpp **** // TEST 7 (zadatak 2., testiranje da li se korisnicki kod izvrsava u korisnickom rezimu)
  14:test/userMain.cpp **** #include "../test/System_Mode_test.hpp"
  15:test/userMain.cpp **** #endif
  16:test/userMain.cpp **** 
  17:test/userMain.cpp **** #if LEVEL_3_IMPLEMENTED == 1
  18:test/userMain.cpp **** // TEST 3 (zadatak 3., kompletan C API sa semaforima, sinhrona promena konteksta)
  19:test/userMain.cpp **** #include "../test/ConsumerProducer_C_API_test.hpp"
  20:test/userMain.cpp **** // TEST 4 (zadatak 3., kompletan CPP API sa semaforima, sinhrona promena konteksta)
  21:test/userMain.cpp **** #include "../test/ConsumerProducer_CPP_Sync_API_test.hpp"
  22:test/userMain.cpp **** #endif
  23:test/userMain.cpp **** 
  24:test/userMain.cpp **** #if LEVEL_4_IMPLEMENTED == 1
  25:test/userMain.cpp **** // TEST 5 (zadatak 4., thread_sleep test C API)
  26:test/userMain.cpp **** #include "../test/ThreadSleep_C_API_test.hpp"
GAS LISTING /tmp/ccMaDkgu.s 			page 3


  27:test/userMain.cpp **** // TEST 6 (zadatak 4. CPP API i asinhrona promena konteksta)
  28:test/userMain.cpp **** #include "../test/ConsumerProducer_CPP_API_test.hpp"
  29:test/userMain.cpp **** #include "System_Mode_test.hpp"
  30:test/userMain.cpp **** 
  31:test/userMain.cpp **** #endif
  32:test/userMain.cpp **** 
  33:test/userMain.cpp **** void userMain() {
  47              		.loc 1 33 17
  48              		.cfi_startproc
  49 0000 130101FE 		addi	sp,sp,-32
  50              		.cfi_def_cfa_offset 32
  51 0004 233C1100 		sd	ra,24(sp)
  52 0008 23388100 		sd	s0,16(sp)
  53 000c 23349100 		sd	s1,8(sp)
  54              		.cfi_offset 1, -8
  55              		.cfi_offset 8, -16
  56              		.cfi_offset 9, -24
  57 0010 13040102 		addi	s0,sp,32
  58              		.cfi_def_cfa 8, 0
  34:test/userMain.cpp ****     printString("Unesite broj testa? [1-7]\n");
  59              		.loc 1 34 5
  60              		.loc 1 34 16 is_stmt 0
  61 0014 17050000 		lla	a0,.LC0
  61      13050500 
  62 001c 97000000 		call	_Z11printStringPKc
  62      E7800000 
  63              	.LVL0:
  35:test/userMain.cpp ****     int test = getc() - '0';
  64              		.loc 1 35 5 is_stmt 1
  65              		.loc 1 35 20 is_stmt 0
  66 0024 97000000 		call	_Z4getcv
  66      E7800000 
  67              	.LVL1:
  68              		.loc 1 35 25
  69 002c 9B0405FD 		addiw	s1,a0,-48
  70              	.LVL2:
  36:test/userMain.cpp ****     getc(); // Enter posle broja
  71              		.loc 1 36 5 is_stmt 1
  72              		.loc 1 36 9 is_stmt 0
  73 0030 97000000 		call	_Z4getcv
  73      E7800000 
  74              	.LVL3:
  37:test/userMain.cpp **** 
  38:test/userMain.cpp ****     if ((test >= 1 && test <= 2) || test == 7) {
  75              		.loc 1 38 5 is_stmt 1
  39:test/userMain.cpp ****         if (LEVEL_2_IMPLEMENTED == 0) {
  40:test/userMain.cpp ****             printString("Nije navedeno da je zadatak 2 implementiran\n");
  41:test/userMain.cpp ****             return;
  42:test/userMain.cpp ****         }
  43:test/userMain.cpp ****     }
  44:test/userMain.cpp **** 
  45:test/userMain.cpp ****     if (test >= 3 && test <= 4) {
  76              		.loc 1 45 5
  46:test/userMain.cpp ****         if (LEVEL_3_IMPLEMENTED == 0) {
  47:test/userMain.cpp ****             printString("Nije navedeno da je zadatak 3 implementiran\n");
  48:test/userMain.cpp ****             return;
  49:test/userMain.cpp ****         }
GAS LISTING /tmp/ccMaDkgu.s 			page 4


  50:test/userMain.cpp ****     }
  51:test/userMain.cpp **** 
  52:test/userMain.cpp ****     if (test >= 5 && test <= 6) {
  77              		.loc 1 52 5
  53:test/userMain.cpp ****         if (LEVEL_4_IMPLEMENTED == 0) {
  54:test/userMain.cpp ****             printString("Nije navedeno da je zadatak 4 implementiran\n");
  55:test/userMain.cpp ****             return;
  56:test/userMain.cpp ****         }
  57:test/userMain.cpp ****     }
  58:test/userMain.cpp **** 
  59:test/userMain.cpp ****     switch (test) {
  78              		.loc 1 59 5
  79 0038 93077000 		li	a5,7
  80 003c 63E29710 		bgtu	s1,a5,.L2
  81 0040 93942400 		slli	s1,s1,2
  82 0044 17070000 		lla	a4,.L4
  82      13070700 
  83 004c B384E400 		add	s1,s1,a4
  84 0050 83A70400 		lw	a5,0(s1)
  85 0054 B387E700 		add	a5,a5,a4
  86 0058 67800700 		jr	a5
  87              		.section	.rodata
  88              		.align	2
  89              		.align	2
  90              	.L4:
  91 0000 00000000 		.word	.L2-.L4
  92 0004 00000000 		.word	.L10-.L4
  93 0008 00000000 		.word	.L9-.L4
  94 000c 00000000 		.word	.L8-.L4
  95 0010 00000000 		.word	.L7-.L4
  96 0014 00000000 		.word	.L6-.L4
  97 0018 00000000 		.word	.L5-.L4
  98 001c 00000000 		.word	.L3-.L4
  99              		.text
 100              	.L10:
  60:test/userMain.cpp ****         case 1:
 101              		.loc 1 60 9
  61:test/userMain.cpp **** #if LEVEL_2_IMPLEMENTED == 1
  62:test/userMain.cpp ****             Threads_C_API_test();
 102              		.loc 1 62 13
 103              		.loc 1 62 31 is_stmt 0
 104 005c 97000000 		call	_Z18Threads_C_API_testv
 104      E7800000 
 105              	.LVL4:
  63:test/userMain.cpp ****             printString("TEST 1 (zadatak 2, niti C API i sinhrona promena konteksta)\n");
 106              		.loc 1 63 13 is_stmt 1
 107              		.loc 1 63 24 is_stmt 0
 108 0064 17050000 		lla	a0,.LC1
 108      13050500 
 109 006c 97000000 		call	_Z11printStringPKc
 109      E7800000 
 110              	.LVL5:
  64:test/userMain.cpp **** #endif
  65:test/userMain.cpp ****             break;
 111              		.loc 1 65 13 is_stmt 1
 112              	.L1:
  66:test/userMain.cpp ****         case 2:
GAS LISTING /tmp/ccMaDkgu.s 			page 5


  67:test/userMain.cpp **** #if LEVEL_2_IMPLEMENTED == 1
  68:test/userMain.cpp ****             Threads_CPP_API_test();
  69:test/userMain.cpp ****             printString("TEST 2 (zadatak 2., niti CPP API i sinhrona promena konteksta)\n");
  70:test/userMain.cpp **** #endif
  71:test/userMain.cpp ****             break;
  72:test/userMain.cpp ****         case 3:
  73:test/userMain.cpp **** #if LEVEL_3_IMPLEMENTED == 1
  74:test/userMain.cpp ****             producerConsumer_C_API();
  75:test/userMain.cpp ****             printString("TEST 3 (zadatak 3., kompletan C API sa semaforima, sinhrona promena kontek
  76:test/userMain.cpp **** #endif
  77:test/userMain.cpp ****             break;
  78:test/userMain.cpp ****         case 4:
  79:test/userMain.cpp **** #if LEVEL_3_IMPLEMENTED == 1
  80:test/userMain.cpp ****             producerConsumer_CPP_Sync_API();
  81:test/userMain.cpp ****             printString("TEST 4 (zadatak 3., kompletan CPP API sa semaforima, sinhrona promena kont
  82:test/userMain.cpp **** #endif
  83:test/userMain.cpp ****             break;
  84:test/userMain.cpp ****         case 5:
  85:test/userMain.cpp **** #if LEVEL_4_IMPLEMENTED == 1
  86:test/userMain.cpp ****             testSleeping();
  87:test/userMain.cpp ****             printString("TEST 5 (zadatak 4., thread_sleep test C API)\n");
  88:test/userMain.cpp **** #endif
  89:test/userMain.cpp ****             break;
  90:test/userMain.cpp ****         case 6:
  91:test/userMain.cpp **** #if LEVEL_4_IMPLEMENTED == 1
  92:test/userMain.cpp ****             testConsumerProducer();
  93:test/userMain.cpp ****             printString("TEST 6 (zadatak 4. CPP API i asinhrona promena konteksta)\n");
  94:test/userMain.cpp **** #endif
  95:test/userMain.cpp ****             break;
  96:test/userMain.cpp ****         case 7:
  97:test/userMain.cpp **** #if LEVEL_2_IMPLEMENTED == 1
  98:test/userMain.cpp ****             System_Mode_test();
  99:test/userMain.cpp ****             printString("Test se nije uspesno zavrsio\n");
 100:test/userMain.cpp ****             printString("TEST 7 (zadatak 2., testiranje da li se korisnicki kod izvrsava u korisnic
 101:test/userMain.cpp **** #endif
 102:test/userMain.cpp ****             break;
 103:test/userMain.cpp ****         default:
 104:test/userMain.cpp ****             printString("Niste uneli odgovarajuci broj za test\n");
 105:test/userMain.cpp ****     }
 106:test/userMain.cpp **** }...
 113              		.loc 1 106 1 is_stmt 0
 114 0074 83308101 		ld	ra,24(sp)
 115              		.cfi_remember_state
 116              		.cfi_restore 1
 117 0078 03340101 		ld	s0,16(sp)
 118              		.cfi_restore 8
 119              		.cfi_def_cfa 2, 32
 120 007c 83348100 		ld	s1,8(sp)
 121              		.cfi_restore 9
 122 0080 13010102 		addi	sp,sp,32
 123              		.cfi_def_cfa_offset 0
 124 0084 67800000 		jr	ra
 125              	.L9:
 126              		.cfi_restore_state
  66:test/userMain.cpp ****         case 2:
 127              		.loc 1 66 9 is_stmt 1
  68:test/userMain.cpp ****             Threads_CPP_API_test();
GAS LISTING /tmp/ccMaDkgu.s 			page 6


 128              		.loc 1 68 13
  68:test/userMain.cpp ****             Threads_CPP_API_test();
 129              		.loc 1 68 33 is_stmt 0
 130 0088 97000000 		call	_Z20Threads_CPP_API_testv
 130      E7800000 
 131              	.LVL6:
  69:test/userMain.cpp ****             printString("TEST 2 (zadatak 2., niti CPP API i sinhrona promena konteksta)\n");
 132              		.loc 1 69 13 is_stmt 1
  69:test/userMain.cpp ****             printString("TEST 2 (zadatak 2., niti CPP API i sinhrona promena konteksta)\n");
 133              		.loc 1 69 24 is_stmt 0
 134 0090 17050000 		lla	a0,.LC2
 134      13050500 
 135 0098 97000000 		call	_Z11printStringPKc
 135      E7800000 
 136              	.LVL7:
  71:test/userMain.cpp ****             break;
 137              		.loc 1 71 13 is_stmt 1
 138 00a0 6FF05FFD 		j	.L1
 139              	.L8:
  72:test/userMain.cpp ****         case 3:
 140              		.loc 1 72 9
  74:test/userMain.cpp ****             producerConsumer_C_API();
 141              		.loc 1 74 13
  74:test/userMain.cpp ****             producerConsumer_C_API();
 142              		.loc 1 74 35 is_stmt 0
 143 00a4 97000000 		call	_Z22producerConsumer_C_APIv
 143      E7800000 
 144              	.LVL8:
  75:test/userMain.cpp ****             printString("TEST 3 (zadatak 3., kompletan C API sa semaforima, sinhrona promena kontek
 145              		.loc 1 75 13 is_stmt 1
  75:test/userMain.cpp ****             printString("TEST 3 (zadatak 3., kompletan C API sa semaforima, sinhrona promena kontek
 146              		.loc 1 75 24 is_stmt 0
 147 00ac 17050000 		lla	a0,.LC3
 147      13050500 
 148 00b4 97000000 		call	_Z11printStringPKc
 148      E7800000 
 149              	.LVL9:
  77:test/userMain.cpp ****             break;
 150              		.loc 1 77 13 is_stmt 1
 151 00bc 6FF09FFB 		j	.L1
 152              	.L7:
  78:test/userMain.cpp ****         case 4:
 153              		.loc 1 78 9
  80:test/userMain.cpp ****             producerConsumer_CPP_Sync_API();
 154              		.loc 1 80 13
  80:test/userMain.cpp ****             producerConsumer_CPP_Sync_API();
 155              		.loc 1 80 42 is_stmt 0
 156 00c0 97000000 		call	_Z29producerConsumer_CPP_Sync_APIv
 156      E7800000 
 157              	.LVL10:
  81:test/userMain.cpp ****             printString("TEST 4 (zadatak 3., kompletan CPP API sa semaforima, sinhrona promena kont
 158              		.loc 1 81 13 is_stmt 1
  81:test/userMain.cpp ****             printString("TEST 4 (zadatak 3., kompletan CPP API sa semaforima, sinhrona promena kont
 159              		.loc 1 81 24 is_stmt 0
 160 00c8 17050000 		lla	a0,.LC4
 160      13050500 
 161 00d0 97000000 		call	_Z11printStringPKc
GAS LISTING /tmp/ccMaDkgu.s 			page 7


 161      E7800000 
 162              	.LVL11:
  83:test/userMain.cpp ****             break;
 163              		.loc 1 83 13 is_stmt 1
 164 00d8 6FF0DFF9 		j	.L1
 165              	.L6:
  84:test/userMain.cpp ****         case 5:
 166              		.loc 1 84 9
  86:test/userMain.cpp ****             testSleeping();
 167              		.loc 1 86 13
  86:test/userMain.cpp ****             testSleeping();
 168              		.loc 1 86 25 is_stmt 0
 169 00dc 97000000 		call	_Z12testSleepingv
 169      E7800000 
 170              	.LVL12:
  87:test/userMain.cpp ****             printString("TEST 5 (zadatak 4., thread_sleep test C API)\n");
 171              		.loc 1 87 13 is_stmt 1
  87:test/userMain.cpp ****             printString("TEST 5 (zadatak 4., thread_sleep test C API)\n");
 172              		.loc 1 87 24 is_stmt 0
 173 00e4 17050000 		lla	a0,.LC5
 173      13050500 
 174 00ec 97000000 		call	_Z11printStringPKc
 174      E7800000 
 175              	.LVL13:
  89:test/userMain.cpp ****             break;
 176              		.loc 1 89 13 is_stmt 1
 177 00f4 6FF01FF8 		j	.L1
 178              	.L5:
  90:test/userMain.cpp ****         case 6:
 179              		.loc 1 90 9
  92:test/userMain.cpp ****             testConsumerProducer();
 180              		.loc 1 92 13
  92:test/userMain.cpp ****             testConsumerProducer();
 181              		.loc 1 92 33 is_stmt 0
 182 00f8 97000000 		call	_Z20testConsumerProducerv
 182      E7800000 
 183              	.LVL14:
  93:test/userMain.cpp ****             printString("TEST 6 (zadatak 4. CPP API i asinhrona promena konteksta)\n");
 184              		.loc 1 93 13 is_stmt 1
  93:test/userMain.cpp ****             printString("TEST 6 (zadatak 4. CPP API i asinhrona promena konteksta)\n");
 185              		.loc 1 93 24 is_stmt 0
 186 0100 17050000 		lla	a0,.LC6
 186      13050500 
 187 0108 97000000 		call	_Z11printStringPKc
 187      E7800000 
 188              	.LVL15:
  95:test/userMain.cpp ****             break;
 189              		.loc 1 95 13 is_stmt 1
 190 0110 6FF05FF6 		j	.L1
 191              	.L3:
  96:test/userMain.cpp ****         case 7:
 192              		.loc 1 96 9
  98:test/userMain.cpp ****             System_Mode_test();
 193              		.loc 1 98 13
  98:test/userMain.cpp ****             System_Mode_test();
 194              		.loc 1 98 29 is_stmt 0
 195 0114 97000000 		call	_Z16System_Mode_testv
GAS LISTING /tmp/ccMaDkgu.s 			page 8


 195      E7800000 
 196              	.LVL16:
  99:test/userMain.cpp ****             printString("Test se nije uspesno zavrsio\n");
 197              		.loc 1 99 13 is_stmt 1
  99:test/userMain.cpp ****             printString("Test se nije uspesno zavrsio\n");
 198              		.loc 1 99 24 is_stmt 0
 199 011c 17050000 		lla	a0,.LC7
 199      13050500 
 200 0124 97000000 		call	_Z11printStringPKc
 200      E7800000 
 201              	.LVL17:
 100:test/userMain.cpp ****             printString("TEST 7 (zadatak 2., testiranje da li se korisnicki kod izvrsava u korisnic
 202              		.loc 1 100 13 is_stmt 1
 100:test/userMain.cpp ****             printString("TEST 7 (zadatak 2., testiranje da li se korisnicki kod izvrsava u korisnic
 203              		.loc 1 100 24 is_stmt 0
 204 012c 17050000 		lla	a0,.LC8
 204      13050500 
 205 0134 97000000 		call	_Z11printStringPKc
 205      E7800000 
 206              	.LVL18:
 102:test/userMain.cpp ****             break;
 207              		.loc 1 102 13 is_stmt 1
 208 013c 6FF09FF3 		j	.L1
 209              	.L2:
 103:test/userMain.cpp ****         default:
 210              		.loc 1 103 9
 104:test/userMain.cpp ****             printString("Niste uneli odgovarajuci broj za test\n");
 211              		.loc 1 104 13
 104:test/userMain.cpp ****             printString("Niste uneli odgovarajuci broj za test\n");
 212              		.loc 1 104 24 is_stmt 0
 213 0140 17050000 		lla	a0,.LC9
 213      13050500 
 214 0148 97000000 		call	_Z11printStringPKc
 214      E7800000 
 215              	.LVL19:
 216 0150 6FF05FF2 		j	.L1
 217              		.cfi_endproc
 218              	.LFE0:
 220              	.Letext0:
 221              		.file 2 "test/../h/../lib/hw.h"
 222              		.file 3 "test/printing.hpp"
 223              		.file 4 "test/../h/syscall_c.hpp"
 224              		.file 5 "test/../test/Threads_C_API_test.hpp"
 225              		.file 6 "test/../test/Threads_CPP_API_test.hpp"
 226              		.file 7 "test/../test/ConsumerProducer_C_API_test.hpp"
 227              		.file 8 "test/../test/ConsumerProducer_CPP_Sync_API_test.hpp"
 228              		.file 9 "test/../test/ThreadSleep_C_API_test.hpp"
 229              		.file 10 "test/../test/ConsumerProducer_CPP_API_test.hpp"
 230              		.file 11 "test/../test/System_Mode_test.hpp"
GAS LISTING /tmp/ccMaDkgu.s 			page 9

